(dp0
S'[-1, [8, 0, 4]]'
p1
I90
sS'[-1, [1, 1, 10]]'
p2
I108
sS'[-1, [2, 7, 3]]'
p3
I98
sS'[-1, [9, 3, 0]]'
p4
I89
sS'[-1, [1, 3, 8]]'
p5
I114
sS'[-1, [4, 4, 4]]'
p6
I107
sS'[-1, [1, 5, 6]]'
p7
I98
sS'[-1, [5, 4, 3]]'
p8
I95
sS'[-1, [7, 3, 2]]'
p9
I87
sS'[-1, [5, 6, 1]]'
p10
I93
sS'[-1, [8, 3, 1]]'
p11
I90
sS'[-1, [2, 0, 10]]'
p12
I90
sS'[-1, [0, 10, 2]]'
p13
I89
sS'[-1, [4, 1, 7]]'
p14
I100
sS'[-1, [3, 8, 1]]'
p15
I94
sS'[-1, [8, 1, 3]]'
p16
I92
sS'[-1, [7, 0, 5]]'
p17
I90
sS'[-1, [7, 5, 0]]'
p18
I93
sS'[-1, [10, 0, 2]]'
p19
I90
sS'[-1, [0, 9, 3]]'
p20
I98
sS'[-1, [4, 8, 0]]'
p21
I83
sS'[-1, [2, 2, 8]]'
p22
I86
sS'[-1, [0, 5, 7]]'
p23
I99
sS'[-1, [4, 0, 8]]'
p24
I90
sS'[-1, [5, 3, 4]]'
p25
I96
sS'[-1, [2, 9, 1]]'
p26
I101
sS'[-1, [2, 3, 7]]'
p27
I107
sS'[-1, [7, 2, 3]]'
p28
I89
sS'[-1, [2, 4, 6]]'
p29
I104
sS'[-1, [3, 6, 3]]'
p30
I97
sS'[-1, [5, 1, 6]]'
p31
I98
sS'[-1, [3, 4, 5]]'
p32
I99
sS'[-1, [2, 10, 0]]'
p33
I94
sS'[-1, [1, 8, 3]]'
p34
I108
sS'[-1, [5, 5, 2]]'
p35
I90
sS'[-1, [1, 10, 1]]'
p36
I106
sS'[-1, [11, 1, 0]]'
p37
I82
sS'[-1, [3, 3, 6]]'
p38
I78
sS'[-1, [0, 0, 12]]'
p39
I90
sS'[-1, [1, 11, 0]]'
p40
I90
sS'[-1, [6, 4, 2]]'
p41
I100
sS'[-1, [6, 2, 4]]'
p42
I93
sS'[-1, [0, 4, 8]]'
p43
I102
sS'[-1, [0, 2, 10]]'
p44
I106
sS'[-1, [6, 6, 0]]'
p45
I89
sS'[-1, [9, 0, 3]]'
p46
I90
sS'[-1, [9, 2, 1]]'
p47
I91
sS'[-1, [4, 5, 3]]'
p48
I93
sS'[-1, [10, 1, 1]]'
p49
I88
sS'[-1, [3, 1, 8]]'
p50
I95
sS'[-1, [1, 9, 2]]'
p51
I89
sS'[-1, [6, 1, 5]]'
p52
I89
sS'[-1, [4, 7, 1]]'
p53
I86
sS'[-1, [4, 6, 2]]'
p54
I98
sS'[-1, [7, 4, 1]]'
p55
I83
sS'[-1, [1, 2, 9]]'
p56
I109
sS'[-1, [3, 5, 4]]'
p57
I109
sS'[-1, [3, 0, 9]]'
p58
I90
sS'[-1, [2, 8, 2]]'
p59
I95
sS'[-1, [10, 2, 0]]'
p60
I95
sS'[-1, [9, 1, 2]]'
p61
I86
sS'[-1, [2, 1, 9]]'
p62
I90
sS'[-1, [12, 0, 0]]'
p63
I90
sS'[-1, [5, 7, 0]]'
p64
I88
sS'[-1, [3, 7, 2]]'
p65
I98
sS'[-1, [0, 12, 0]]'
p66
I86
sS'[-1, [1, 7, 4]]'
p67
I109
sS'[-1, [0, 8, 4]]'
p68
I99
sS'[-1, [2, 5, 5]]'
p69
I101
sS'[-1, [8, 2, 2]]'
p70
I84
sS'[-1, [11, 0, 1]]'
p71
I90
sS'[-1, [7, 1, 4]]'
p72
I95
sS'[-1, [0, 11, 1]]'
p73
I99
sS'[-1, [0, 6, 6]]'
p74
I104
sS'[-1, [0, 1, 11]]'
p75
I111
sS'[-1, [4, 2, 6]]'
p76
I85
sS'[-1, [1, 4, 7]]'
p77
I101
sS'[-1, [6, 0, 6]]'
p78
I90
sS'[-1, [3, 2, 7]]'
p79
I92
sS'[-1, [1, 0, 11]]'
p80
I90
sS'[-1, [4, 3, 5]]'
p81
I87
sS'[-1, [1, 6, 5]]'
p82
I109
sS'[-1, [6, 3, 3]]'
p83
I89
sS'[-1, [2, 6, 4]]'
p84
I91
sS'[-1, [5, 2, 5]]'
p85
I100
sS'[-1, [6, 5, 1]]'
p86
I94
sS'[-1, [0, 7, 5]]'
p87
I100
sS'[-1, [5, 0, 7]]'
p88
I90
sS'[-1, [3, 9, 0]]'
p89
I86
sS'[-1, [8, 4, 0]]'
p90
I89
sS'[-1, [0, 3, 9]]'
p91
I96
s.