(dp0
S"[-1, 'false', [7, 3, 2], 6, 8, 11, 'false']"
p1
(lp2
I28
aI26
aI32
aI26
asS"[-1, 'false', [6, 3, 3], 4, 32, 12, 'false']"
p3
(lp4
I31
aI37
aI28
aI23
asS"[-1, 'false', [2, 8, 2], 16, 11, 7, 'false']"
p5
(lp6
I34
asS"[-1, 'false', [6, 1, 5], 5, 17, 13, 'true']"
p7
(lp8
I21
aI30
aI25
aI24
asS"[-1, 'false', [6, 2, 4], 11, 6, 10, 'false']"
p9
(lp10
I20
asS"[-1, 'false', [0, 4, 8], 1, 15, 2, 'true']"
p11
(lp12
I39
aI33
aI35
aI36
asS"[-1, 'false', [5, 4, 3], 3, 15, 11, 'true']"
p13
(lp14
I32
aI21
aI28
aI37
asS"[-1, 'false', [6, 1, 5], 4, 38, 16, 'false']"
p15
(lp16
I20
aI46
aI27
aI32
asS"[-1, 'false', [7, 2, 3], 14, 35, 16, 'true']"
p17
(lp18
I19
aI23
aI16
aI27
asS"[-1, 'false', [8, 2, 2], 2, 20, 6, 'false']"
p19
(lp20
I34
aI29
aI26
aI25
asS"[-1, 'false', [6, 2, 4], 4, 24, 7, 'false']"
p21
(lp22
I36
aI31
aI42
aI39
asS"[-1, 'false', [5, 2, 5], 1, 23, 9, 'false']"
p23
(lp24
I28
aI31
aI34
aI40
asS"[-1, 'false', [0, 6, 6], 1, 24, 9, 'true']"
p25
(lp26
I39
aI31
aI47
aI32
asS"[-1, 'false', [0, 2, 10], 15, 50, 11, 'false']"
p27
(lp28
I20
asS"[-1, 'false', [3, 6, 3], 5, 13, 3, 'true']"
p29
(lp30
I42
aI37
aI24
aI23
asS"[-1, 'false', [1, 8, 3], 6, 12, 3, 'false']"
p31
(lp32
I29
aI32
aI50
aI36
asS"[-1, 'false', [1, 8, 3], 8, 41, 3, 'false']"
p33
(lp34
I23
aI41
aI24
aI24
asS"[-1, 'false', [0, 4, 8], 13, 15, 4, 'true']"
p35
(lp36
I53
aI28
aI44
aI53
asS"[-1, 'false', [2, 6, 4], 20, 45, 14, 'true']"
p37
(lp38
I13
asS"[-1, 'false', [2, 2, 8], 7, 22, 9, 'true']"
p39
(lp40
I30
aI25
aI34
aI36
asS"[-1, 'false', [5, 1, 6], 4, 27, 15, 'true']"
p41
(lp42
I33
aI27
aI35
aI32
asS"[-1, 'false', [2, 6, 4], 8, 11, 14, 'true']"
p43
(lp44
I37
aI31
aI25
aI29
asS"[-1, 'false', [4, 2, 6], 5, 28, 7, 'false']"
p45
(lp46
I36
aI29
aI31
aI39
asS"[-1, 'false', [1, 7, 4], 6, 5, 14, 'true']"
p47
(lp48
I26
aI13
aI23
aI29
asS"[-1, 'false', [5, 3, 4], 3, 7, 13, 'false']"
p49
(lp50
I34
aI29
aI24
aI33
asS"[-1, 'false', [4, 3, 5], 6, 11, 9, 'true']"
p51
(lp52
I21
aI40
aI20
aI36
asS"[-1, 'false', [2, 1, 9], 2, 23, 9, 'false']"
p53
(lp54
I26
aI19
aI33
aI36
asS"[-1, 'false', [8, 3, 1], 18, 5, 11, 'true']"
p55
(lp56
I24
asS"[-1, 'false', [9, 2, 1], 19, 8, 6, 'true']"
p57
(lp58
I21
aI21
aI31
aI29
asS"[-1, 'false', [3, 3, 6], 11, 15, 12, 'true']"
p59
(lp60
I21
aI26
aI29
aI25
asS"[-1, 'false', [3, 6, 3], 5, 1, 10, 'true']"
p61
(lp62
I26
aI28
aI28
aI24
asS"[-1, 'false', [1, 1, 10], 10, 10, 12, 'true']"
p63
(lp64
I32
asS"[-1, 'false', [3, 7, 2], 4, 43, 9, 'false']"
p65
(lp66
I22
asS"[-1, 'false', [4, 5, 3], 17, 1, 6, 'true']"
p67
(lp68
I20
aI18
aI21
aI29
asS"[-1, 'false', [1, 6, 5], 1, 9, 14, 'true']"
p69
(lp70
I39
aI29
aI33
aI32
asS"[-1, 'false', [3, 4, 5], 5, 14, 10, 'true']"
p71
(lp72
I33
aI30
aI31
aI27
asS"[-1, 'false', [1, 5, 6], 13, 22, 9, 'true']"
p73
(lp74
I14
aI17
aI26
aI27
asS"[-1, 'false', [9, 2, 1], 4, 15, 9, 'true']"
p75
(lp76
I20
aI31
aI33
aI24
asS"[-1, 'false', [4, 4, 4], 17, 1, 6, 'true']"
p77
(lp78
I19
aI29
aI33
aI25
asS"[-1, 'false', [6, 2, 4], 11, 2, 12, 'true']"
p79
(lp80
I27
aI22
aI26
aI18
asS"[-1, 'false', [6, 1, 5], 7, 5, 10, 'false']"
p81
(lp82
I27
asS"[-1, 'false', [8, 1, 3], 7, 13, 10, 'true']"
p83
(lp84
I39
aI29
aI31
aI17
asS"[-1, 'false', [5, 3, 4], 14, 7, 13, 'true']"
p85
(lp86
I23
aI31
aI28
aI26
asS"[-1, 'false', [0, 7, 5], 4, 33, 15, 'true']"
p87
(lp88
I15
aI19
aI32
aI26
asS"[-1, 'false', [5, 2, 5], 20, 16, 6, 'true']"
p89
(lp90
I12
asS"[-1, 'false', [7, 4, 1], 14, 21, 14, 'true']"
p91
(lp92
I23
aI25
aI23
aI15
asS"[-1, 'false', [5, 1, 6], 12, 35, 12, 'false']"
p93
(lp94
I31
asS"[-1, 'false', [9, 2, 1], 12, 6, 15, 'true']"
p95
(lp96
I25
aI23
aI29
aI18
aI22
aI23
aI33
aI27
aI22
asS"[-1, 'false', [7, 1, 4], 3, 8, 12, 'false']"
p97
(lp98
I21
aI24
aI32
aI30
asS"[-1, 'false', [1, 8, 3], 5, 10, 3, 'true']"
p99
(lp100
I31
aI25
aI41
aI37
asS"[-1, 'false', [5, 1, 6], 5, 26, 4, 'false']"
p101
(lp102
I35
aI31
aI38
aI38
asS"[-1, 'false', [1, 2, 9], 15, 1, 9, 'true']"
p103
(lp104
I24
aI20
aI25
aI28
asS"[-1, 'false', [2, 3, 7], 11, 40, 14, 'true']"
p105
(lp106
I26
aI27
aI23
aI30
asS"[-1, 'false', [1, 8, 3], 8, 25, 3, 'false']"
p107
(lp108
I32
aI19
aI34
aI31
asS"[-1, 'false', [1, 2, 9], 11, 29, 11, 'true']"
p109
(lp110
I43
aI31
aI44
aI40
asS"[-1, 'false', [2, 2, 8], 3, 23, 9, 'false']"
p111
(lp112
I33
aI35
aI42
aI20
asS"[-1, 'false', [6, 2, 4], 11, 24, 15, 'true']"
p113
(lp114
I28
aI23
aI29
aI17
asS"[-1, 'false', [5, 2, 5], 11, 24, 5, 'true']"
p115
(lp116
I26
aI15
aI34
aI26
asS"[-1, 'false', [6, 4, 2], 12, 31, 13, 'true']"
p117
(lp118
I18
aI15
aI15
aI23
asS"[-1, 'false', [3, 6, 3], 9, 32, 10, 'true']"
p119
(lp120
I21
aI28
aI25
aI17
asS"[-1, 'false', [1, 8, 3], 5, 27, 3, 'true']"
p121
(lp122
I27
aI44
aI28
aI44
asS"[-1, 'false', [0, 7, 5], 9, 45, 15, 'false']"
p123
(lp124
I30
aI21
aI14
aI15
asS"[-1, 'false', [8, 1, 3], 4, 23, 9, 'false']"
p125
(lp126
I23
asS"[-1, 'false', [1, 4, 7], 16, 5, 7, 'true']"
p127
(lp128
I22
aI24
aI28
aI21
asS"[-1, 'false', [6, 2, 4], 12, 6, 15, 'false']"
p129
(lp130
I21
asS"[-1, 'false', [2, 7, 3], 17, 34, 11, 'true']"
p131
(lp132
I14
aI12
aI17
aI17
asS"[-1, 'false', [2, 2, 8], 1, 23, 8, 'false']"
p133
(lp134
I31
aI45
aI31
aI36
asS"[-1, 'false', [5, 3, 4], 2, 15, 12, 'false']"
p135
(lp136
I40
aI26
aI32
aI30
asS"[-1, 'false', [1, 8, 3], 9, 34, 3, 'false']"
p137
(lp138
I40
aI36
aI26
aI31
asS"[-1, 'false', [1, 8, 3], 7, 38, 14, 'false']"
p139
(lp140
I20
aI28
aI28
aI23
asS"[-1, 'false', [2, 6, 4], 11, 11, 14, 'true']"
p141
(lp142
I34
aI26
aI25
aI34
asS"[-1, 'false', [5, 4, 3], 9, 23, 11, 'false']"
p143
(lp144
I34
asS"[-1, 'false', [2, 2, 8], 7, 15, 9, 'true']"
p145
(lp146
I32
aI34
aI27
aI25
asS"[-1, 'false', [5, 4, 3], 16, 36, 14, 'true']"
p147
(lp148
I25
asS"[-1, 'false', [4, 4, 4], 2, 20, 15, 'true']"
p149
(lp150
I38
aI33
aI35
aI34
asS"[-1, 'false', [1, 7, 4], 9, 32, 10, 'true']"
p151
(lp152
I19
aI27
aI29
aI37
asS"[-1, 'false', [3, 5, 4], 5, 25, 7, 'false']"
p153
(lp154
I41
aI25
asS"[-1, 'false', [2, 2, 8], 11, 23, 9, 'false']"
p155
(lp156
I29
aI32
aI31
aI36
asS"[-1, 'false', [3, 4, 5], 5, 29, 10, 'true']"
p157
(lp158
I36
aI29
aI32
aI25
asS"[-1, 'false', [2, 5, 5], 9, 24, 8, 'true']"
p159
(lp160
I26
aI14
aI24
aI23
asS"[-1, 'false', [7, 1, 4], 8, 19, 11, 'false']"
p161
(lp162
I24
aI46
aI29
aI25
asS"[-1, 'false', [8, 2, 2], 16, 19, 10, 'true']"
p163
(lp164
I21
aI19
aI26
aI25
asS"[-1, 'false', [8, 1, 3], 11, 11, 12, 'false']"
p165
(lp166
I24
aI28
aI26
aI29
asS"[-1, 'false', [8, 1, 3], 18, 17, 13, 'true']"
p167
(lp168
I22
aI33
aI15
aI22
asS"[-1, 'false', [9, 1, 2], 18, 7, 11, 'false']"
p169
(lp170
I22
aI25
aI21
aI39
asS"[-1, 'false', [6, 5, 1], 20, 12, 3, 'false']"
p171
(lp172
I31
aI26
aI18
aI25
asS"[-1, 'false', [5, 3, 4], 3, 8, 16, 'false']"
p173
(lp174
I22
aI28
aI15
aI30
asS"[-1, 'false', [7, 3, 2], 12, 45, 9, 'false']"
p175
(lp176
I10
aI9
aI15
aI14
asS"[-1, 'false', [2, 9, 1], 9, 21, 10, 'false']"
p177
(lp178
I22
asS"[-1, 'false', [2, 1, 9], 6, 22, 9, 'true']"
p179
(lp180
I33
aI41
aI26
aI40
asS"[-1, 'false', [0, 5, 7], 3, 18, 9, 'true']"
p181
(lp182
I35
aI29
aI40
aI31
asS"[-1, 'false', [8, 1, 3], 7, 13, 14, 'true']"
p183
(lp184
I28
aI24
aI26
aI35
asS"[-1, 'false', [1, 6, 5], 1, 18, 9, 'true']"
p185
(lp186
I32
aI37
aI31
aI23
asS"[-1, 'false', [4, 2, 6], 12, 31, 14, 'false']"
p187
(lp188
I21
asS"[-1, 'false', [2, 2, 8], 6, 23, 9, 'true']"
p189
(lp190
I34
aI32
aI33
aI27
asS"[-1, 'false', [3, 3, 6], 10, 23, 10, 'false']"
p191
(lp192
I25
aI29
aI32
aI25
asS"[-1, 'false', [3, 2, 7], 11, 7, 12, 'false']"
p193
(lp194
I26
aI29
aI27
aI32
asS"[-1, 'false', [6, 5, 1], 7, 11, 12, 'false']"
p195
(lp196
I22
aI16
aI22
aI28
asS"[-1, 'false', [7, 2, 3], 19, 12, 6, 'false']"
p197
(lp198
I26
asS"[-1, 'false', [5, 3, 4], 16, 11, 9, 'false']"
p199
(lp200
I18
asS"[-1, 'false', [0, 5, 7], 1, 12, 6, 'true']"
p201
(lp202
I41
aI50
aI39
aI39
asS"[-1, 'false', [1, 8, 3], 8, 37, 15, 'false']"
p203
(lp204
I28
aI25
aI22
aI20
asS"[-1, 'false', [6, 3, 3], 2, 46, 8, 'false']"
p205
(lp206
I30
asS"[-1, 'false', [3, 4, 5], 2, 12, 11, 'false']"
p207
(lp208
I34
aI22
aI43
aI36
asS"[-1, 'false', [3, 4, 5], 2, 39, 7, 'true']"
p209
(lp210
I34
aI34
aI30
aI35
asS"[-1, 'false', [4, 6, 2], 16, 21, 15, 'true']"
p211
(lp212
I11
aI21
aI18
aI19
asS"[-1, 'false', [5, 3, 4], 7, 17, 12, 'false']"
p213
(lp214
I29
aI22
aI28
aI21
asS"[-1, 'false', [7, 2, 3], 9, 46, 12, 'false']"
p215
(lp216
I30
aI17
aI32
aI25
asS"[-1, 'false', [5, 4, 3], 6, 8, 4, 'false']"
p217
(lp218
I28
aI40
aI24
aI25
asS"[-1, 'false', [0, 8, 4], 16, 13, 7, 'false']"
p219
(lp220
I25
asS"[-1, 'false', [1, 4, 7], 1, 12, 8, 'true']"
p221
(lp222
I29
aI31
aI26
aI29
asS"[-1, 'false', [3, 6, 3], 14, 48, 9, 'false']"
p223
(lp224
I21
aI14
aI22
aI17
asS"[-1, 'false', [1, 8, 3], 8, 12, 3, 'true']"
p225
(lp226
I28
aI33
aI36
aI29
asS"[-1, 'false', [5, 3, 4], 5, 43, 11, 'false']"
p227
(lp228
I23
aI25
aI29
aI27
asS"[-1, 'false', [0, 5, 7], 1, 8, 9, 'false']"
p229
(lp230
I41
aI44
aI19
aI28
asS"[-1, 'false', [0, 7, 5], 1, 42, 15, 'false']"
p231
(lp232
I49
aI30
aI27
aI15
asS"[-1, 'false', [8, 1, 3], 9, 7, 8, 'true']"
p233
(lp234
I26
aI25
aI39
aI36
asS"[-1, 'false', [1, 6, 5], 3, 26, 12, 'true']"
p235
(lp236
I35
aI31
aI33
aI30
asS"[-1, 'false', [1, 8, 3], 9, 32, 4, 'false']"
p237
(lp238
I30
aI22
aI31
aI29
asS"[-1, 'false', [5, 5, 2], 12, 6, 7, 'true']"
p239
(lp240
I24
aI24
aI22
aI18
asS"[-1, 'false', [6, 1, 5], 2, 13, 9, 'false']"
p241
(lp242
I32
aI17
aI30
aI25
asS"[-1, 'false', [5, 2, 5], 2, 30, 10, 'true']"
p243
(lp244
I38
aI37
aI22
aI29
asS"[-1, 'false', [5, 4, 3], 5, 16, 11, 'false']"
p245
(lp246
I32
aI23
aI24
aI20
asS"[-1, 'false', [5, 2, 5], 2, 2, 10, 'false']"
p247
(lp248
I24
aI30
aI24
aI27
asS"[-1, 'false', [4, 2, 6], 3, 49, 14, 'true']"
p249
(lp250
I41
aI35
aI35
aI32
asS"[-1, 'false', [9, 1, 2], 20, 37, 9, 'false']"
p251
(lp252
I20
aI19
aI20
aI25
asS"[-1, 'false', [8, 1, 3], 13, 32, 8, 'true']"
p253
(lp254
I24
aI23
aI38
aI10
asS"[-1, 'false', [7, 3, 2], 12, 45, 11, 'false']"
p255
(lp256
I23
aI24
aI11
aI24
asS"[-1, 'false', [9, 2, 1], 13, 6, 15, 'true']"
p257
(lp258
I22
asS"[-1, 'false', [1, 8, 3], 6, 2, 3, 'true']"
p259
(lp260
I31
aI29
aI22
aI27
asS"[-1, 'false', [5, 4, 3], 10, 10, 12, 'true']"
p261
(lp262
I32
asS"[-1, 'false', [4, 3, 5], 13, 8, 8, 'false']"
p263
(lp264
I29
asS"[-1, 'false', [2, 8, 2], 7, 38, 14, 'false']"
p265
(lp266
I32
aI10
aI18
aI20
asS"[-1, 'false', [6, 2, 4], 18, 35, 5, 'true']"
p267
(lp268
I16
aI12
aI33
aI31
asS"[-1, 'false', [5, 3, 4], 2, 20, 15, 'true']"
p269
(lp270
I33
aI27
aI29
aI42
asS"[-1, 'false', [0, 4, 8], 1, 12, 6, 'true']"
p271
(lp272
I34
aI39
aI37
aI38
asS"[-1, 'false', [5, 1, 6], 5, 30, 11, 'false']"
p273
(lp274
I45
aI25
aI23
aI21
asS"[-1, 'false', [6, 1, 5], 20, 15, 12, 'true']"
p275
(lp276
I21
aI24
aI22
aI21
asS"[-1, 'false', [0, 5, 7], 1, 4, 9, 'true']"
p277
(lp278
I24
aI37
aI33
aI36
asS"[-1, 'false', [4, 2, 6], 15, 14, 6, 'false']"
p279
(lp280
I28
aI21
aI30
aI18
asS"[-1, 'false', [5, 3, 4], 1, 21, 9, 'false']"
p281
(lp282
I40
aI30
aI38
aI29
asS"[-1, 'false', [2, 7, 3], 15, 17, 15, 'false']"
p283
(lp284
I28
aI23
aI21
aI21
asS"[-1, 'false', [9, 2, 1], 13, 27, 10, 'true']"
p285
(lp286
I22
asS"[-1, 'false', [2, 3, 7], 14, 47, 8, 'true']"
p287
(lp288
I22
aI23
aI14
aI13
asS"[-1, 'false', [2, 5, 5], 5, 33, 15, 'true']"
p289
(lp290
I35
aI27
aI35
aI19
asS"[-1, 'false', [6, 2, 4], 10, 13, 12, 'true']"
p291
(lp292
I19
aI30
aI32
aI24
asS"[-1, 'false', [1, 8, 3], 9, 37, 3, 'false']"
p293
(lp294
I26
aI30
aI36
aI31
asS"[-1, 'false', [3, 4, 5], 2, 9, 9, 'false']"
p295
(lp296
I23
aI27
aI32
aI35
asS"[-1, 'false', [1, 8, 3], 10, 1, 10, 'true']"
p297
(lp298
I29
aI34
aI31
aI18
asS"[-1, 'false', [6, 3, 3], 8, 36, 10, 'false']"
p299
(lp300
I39
aI40
aI26
aI26
asS"[-1, 'false', [6, 4, 2], 5, 43, 11, 'false']"
p301
(lp302
I25
aI29
aI24
aI12
asS"[-1, 'false', [6, 1, 5], 3, 6, 7, 'false']"
p303
(lp304
I25
aI21
aI30
aI24
asS"[-1, 'false', [6, 4, 2], 1, 15, 3, 'true']"
p305
(lp306
I28
aI31
aI34
aI38
asS"[-1, 'false', [3, 4, 5], 13, 34, 11, 'true']"
p307
(lp308
I22
aI29
aI19
aI16
asS"[-1, 'false', [2, 7, 3], 8, 10, 3, 'true']"
p309
(lp310
I40
aI30
aI19
aI28
asS"[-1, 'false', [2, 8, 2], 4, 41, 12, 'true']"
p311
(lp312
I21
aI21
aI23
aI28
asS"[-1, 'false', [0, 7, 5], 2, 45, 12, 'true']"
p313
(lp314
I29
aI21
aI31
aI46
asS"[-1, 'false', [2, 2, 8], 8, 23, 9, 'false']"
p315
(lp316
I23
aI27
aI26
aI37
asS"[-1, 'false', [0, 2, 10], 8, 2, 13, 'false']"
p317
(lp318
I32
aI27
aI27
aI26
asS"[-1, 'false', [0, 6, 6], 1, 9, 11, 'false']"
p319
(lp320
I23
aI36
aI49
aI23
asS"[-1, 'false', [8, 3, 1], 13, 24, 9, 'false']"
p321
(lp322
I33
aI15
aI18
aI25
asS"[-1, 'false', [3, 3, 6], 11, 24, 12, 'true']"
p323
(lp324
I28
aI29
aI31
aI32
asS"[-1, 'false', [2, 1, 9], 4, 15, 10, 'false']"
p325
(lp326
I37
aI26
aI26
aI42
asS"[-1, 'false', [1, 8, 3], 14, 37, 14, 'true']"
p327
(lp328
I20
asS"[-1, 'false', [3, 4, 5], 5, 14, 10, 'false']"
p329
(lp330
I42
aI27
aI43
aI36
asS"[-1, 'false', [2, 5, 5], 8, 37, 9, 'false']"
p331
(lp332
I36
aI17
aI24
aI27
asS"[-1, 'false', [5, 2, 5], 2, 47, 11, 'false']"
p333
(lp334
I25
aI30
aI25
aI36
asS"[-1, 'false', [1, 8, 3], 6, 6, 3, 'true']"
p335
(lp336
I34
aI29
aI21
aI33
asS"[-1, 'false', [1, 8, 3], 12, 12, 8, 'true']"
p337
(lp338
I16
aI24
aI20
aI32
asS"[-1, 'false', [0, 3, 9], 2, 40, 12, 'true']"
p339
(lp340
I18
aI29
aI42
aI21
asS"[-1, 'false', [2, 4, 6], 2, 23, 5, 'false']"
p341
(lp342
I48
aI46
aI23
aI36
asS"[-1, 'false', [10, 1, 1], 7, 21, 12, 'true']"
p343
(lp344
I35
aI25
asS"[-1, 'false', [4, 3, 5], 2, 28, 12, 'false']"
p345
(lp346
I34
aI37
aI33
aI27
asS"[-1, 'false', [0, 2, 10], 6, 7, 7, 'true']"
p347
(lp348
I25
aI27
aI24
aI29
asS"[-1, 'false', [1, 7, 4], 9, 32, 8, 'true']"
p349
(lp350
I23
aI29
aI32
aI37
asS"[-1, 'false', [0, 7, 5], 1, 45, 15, 'false']"
p351
(lp352
I28
aI42
aI39
aI33
asS"[-1, 'false', [8, 1, 3], 11, 6, 12, 'false']"
p353
(lp354
I31
aI34
aI31
aI21
asS"[-1, 'false', [1, 1, 10], 11, 49, 15, 'false']"
p355
(lp356
I16
aI14
aI21
aI28
aI12
aI25
aI25
aI29
aI27
aI13
aI21
asS"[-1, 'false', [3, 2, 7], 5, 38, 8, 'true']"
p357
(lp358
I37
aI42
aI36
aI40
asS"[-1, 'false', [4, 7, 1], 10, 49, 12, 'true']"
p359
(lp360
I8
aI23
aI17
aI22
asS"[-1, 'false', [3, 6, 3], 10, 1, 7, 'true']"
p361
(lp362
I22
aI29
aI22
aI26
asS"[-1, 'false', [10, 1, 1], 2, 17, 7, 'true']"
p363
(lp364
I33
asS"[-1, 'false', [4, 5, 3], 6, 7, 8, 'true']"
p365
(lp366
I26
aI27
aI29
aI28
asS"[-1, 'false', [0, 7, 5], 1, 33, 12, 'false']"
p367
(lp368
I41
aI36
aI38
aI40
asS"[-1, 'false', [1, 5, 6], 16, 29, 11, 'true']"
p369
(lp370
I27
aI17
aI21
aI15
asS"[-1, 'false', [8, 2, 2], 1, 11, 13, 'false']"
p371
(lp372
I35
asS"[-1, 'false', [3, 3, 6], 5, 21, 9, 'false']"
p373
(lp374
I33
aI24
aI29
aI27
asS"[-1, 'false', [1, 5, 6], 9, 12, 9, 'true']"
p375
(lp376
I30
aI31
asS"[-1, 'false', [0, 4, 8], 2, 15, 2, 'true']"
p377
(lp378
I33
aI40
aI38
aI29
asS"[-1, 'false', [5, 3, 4], 6, 15, 12, 'true']"
p379
(lp380
I28
aI25
aI24
aI30
asS"[-1, 'false', [2, 3, 7], 6, 23, 7, 'true']"
p381
(lp382
I36
aI24
aI34
aI29
asS"[-1, 'false', [2, 5, 5], 18, 16, 15, 'true']"
p383
(lp384
I17
aI24
aI24
aI21
asS"[-1, 'false', [5, 2, 5], 5, 41, 11, 'false']"
p385
(lp386
I30
asS"[-1, 'false', [5, 3, 4], 15, 29, 11, 'true']"
p387
(lp388
I20
asS"[-1, 'false', [5, 2, 5], 14, 14, 10, 'true']"
p389
(lp390
I25
aI20
aI32
aI32
asS"[-1, 'false', [3, 1, 8], 1, 23, 9, 'false']"
p391
(lp392
I51
aI35
aI31
aI33
asS"[-1, 'false', [0, 9, 3], 13, 28, 14, 'false']"
p393
(lp394
I32
aI22
aI17
aI29
asS"[-1, 'false', [8, 1, 3], 9, 5, 10, 'false']"
p395
(lp396
I28
asS"[-1, 'false', [6, 1, 5], 3, 30, 10, 'true']"
p397
(lp398
I28
aI35
aI33
aI33
asS"[-1, 'false', [6, 3, 3], 17, 31, 12, 'false']"
p399
(lp400
I21
aI27
aI19
aI13
asS"[-1, 'false', [9, 1, 2], 7, 35, 20, 'true']"
p401
(lp402
I36
asS"[-1, 'false', [6, 3, 3], 10, 19, 12, 'true']"
p403
(lp404
I25
asS"[-1, 'false', [8, 3, 1], 20, 2, 13, 'true']"
p405
(lp406
I28
aI28
aI25
aI25
asS"[-1, 'false', [4, 6, 2], 4, 26, 14, 'false']"
p407
(lp408
I28
aI18
aI25
aI24
asS"[-1, 'false', [4, 4, 4], 13, 33, 8, 'true']"
p409
(lp410
I22
aI31
aI20
aI23
asS"[-1, 'false', [1, 8, 3], 6, 12, 8, 'true']"
p411
(lp412
I44
aI30
aI28
aI32
asS"[-1, 'false', [3, 3, 6], 18, 11, 10, 'true']"
p413
(lp414
I33
asS"[-1, 'false', [3, 4, 5], 11, 24, 12, 'true']"
p415
(lp416
I23
aI14
aI21
aI28
asS"[-1, 'false', [5, 1, 6], 4, 1, 12, 'true']"
p417
(lp418
I30
aI26
aI21
aI26
asS"[-1, 'false', [0, 2, 10], 15, 17, 15, 'true']"
p419
(lp420
I24
aI36
aI26
aI23
asS"[-1, 'false', [10, 1, 1], 16, 10, 15, 'true']"
p421
(lp422
I33
aI30
aI28
aI15
asS"[-1, 'false', [3, 1, 8], 1, 12, 6, 'true']"
p423
(lp424
I25
aI36
aI38
aI41
asS"[-1, 'false', [4, 5, 3], 10, 1, 10, 'true']"
p425
(lp426
I20
aI26
aI28
aI18
asS"[-1, 'false', [9, 2, 1], 6, 37, 10, 'true']"
p427
(lp428
I28
asS"[-1, 'false', [4, 5, 3], 14, 24, 11, 'false']"
p429
(lp430
I25
aI20
aI33
aI18
asS"[-1, 'false', [1, 7, 4], 1, 45, 12, 'false']"
p431
(lp432
I24
aI16
aI28
aI31
asS"[-1, 'false', [1, 2, 9], 12, 2, 12, 'false']"
p433
(lp434
I29
aI27
aI27
aI28
asS"[-1, 'false', [6, 2, 4], 10, 2, 12, 'true']"
p435
(lp436
I34
aI34
aI22
aI31
asS"[-1, 'false', [1, 3, 8], 13, 42, 6, 'true']"
p437
(lp438
I29
aI25
aI17
aI27
asS"[-1, 'false', [10, 1, 1], 6, 50, 7, 'true']"
p439
(lp440
I40
aI23
aI20
aI30
asS"[-1, 'false', [3, 6, 3], 20, 14, 6, 'false']"
p441
(lp442
I23
aI22
aI23
aI21
asS"[-1, 'false', [2, 2, 8], 5, 23, 10, 'false']"
p443
(lp444
I31
aI24
aI28
aI25
asS"[-1, 'false', [1, 5, 6], 7, 14, 1, 'false']"
p445
(lp446
I44
aI34
aI40
aI44
asS"[-1, 'false', [1, 4, 7], 1, 15, 7, 'true']"
p447
(lp448
I30
aI32
aI38
aI40
asS"[-1, 'false', [6, 2, 4], 5, 43, 6, 'false']"
p449
(lp450
I19
aI26
aI28
aI27
asS"[-1, 'false', [1, 7, 4], 11, 24, 11, 'true']"
p451
(lp452
I34
aI28
aI13
aI26
asS"[-1, 'false', [2, 1, 9], 7, 22, 9, 'true']"
p453
(lp454
I38
aI39
aI27
aI43
asS"[-1, 'false', [2, 3, 7], 8, 43, 11, 'false']"
p455
(lp456
I34
aI27
aI31
aI38
asS"[-1, 'false', [3, 2, 7], 4, 38, 16, 'false']"
p457
(lp458
I30
aI23
aI30
aI26
asS"[-1, 'false', [1, 4, 7], 1, 10, 8, 'true']"
p459
(lp460
I24
aI32
aI32
aI40
asS"[-1, 'false', [3, 5, 4], 20, 1, 8, 'true']"
p461
(lp462
I28
asS"[-1, 'false', [3, 4, 5], 14, 19, 12, 'true']"
p463
(lp464
I27
aI25
aI28
aI21
asS"[-1, 'false', [3, 6, 3], 12, 21, 8, 'true']"
p465
(lp466
I35
aI19
asS"[-1, 'false', [4, 3, 5], 14, 20, 9, 'false']"
p467
(lp468
I19
aI18
aI13
aI31
asS"[-1, 'false', [2, 5, 5], 10, 28, 11, 'true']"
p469
(lp470
I33
aI29
aI19
aI37
asS"[-1, 'false', [6, 1, 5], 5, 34, 10, 'false']"
p471
(lp472
I21
aI30
aI25
aI26
asS"[-1, 'false', [1, 3, 8], 1, 17, 10, 'false']"
p473
(lp474
I35
aI40
aI40
aI25
asS"[-1, 'false', [10, 1, 1], 7, 35, 12, 'false']"
p475
(lp476
I19
aI33
asS"[-1, 'false', [5, 3, 4], 12, 13, 9, 'false']"
p477
(lp478
I27
aI21
aI28
aI16
asS"[-1, 'false', [1, 3, 8], 6, 39, 8, 'true']"
p479
(lp480
I34
aI38
aI17
aI31
asS"[-1, 'false', [1, 8, 3], 10, 1, 4, 'false']"
p481
(lp482
I38
aI18
aI31
aI25
asS"[-1, 'false', [3, 8, 1], 12, 10, 10, 'false']"
p483
(lp484
I28
aI16
aI23
aI37
asS"[-1, 'false', [1, 6, 5], 4, 19, 11, 'false']"
p485
(lp486
I35
aI26
aI32
aI21
asS"[-1, 'false', [1, 1, 10], 16, 4, 13, 'false']"
p487
(lp488
I36
asS"[-1, 'false', [1, 8, 3], 5, 11, 3, 'true']"
p489
(lp490
I50
aI39
aI44
aI47
asS"[-1, 'false', [4, 6, 2], 15, 17, 15, 'true']"
p491
(lp492
I22
aI23
aI25
aI30
asS"[-1, 'false', [0, 4, 8], 1, 12, 7, 'true']"
p493
(lp494
I35
aI45
aI34
aI32
asS"[-1, 'false', [3, 3, 6], 2, 22, 9, 'false']"
p495
(lp496
I31
aI22
aI41
aI39
asS"[-1, 'false', [5, 1, 6], 15, 18, 8, 'true']"
p497
(lp498
I20
aI23
aI22
aI22
asS"[-1, 'false', [2, 1, 9], 2, 9, 9, 'false']"
p499
(lp500
I31
aI41
aI40
aI37
asS"[-1, 'false', [4, 6, 2], 8, 22, 12, 'true']"
p501
(lp502
I14
aI19
aI15
aI21
asS"[-1, 'false', [5, 3, 4], 4, 24, 7, 'false']"
p503
(lp504
I41
aI37
aI30
aI31
asS"[-1, 'false', [0, 10, 2], 1, 18, 8, 'true']"
p505
(lp506
I51
aI30
aI32
aI22
asS"[-1, 'false', [9, 1, 2], 9, 33, 15, 'true']"
p507
(lp508
I28
asS"[-1, 'false', [1, 4, 7], 1, 4, 9, 'true']"
p509
(lp510
I27
aI27
aI29
aI30
asS"[-1, 'false', [3, 5, 4], 1, 9, 14, 'true']"
p511
(lp512
I28
aI29
aI33
aI26
asS"[-1, 'false', [7, 1, 4], 7, 35, 12, 'true']"
p513
(lp514
I24
asS"[-1, 'false', [6, 3, 3], 8, 7, 8, 'true']"
p515
(lp516
I19
aI24
aI19
aI26
asS"[-1, 'false', [5, 2, 5], 12, 24, 13, 'true']"
p517
(lp518
I33
aI21
aI25
aI21
asS"[-1, 'false', [5, 1, 6], 7, 19, 11, 'true']"
p519
(lp520
I33
aI40
aI28
aI20
asS"[-1, 'false', [6, 4, 2], 7, 33, 13, 'true']"
p521
(lp522
I18
aI18
aI21
aI16
asS"[-1, 'false', [5, 2, 5], 5, 8, 11, 'false']"
p523
(lp524
I25
aI30
aI36
aI31
asS"[-1, 'false', [1, 8, 3], 5, 12, 3, 'false']"
p525
(lp526
I43
aI37
aI31
aI52
asS"[-1, 'false', [2, 9, 1], 4, 2, 12, 'true']"
p527
(lp528
I20
aI27
aI30
aI25
asS"[-1, 'false', [5, 3, 4], 5, 39, 18, 'true']"
p529
(lp530
I32
aI35
aI19
aI25
asS"[-1, 'false', [2, 4, 6], 10, 23, 7, 'true']"
p531
(lp532
I31
aI23
aI16
aI20
asS"[-1, 'false', [5, 3, 4], 16, 24, 15, 'false']"
p533
(lp534
I37
aI22
aI25
aI24
asS"[-1, 'false', [7, 2, 3], 14, 16, 9, 'false']"
p535
(lp536
I16
aI25
aI34
aI23
asS"[-1, 'false', [5, 3, 4], 11, 24, 20, 'true']"
p537
(lp538
I29
aI20
aI26
aI27
asS"[-1, 'false', [3, 2, 7], 5, 23, 7, 'false']"
p539
(lp540
I30
aI32
aI32
aI39
asS"[-1, 'false', [5, 3, 4], 14, 24, 15, 'false']"
p541
(lp542
I25
aI20
aI14
aI23
asS"[-1, 'false', [4, 4, 4], 1, 22, 11, 'false']"
p543
(lp544
I31
aI31
aI44
aI29
asS"[-1, 'false', [0, 6, 6], 10, 15, 7, 'true']"
p545
(lp546
I27
aI25
aI27
aI25
asS"[-1, 'false', [4, 6, 2], 8, 11, 7, 'false']"
p547
(lp548
I21
aI29
aI19
aI28
asS"[-1, 'false', [0, 5, 7], 1, 15, 4, 'true']"
p549
(lp550
I42
aI39
aI38
aI44
asS"[-1, 'false', [6, 3, 3], 13, 43, 12, 'false']"
p551
(lp552
I13
aI24
aI32
aI26
asS"[-1, 'false', [1, 3, 8], 1, 17, 7, 'true']"
p553
(lp554
I53
aI29
aI34
aI33
asS"[-1, 'false', [3, 5, 4], 1, 45, 15, 'false']"
p555
(lp556
I18
aI27
aI26
aI34
asS"[-1, 'false', [3, 4, 5], 2, 47, 15, 'true']"
p557
(lp558
I23
aI23
aI28
aI28
asS"[-1, 'false', [4, 3, 5], 6, 23, 7, 'false']"
p559
(lp560
I21
aI26
aI28
aI23
asS"[-1, 'false', [1, 5, 6], 1, 11, 9, 'true']"
p561
(lp562
I49
aI25
aI33
aI40
asS"[-1, 'false', [4, 5, 3], 9, 6, 12, 'false']"
p563
(lp564
I29
aI27
aI30
aI25
asS"[-1, 'false', [3, 4, 5], 1, 12, 11, 'true']"
p565
(lp566
I27
aI27
aI24
aI31
asS"[-1, 'false', [8, 2, 2], 10, 33, 13, 'false']"
p567
(lp568
I22
aI24
aI24
aI18
asS"[-1, 'false', [1, 4, 7], 11, 1, 9, 'true']"
p569
(lp570
I17
aI25
aI27
aI23
asS"[-1, 'false', [2, 5, 5], 1, 45, 15, 'false']"
p571
(lp572
I27
aI17
aI28
aI34
asS"[-1, 'false', [0, 3, 9], 2, 40, 14, 'true']"
p573
(lp574
I33
aI37
aI22
aI22
asS"[-1, 'false', [5, 2, 5], 5, 27, 19, 'false']"
p575
(lp576
I37
aI30
aI29
aI23
asS"[-1, 'false', [2, 8, 2], 10, 32, 3, 'true']"
p577
(lp578
I22
aI29
aI28
aI27
asS"[-1, 'false', [3, 4, 5], 14, 32, 12, 'true']"
p579
(lp580
I25
aI28
aI18
aI10
asS"[-1, 'false', [9, 2, 1], 11, 20, 18, 'true']"
p581
(lp582
I20
asS"[-1, 'false', [5, 3, 4], 13, 24, 12, 'true']"
p583
(lp584
I26
aI22
aI31
aI22
asS"[-1, 'false', [6, 5, 1], 18, 27, 11, 'true']"
p585
(lp586
I11
asS"[-1, 'false', [8, 1, 3], 7, 5, 10, 'false']"
p587
(lp588
I26
aI29
aI25
aI34
aI23
aI32
aI31
aI25
asS"[-1, 'false', [1, 7, 4], 10, 23, 7, 'false']"
p589
(lp590
I26
aI18
aI24
aI23
asS"[-1, 'false', [2, 2, 8], 1, 36, 10, 'false']"
p591
(lp592
I22
aI31
aI37
aI27
asS"[-1, 'false', [3, 5, 4], 1, 23, 9, 'false']"
p593
(lp594
I21
aI29
aI43
aI26
asS"[-1, 'false', [2, 7, 3], 9, 29, 13, 'true']"
p595
(lp596
I20
aI25
aI17
aI14
asS"[-1, 'false', [0, 5, 7], 1, 8, 17, 'true']"
p597
(lp598
I29
aI20
aI36
aI41
asS"[-1, 'false', [3, 4, 5], 9, 24, 10, 'true']"
p599
(lp600
I31
aI39
aI21
aI40
asS"[-1, 'false', [1, 6, 5], 18, 1, 15, 'true']"
p601
(lp602
I27
aI28
aI28
aI32
asS"[-1, 'false', [7, 2, 3], 13, 12, 6, 'true']"
p603
(lp604
I24
aI21
aI25
aI25
asS"[-1, 'false', [5, 1, 6], 3, 15, 10, 'true']"
p605
(lp606
I31
aI30
aI23
aI28
asS"[-1, 'false', [2, 2, 8], 3, 23, 5, 'true']"
p607
(lp608
I43
aI41
aI42
aI38
asS"[-1, 'false', [2, 6, 4], 14, 34, 10, 'true']"
p609
(lp610
I14
asS"[-1, 'false', [4, 3, 5], 5, 39, 12, 'true']"
p611
(lp612
I13
aI33
aI30
aI26
asS"[-1, 'false', [2, 7, 3], 2, 29, 14, 'true']"
p613
(lp614
I30
aI27
aI33
aI28
asS"[-1, 'false', [3, 2, 7], 11, 4, 12, 'false']"
p615
(lp616
I27
aI35
aI20
aI23
asS"[-1, 'false', [0, 6, 6], 13, 28, 11, 'true']"
p617
(lp618
I28
aI18
aI23
aI32
asS"[-1, 'false', [0, 9, 3], 13, 19, 14, 'false']"
p619
(lp620
I23
aI18
aI15
aI20
asS"[-1, 'false', [8, 3, 1], 10, 10, 12, 'true']"
p621
(lp622
I17
asS"[-1, 'false', [5, 2, 5], 2, 9, 12, 'true']"
p623
(lp624
I40
aI24
aI23
aI21
asS"[-1, 'false', [8, 1, 3], 4, 38, 11, 'false']"
p625
(lp626
I30
aI35
aI39
aI33
asS"[-1, 'false', [1, 4, 7], 1, 9, 9, 'true']"
p627
(lp628
I35
aI32
aI34
aI23
asS"[-1, 'false', [6, 2, 4], 4, 38, 9, 'true']"
p629
(lp630
I33
aI33
aI29
aI43
asS"[-1, 'false', [2, 8, 2], 12, 26, 8, 'true']"
p631
(lp632
I11
aI10
aI20
aI22
asS"[-1, 'false', [3, 8, 1], 4, 33, 14, 'false']"
p633
(lp634
I17
aI23
aI22
aI21
asS"[-1, 'false', [5, 5, 2], 16, 38, 10, 'false']"
p635
(lp636
I24
aI8
aI23
aI18
asS"[-1, 'false', [8, 1, 3], 3, 20, 10, 'true']"
p637
(lp638
I29
aI34
aI19
aI24
asS"[-1, 'false', [3, 6, 3], 10, 2, 7, 'true']"
p639
(lp640
I27
aI19
aI27
aI33
asS"[-1, 'false', [0, 4, 8], 1, 15, 4, 'true']"
p641
(lp642
I33
aI40
aI39
aI38
asS"[-1, 'false', [1, 8, 3], 8, 34, 3, 'false']"
p643
(lp644
I30
aI37
aI34
aI28
asS"[-1, 'false', [2, 3, 7], 4, 1, 7, 'true']"
p645
(lp646
I29
aI35
aI19
aI27
asS"[-1, 'false', [2, 2, 8], 13, 23, 10, 'false']"
p647
(lp648
I24
aI34
aI27
aI37
asS"[-1, 'false', [6, 2, 4], 12, 18, 15, 'true']"
p649
(lp650
I25
asS"[-1, 'false', [12, 0, 0]]"
p651
(lp652
I27
aI27
aI4
aI31
aI21
aI29
aI21
aI22
aI32
aI23
aI25
aI31
aI23
aI30
aI22
aI20
aI11
aI26
aI23
aI38
aI14
asS"[-1, 'false', [1, 8, 3], 8, 37, 5, 'false']"
p653
(lp654
I24
aI26
aI21
aI32
asS"[-1, 'false', [1, 8, 3], 12, 12, 3, 'true']"
p655
(lp656
I39
aI27
aI34
aI35
asS"[-1, 'false', [4, 3, 5], 11, 24, 12, 'true']"
p657
(lp658
I21
aI20
aI21
aI31
asS"[-1, 'false', [6, 3, 3], 10, 39, 12, 'true']"
p659
(lp660
I29
aI19
aI32
aI16
asS"[-1, 'false', [9, 2, 1], 2, 2, 14, 'true']"
p661
(lp662
I16
aI29
aI26
aI24
asS"[-1, 'false', [0, 10, 2], 1, 18, 11, 'true']"
p663
(lp664
I35
aI34
aI32
aI21
asS"[-1, 'false', [3, 5, 4], 3, 5, 14, 'true']"
p665
(lp666
I21
aI26
aI38
aI22
asS"[-1, 'false', [0, 7, 5], 18, 33, 7, 'true']"
p667
(lp668
I25
aI14
aI17
aI12
asS"[-1, 'false', [3, 7, 2], 5, 12, 3, 'true']"
p669
(lp670
I26
aI37
aI27
aI33
asS"[-1, 'false', [8, 1, 3], 6, 11, 9, 'true']"
p671
(lp672
I24
asS"[-1, 'false', [0, 3, 9], 1, 18, 9, 'true']"
p673
(lp674
I32
aI30
aI36
aI38
asS"[-1, 'false', [1, 2, 9], 2, 7, 15, 'false']"
p675
(lp676
I38
aI24
aI37
aI26
asS"[-1, 'false', [1, 8, 3], 5, 17, 3, 'true']"
p677
(lp678
I24
aI30
aI42
aI50
asS"[-1, 'false', [6, 5, 1], 1, 24, 14, 'true']"
p679
(lp680
I22
aI8
aI19
aI16
asS"[-1, 'false', [6, 3, 3], 16, 16, 15, 'true']"
p681
(lp682
I22
aI24
aI25
aI18
asS"[-1, 'false', [5, 1, 6], 1, 23, 9, 'false']"
p683
(lp684
I24
aI35
aI35
aI22
asS"[-1, 'false', [6, 2, 4], 4, 33, 7, 'true']"
p685
(lp686
I27
aI39
aI34
aI29
asS"[-1, 'false', [6, 3, 3], 7, 7, 15, 'false']"
p687
(lp688
I31
aI35
aI18
aI25
asS"[-1, 'false', [5, 5, 2], 10, 32, 7, 'false']"
p689
(lp690
I10
aI23
aI21
aI26
asS"[-1, 'false', [4, 3, 5], 12, 16, 9, 'false']"
p691
(lp692
I23
aI19
aI35
aI23
asS"[-1, 'false', [4, 3, 5], 2, 47, 12, 'false']"
p693
(lp694
I34
aI40
aI48
aI25
asS"[-1, 'false', [8, 3, 1], 2, 33, 8, 'false']"
p695
(lp696
I23
aI32
aI24
aI22
asS"[-1, 'false', [6, 3, 3], 5, 20, 18, 'true']"
p697
(lp698
I22
aI29
asS"[-1, 'false', [2, 1, 9], 1, 23, 9, 'false']"
p699
(lp700
I35
aI39
aI39
aI35
asS"[-1, 'false', [6, 3, 3], 17, 43, 12, 'false']"
p701
(lp702
I18
aI15
aI28
aI21
asS"[-1, 'false', [3, 3, 6], 5, 23, 7, 'false']"
p703
(lp704
I47
aI33
aI32
aI32
asS"[-1, 'false', [8, 1, 3], 5, 2, 6, 'true']"
p705
(lp706
I21
aI29
aI25
aI24
asS"[-1, 'false', [9, 1, 2], 12, 33, 10, 'false']"
p707
(lp708
I27
aI24
aI23
aI21
asS"[-1, 'false', [3, 3, 6], 5, 28, 7, 'false']"
p709
(lp710
I44
aI29
aI25
aI25
asS"[-1, 'false', [6, 5, 1], 18, 5, 9, 'true']"
p711
(lp712
I21
asS"[-1, 'false', [3, 6, 3], 8, 10, 1, 'true']"
p713
(lp714
I30
aI37
aI31
aI36
asS"[-1, 'false', [1, 1, 10], 3, 32, 14, 'true']"
p715
(lp716
I36
aI36
aI33
aI33
asS"[-1, 'false', [4, 3, 5], 11, 17, 12, 'false']"
p717
(lp718
I25
aI25
aI19
aI36
asS"[-1, 'false', [2, 3, 7], 10, 23, 7, 'false']"
p719
(lp720
I14
aI18
aI31
aI32
asS"[-1, 'false', [5, 3, 4], 3, 24, 7, 'false']"
p721
(lp722
I31
aI33
aI30
aI34
asS"[-1, 'false', [0, 5, 7], 8, 2, 12, 'false']"
p723
(lp724
I23
aI19
aI33
aI32
asS"[-1, 'false', [7, 3, 2], 17, 16, 9, 'false']"
p725
(lp726
I16
aI19
asS"[-1, 'false', [3, 6, 3], 8, 37, 3, 'false']"
p727
(lp728
I40
aI28
aI20
aI33
asS"[-1, 'false', [2, 2, 8], 12, 31, 11, 'true']"
p729
(lp730
I33
asS"[-1, 'false', [4, 1, 7], 1, 36, 10, 'false']"
p731
(lp732
I39
aI28
aI22
aI19
asS"[-1, 'false', [5, 2, 5], 14, 7, 12, 'false']"
p733
(lp734
I28
aI30
aI30
aI22
asS"[-1, 'false', [0, 1, 11], 11, 2, 11, 'true']"
p735
(lp736
I27
aI29
aI26
aI25
asS"[-1, 'false', [2, 1, 9], 4, 21, 5, 'false']"
p737
(lp738
I43
aI32
aI37
aI25
asS"[-1, 'false', [4, 2, 6], 4, 36, 14, 'true']"
p739
(lp740
I25
aI30
aI40
aI24
asS"[-1, 'false', [5, 4, 3], 11, 16, 11, 'true']"
p741
(lp742
I27
aI24
aI21
aI35
asS"[-1, 'false', [2, 7, 3], 13, 30, 9, 'false']"
p743
(lp744
I24
aI25
aI31
aI21
asS"[-1, 'false', [3, 3, 6], 1, 1, 9, 'false']"
p745
(lp746
I12
aI25
aI31
aI28
asS"[-1, 'false', [3, 4, 5], 5, 31, 10, 'true']"
p747
(lp748
I25
aI29
aI26
aI29
asS"[-1, 'false', [3, 4, 5], 1, 45, 12, 'true']"
p749
(lp750
I32
aI34
aI28
aI24
asS"[-1, 'false', [1, 7, 4], 5, 12, 3, 'true']"
p751
(lp752
I40
aI26
aI32
aI19
asS"[-1, 'false', [1, 7, 4], 5, 12, 17, 'true']"
p753
(lp754
I30
aI25
aI34
aI28
asS"[-1, 'false', [6, 2, 4], 3, 47, 12, 'false']"
p755
(lp756
I32
aI27
aI31
aI34
asS"[-1, 'false', [4, 3, 5], 3, 7, 15, 'false']"
p757
(lp758
I30
aI35
aI29
aI23
asS"[-1, 'false', [2, 9, 1], 2, 35, 12, 'false']"
p759
(lp760
I17
aI24
aI17
aI24
asS"[-1, 'false', [9, 1, 2], 11, 24, 12, 'true']"
p761
(lp762
I21
aI25
aI38
aI18
asS"[-1, 'false', [5, 4, 3], 6, 7, 8, 'true']"
p763
(lp764
I29
aI28
aI30
aI24
asS"[-1, 'false', [5, 3, 4], 9, 15, 12, 'true']"
p765
(lp766
I26
aI24
aI14
aI28
asS"[-1, 'false', [7, 2, 3], 11, 33, 13, 'false']"
p767
(lp768
I21
aI28
aI32
aI23
asS"[-1, 'false', [5, 5, 2], 8, 42, 14, 'true']"
p769
(lp770
I22
asS"[-1, 'false', [7, 4, 1], 14, 19, 14, 'true']"
p771
(lp772
I11
aI15
aI16
aI24
asS"[-1, 'false', [5, 5, 2], 16, 16, 12, 'false']"
p773
(lp774
I16
asS"[-1, 'false', [3, 3, 6], 6, 23, 9, 'true']"
p775
(lp776
I36
aI34
aI26
aI30
asS"[-1, 'false', [2, 2, 8], 1, 15, 8, 'true']"
p777
(lp778
I33
aI33
aI52
aI49
asS"[-1, 'false', [5, 4, 3], 12, 28, 10, 'false']"
p779
(lp780
I21
aI11
aI20
aI15
asS"[-1, 'false', [8, 2, 2], 16, 38, 10, 'false']"
p781
(lp782
I21
aI26
aI16
aI25
asS"[-1, 'false', [2, 2, 8], 2, 23, 4, 'false']"
p783
(lp784
I53
aI22
aI39
aI37
asS"[-1, 'false', [1, 6, 5], 12, 31, 14, 'false']"
p785
(lp786
I23
asS"[-1, 'false', [3, 1, 8], 2, 15, 6, 'false']"
p787
(lp788
I46
aI27
aI37
aI24
asS"[-1, 'false', [4, 1, 7], 3, 1, 12, 'true']"
p789
(lp790
I27
aI24
aI26
aI28
asS"[-1, 'false', [9, 2, 1], 4, 12, 6, 'true']"
p791
(lp792
I27
aI30
aI31
aI26
asS"[-1, 'false', [5, 1, 6], 4, 1, 5, 'true']"
p793
(lp794
I31
aI31
aI28
aI18
asS"[-1, 'false', [4, 4, 4], 18, 14, 11, 'true']"
p795
(lp796
I22
asS"[-1, 'false', [0, 3, 9], 11, 13, 6, 'true']"
p797
(lp798
I24
aI24
aI19
aI37
asS"[-1, 'false', [6, 3, 3], 2, 47, 12, 'false']"
p799
(lp800
I26
aI20
aI21
aI23
asS"[-1, 'false', [3, 6, 3], 11, 12, 8, 'true']"
p801
(lp802
I24
asS"[-1, 'false', [8, 3, 1], 13, 12, 9, 'false']"
p803
(lp804
I23
aI18
aI23
aI25
asS"[-1, 'false', [2, 3, 7], 17, 1, 11, 'true']"
p805
(lp806
I24
aI29
aI20
aI34
asS"[-1, 'false', [2, 2, 8], 7, 23, 7, 'false']"
p807
(lp808
I27
aI31
aI31
aI17
asS"[-1, 'false', [3, 3, 6], 4, 16, 7, 'true']"
p809
(lp810
I41
aI39
aI29
aI28
asS"[-1, 'false', [5, 2, 5], 2, 47, 11, 'true']"
p811
(lp812
I26
aI23
aI31
aI39
asS"[-1, 'false', [5, 3, 4], 10, 24, 12, 'true']"
p813
(lp814
I14
aI36
aI23
aI28
asS"[-1, 'false', [5, 4, 3], 1, 15, 7, 'true']"
p815
(lp816
I27
aI40
aI29
aI39
asS"[-1, 'false', [5, 2, 5], 3, 26, 12, 'true']"
p817
(lp818
I31
aI27
aI26
aI39
asS"[-1, 'false', [0, 4, 8], 10, 10, 10, 'false']"
p819
(lp820
I27
aI19
aI31
aI32
asS"[-1, 'false', [4, 6, 2], 2, 12, 11, 'false']"
p821
(lp822
I18
aI24
aI29
aI32
asS"[-1, 'false', [10, 1, 1], 2, 14, 7, 'false']"
p823
(lp824
I25
aI34
asS"[-1, 'false', [0, 5, 7], 1, 15, 9, 'true']"
p825
(lp826
I27
aI28
aI45
aI37
asS"[-1, 'false', [6, 1, 5], 4, 38, 11, 'false']"
p827
(lp828
I32
aI23
aI32
aI29
asS"[-1, 'false', [6, 4, 2], 5, 45, 7, 'false']"
p829
(lp830
I20
aI18
aI12
aI20
asS"[-1, 'false', [1, 9, 2], 12, 12, 7, 'true']"
p831
(lp832
I19
aI14
aI28
aI38
asS"[-1, 'false', [0, 5, 7], 1, 8, 11, 'true']"
p833
(lp834
I30
aI44
aI20
aI30
asS"[-1, 'false', [4, 6, 2], 4, 26, 4, 'false']"
p835
(lp836
I35
aI20
aI34
aI23
asS"[-1, 'false', [8, 2, 2], 18, 32, 11, 'false']"
p837
(lp838
I15
asS"[-1, 'false', [0, 1, 11], 17, 9, 11, 'true']"
p839
(lp840
I28
aI29
aI25
aI39
asS"[-1, 'false', [3, 4, 5], 10, 49, 9, 'false']"
p841
(lp842
I22
aI28
aI23
aI26
asS"[-1, 'false', [6, 2, 4], 3, 26, 12, 'true']"
p843
(lp844
I30
aI22
aI21
aI33
asS"[-1, 'false', [4, 4, 4], 2, 32, 12, 'true']"
p845
(lp846
I24
asS"[-1, 'false', [4, 5, 3], 5, 25, 7, 'false']"
p847
(lp848
I34
asS"[-1, 'false', [1, 4, 7], 19, 25, 13, 'true']"
p849
(lp850
I33
aI16
aI20
aI16
asS"[-1, 'false', [1, 8, 3], 20, 12, 3, 'true']"
p851
(lp852
I51
aI39
aI27
aI35
asS"[-1, 'false', [6, 1, 5], 5, 28, 9, 'true']"
p853
(lp854
I28
aI26
aI35
aI28
asS"[-1, 'false', [6, 4, 2], 12, 26, 8, 'false']"
p855
(lp856
I21
aI24
aI19
aI22
asS"[-1, 'false', [2, 5, 5], 8, 37, 4, 'false']"
p857
(lp858
I38
aI39
aI35
aI15
asS"[-1, 'false', [3, 3, 6], 8, 35, 13, 'false']"
p859
(lp860
I32
aI27
aI31
aI24
asS"[-1, 'false', [5, 2, 5], 12, 5, 12, 'false']"
p861
(lp862
I27
aI27
aI30
aI27
asS"[-1, 'false', [6, 1, 5], 5, 30, 10, 'false']"
p863
(lp864
I38
aI18
aI28
aI32
asS"[-1, 'false', [9, 1, 2], 17, 16, 13, 'false']"
p865
(lp866
I30
aI19
aI23
aI31
asS"[-1, 'false', [2, 6, 4], 2, 9, 9, 'false']"
p867
(lp868
I27
aI25
aI44
aI37
asS"[-1, 'false', [3, 2, 7], 4, 38, 8, 'true']"
p869
(lp870
I46
aI26
aI43
aI39
asS"[-1, 'false', [2, 2, 8], 10, 23, 7, 'false']"
p871
(lp872
I40
aI33
aI37
aI27
asS"[-1, 'false', [2, 7, 3], 15, 5, 9, 'true']"
p873
(lp874
I21
aI31
aI23
aI31
asS"[-1, 'false', [6, 2, 4], 9, 33, 7, 'true']"
p875
(lp876
I28
aI37
aI25
aI27
asS"[-1, 'false', [0, 5, 7], 1, 16, 7, 'false']"
p877
(lp878
I35
aI24
aI38
aI37
asS"[-1, 'false', [0, 4, 8], 1, 1, 7, 'true']"
p879
(lp880
I31
aI26
aI33
aI26
asS"[-1, 'false', [5, 3, 4], 18, 17, 12, 'false']"
p881
(lp882
I21
aI23
aI22
aI21
asS"[-1, 'false', [4, 3, 5], 4, 23, 7, 'false']"
p883
(lp884
I30
aI39
aI24
aI34
asS"[-1, 'false', [0, 5, 7], 8, 18, 9, 'true']"
p885
(lp886
I28
aI32
aI19
aI34
asS"[-1, 'false', [5, 2, 5], 12, 15, 11, 'true']"
p887
(lp888
I20
aI25
aI32
aI31
asS"[-1, 'false', [9, 1, 2], 16, 25, 10, 'true']"
p889
(lp890
I18
aI22
aI17
aI15
asS"[-1, 'false', [9, 2, 1], 15, 45, 10, 'false']"
p891
(lp892
I11
aI18
aI25
aI29
asS"[-1, 'false', [8, 1, 3], 4, 35, 11, 'true']"
p893
(lp894
I31
aI31
aI28
aI37
asS"[-1, 'false', [10, 1, 1], 3, 28, 10, 'true']"
p895
(lp896
I21
aI39
aI22
aI27
asS"[-1, 'false', [2, 9, 1], 6, 21, 10, 'false']"
p897
(lp898
I21
aI16
aI13
aI30
aI21
aI24
aI33
aI26
aI12
asS"[-1, 'false', [0, 1, 11], 1, 12, 5, 'true']"
p899
(lp900
I32
aI29
aI28
aI45
asS"[-1, 'false', [3, 3, 6], 13, 49, 10, 'false']"
p901
(lp902
I24
aI21
aI21
aI20
asS"[-1, 'false', [4, 3, 5], 2, 27, 12, 'false']"
p903
(lp904
I25
aI25
aI27
aI34
asS"[-1, 'false', [2, 2, 8], 19, 23, 9, 'true']"
p905
(lp906
I26
aI13
aI19
aI17
asS"[-1, 'false', [1, 8, 3], 7, 12, 3, 'true']"
p907
(lp908
I25
aI44
aI39
aI30
asS"[-1, 'false', [5, 3, 4], 2, 47, 10, 'false']"
p909
(lp910
I30
aI27
aI25
aI28
asS"[-1, 'false', [9, 2, 1], 2, 17, 9, 'true']"
p911
(lp912
I20
aI26
asS"[-1, 'false', [5, 2, 5], 1, 21, 10, 'true']"
p913
(lp914
I19
aI32
aI39
aI36
asS"[-1, 'false', [7, 4, 1], 2, 17, 11, 'true']"
p915
(lp916
I22
aI20
aI22
aI28
asS"[-1, 'false', [3, 3, 6], 3, 22, 9, 'false']"
p917
(lp918
I38
aI26
aI28
aI27
asS"[-1, 'false', [6, 3, 3], 9, 41, 14, 'true']"
p919
(lp920
I18
aI17
aI14
aI16
asS"[-1, 'false', [1, 4, 7], 17, 9, 6, 'true']"
p921
(lp922
I27
aI25
aI22
aI20
asS"[-1, 'false', [4, 5, 3], 10, 48, 13, 'false']"
p923
(lp924
I20
aI14
aI11
aI18
asS"[-1, 'false', [8, 3, 1], 5, 50, 13, 'false']"
p925
(lp926
I31
aI18
aI2
aI11
asS"[-1, 'false', [2, 7, 3], 7, 15, 3, 'true']"
p927
(lp928
I36
aI30
aI21
aI40
asS"[-1, 'false', [0, 3, 9], 1, 18, 9, 'false']"
p929
(lp930
I37
aI42
aI42
aI41
asS"[-1, 'false', [3, 7, 2], 14, 34, 10, 'true']"
p931
(lp932
I22
aI10
aI26
aI23
asS"[-1, 'false', [2, 7, 3], 4, 16, 17, 'true']"
p933
(lp934
I27
aI15
aI25
aI22
asS"[-1, 'false', [0, 4, 8], 1, 29, 5, 'true']"
p935
(lp936
I49
aI39
aI40
aI41
asS"[-1, 'false', [2, 2, 8], 17, 21, 5, 'false']"
p937
(lp938
I17
aI13
aI12
aI29
asS"[-1, 'false', [1, 8, 3], 8, 37, 6, 'false']"
p939
(lp940
I11
aI15
aI26
aI10
asS"[-1, 'false', [1, 7, 4], 16, 11, 7, 'false']"
p941
(lp942
I23
asS"[-1, 'false', [4, 4, 4], 5, 24, 12, 'true']"
p943
(lp944
I30
aI26
aI27
aI38
asS"[-1, 'false', [10, 1, 1], 20, 47, 15, 'false']"
p945
(lp946
I21
aI27
aI16
aI16
asS"[-1, 'false', [7, 2, 3], 4, 36, 11, 'false']"
p947
(lp948
I35
aI29
aI25
aI25
asS"[-1, 'false', [1, 9, 2], 13, 47, 10, 'false']"
p949
(lp950
I19
aI13
asS"[-1, 'false', [2, 7, 3], 3, 23, 13, 'false']"
p951
(lp952
I28
aI19
aI37
aI31
asS"[-1, 'false', [2, 2, 8], 1, 23, 7, 'false']"
p953
(lp954
I38
aI42
aI27
aI36
asS"[-1, 'false', [4, 2, 6], 1, 23, 9, 'true']"
p955
(lp956
I43
aI40
aI34
aI33
asS"[-1, 'false', [5, 4, 3], 3, 30, 12, 'true']"
p957
(lp958
I31
aI33
aI29
aI36
asS"[-1, 'false', [7, 2, 3], 7, 12, 10, 'true']"
p959
(lp960
I26
aI26
aI37
aI30
asS"[-1, 'false', [3, 4, 5], 1, 29, 15, 'false']"
p961
(lp962
I30
aI26
aI23
aI13
asS"[-1, 'false', [1, 6, 5], 14, 16, 11, 'false']"
p963
(lp964
I24
aI30
aI25
aI19
asS"[-1, 'false', [2, 1, 9], 2, 15, 7, 'false']"
p965
(lp966
I29
aI36
aI25
aI14
asS"[-1, 'false', [1, 3, 8], 3, 43, 11, 'false']"
p967
(lp968
I29
aI34
aI49
aI23
asS"[-1, 'false', [2, 3, 7], 8, 6, 12, 'false']"
p969
(lp970
I28
aI25
aI30
aI34
asS"[-1, 'false', [8, 1, 3], 9, 35, 11, 'true']"
p971
(lp972
I17
aI27
aI38
aI34
asS"[-1, 'false', [3, 5, 4], 14, 16, 9, 'false']"
p973
(lp974
I22
aI24
aI29
aI20
asS"[-1, 'false', [4, 5, 3], 4, 45, 7, 'true']"
p975
(lp976
I32
asS"[-1, 'false', [3, 4, 5], 9, 24, 2, 'true']"
p977
(lp978
I35
aI34
aI42
aI30
asS"[-1, 'false', [6, 3, 3], 7, 3, 10, 'false']"
p979
(lp980
I27
aI31
aI20
aI30
asS"[-1, 'false', [3, 1, 8], 4, 21, 5, 'false']"
p981
(lp982
I16
aI42
aI26
aI38
asS"[-1, 'false', [4, 2, 6], 4, 36, 16, 'true']"
p983
(lp984
I32
aI31
aI34
aI20
asS"[-1, 'false', [4, 3, 5], 5, 39, 18, 'true']"
p985
(lp986
I22
aI30
aI28
aI30
asS"[-1, 'false', [2, 5, 5], 19, 43, 3, 'true']"
p987
(lp988
I34
aI28
aI30
aI37
asS"[-1, 'false', [5, 3, 4], 8, 19, 11, 'false']"
p989
(lp990
I28
aI33
aI24
aI37
asS"[-1, 'false', [5, 3, 4], 7, 30, 12, 'false']"
p991
(lp992
I25
aI32
aI24
aI32
asS"[-1, 'false', [3, 7, 2], 10, 34, 10, 'true']"
p993
(lp994
I28
aI25
aI22
aI11
asS"[-1, 'false', [5, 1, 6], 4, 1, 6, 'true']"
p995
(lp996
I33
aI24
aI25
aI27
asS"[-1, 'false', [5, 1, 6], 18, 30, 10, 'true']"
p997
(lp998
I18
aI33
aI17
aI20
asS"[-1, 'false', [3, 4, 5], 12, 18, 13, 'true']"
p999
(lp1000
I25
asS"[-1, 'false', [0, 5, 7], 1, 16, 9, 'true']"
p1001
(lp1002
I33
aI32
aI42
aI33
asS"[-1, 'false', [3, 4, 5], 2, 12, 2, 'true']"
p1003
(lp1004
I28
aI35
aI22
aI25
asS"[-1, 'false', [4, 4, 4], 10, 39, 12, 'true']"
p1005
(lp1006
I30
aI26
aI25
aI23
asS"[-1, 'false', [4, 5, 3], 8, 1, 10, 'true']"
p1007
(lp1008
I29
aI25
aI24
aI29
asS"[-1, 'false', [1, 8, 3], 7, 32, 3, 'true']"
p1009
(lp1010
I33
aI17
aI19
aI34
asS"[-1, 'false', [0, 5, 7], 8, 18, 6, 'true']"
p1011
(lp1012
I22
aI33
aI29
aI33
asS"[-1, 'false', [6, 1, 5], 11, 24, 12, 'true']"
p1013
(lp1014
I24
aI20
aI29
aI30
asS"[-1, 'false', [4, 3, 5], 18, 35, 13, 'true']"
p1015
(lp1016
I21
aI33
aI15
aI20
asS"[-1, 'false', [7, 2, 3], 18, 17, 14, 'false']"
p1017
(lp1018
I34
aI19
aI31
aI24
asS"[-1, 'false', [1, 4, 7], 9, 24, 8, 'true']"
p1019
(lp1020
I37
aI38
aI23
aI22
asS"[-1, 'false', [5, 3, 4], 6, 19, 15, 'false']"
p1021
(lp1022
I24
aI34
aI35
aI21
asS"[-1, 'false', [1, 3, 8], 13, 2, 10, 'true']"
p1023
(lp1024
I35
aI24
aI33
aI31
asS"[-1, 'false', [7, 2, 3], 10, 10, 12, 'true']"
p1025
(lp1026
I30
aI25
asS"[-1, 'false', [3, 5, 4], 7, 33, 13, 'true']"
p1027
(lp1028
I20
aI34
aI19
aI22
asS"[-1, 'false', [5, 3, 4], 11, 26, 11, 'false']"
p1029
(lp1030
I32
aI16
aI39
aI27
asS"[-1, 'false', [4, 7, 1], 10, 1, 20, 'false']"
p1031
(lp1032
I19
aI17
aI29
aI25
asS"[-1, 'false', [0, 8, 4], 1, 18, 9, 'true']"
p1033
(lp1034
I41
aI34
aI39
aI30
asS"[-1, 'false', [9, 2, 1], 11, 37, 10, 'true']"
p1035
(lp1036
I24
aI26
aI31
aI7
aI19
aI15
aI31
aI14
aI21
aI13
aI26
aI20
aI13
asS"[-1, 'false', [0, 5, 7], 1, 28, 9, 'true']"
p1037
(lp1038
I24
aI49
aI38
aI33
asS"[-1, 'false', [7, 3, 2], 11, 45, 11, 'false']"
p1039
(lp1040
I15
aI16
aI27
aI14
asS"[-1, 'false', [1, 4, 7], 13, 3, 15, 'false']"
p1041
(lp1042
I30
aI34
aI29
aI21
asS"[-1, 'false', [4, 3, 5], 5, 11, 9, 'true']"
p1043
(lp1044
I21
aI34
aI21
aI26
asS"[-1, 'false', [1, 6, 5], 4, 12, 3, 'true']"
p1045
(lp1046
I32
aI42
aI28
aI48
asS"[-1, 'false', [4, 2, 6], 18, 8, 8, 'false']"
p1047
(lp1048
I23
aI19
aI24
aI25
asS"[-1, 'false', [1, 5, 6], 15, 23, 7, 'false']"
p1049
(lp1050
I25
aI15
aI10
aI16
asS"[-1, 'false', [7, 2, 3], 13, 12, 8, 'true']"
p1051
(lp1052
I25
aI31
aI23
aI27
asS"[-1, 'false', [0, 7, 5], 3, 45, 15, 'false']"
p1053
(lp1054
I36
aI30
aI26
aI28
asS"[-1, 'false', [7, 4, 1], 7, 33, 12, 'false']"
p1055
(lp1056
I14
aI14
aI17
aI18
asS"[-1, 'false', [0, 11, 1], 18, 1, 15, 'true']"
p1057
(lp1058
I29
aI25
aI23
aI21
asS"[-1, 'false', [10, 1, 1], 7, 35, 9, 'true']"
p1059
(lp1060
I25
asS"[-1, 'false', [3, 4, 5], 9, 22, 6, 'true']"
p1061
(lp1062
I27
aI28
aI21
aI20
asS"[-1, 'false', [6, 2, 4], 12, 6, 15, 'true']"
p1063
(lp1064
I30
asS"[-1, 'false', [7, 2, 3], 7, 3, 10, 'true']"
p1065
(lp1066
I26
aI21
aI26
aI18
asS"[-1, 'false', [1, 5, 6], 9, 24, 8, 'true']"
p1067
(lp1068
I32
aI41
aI24
aI29
asS"[-1, 'false', [0, 4, 8], 1, 8, 7, 'true']"
p1069
(lp1070
I28
aI40
aI27
aI25
asS"[-1, 'false', [3, 4, 5], 10, 23, 7, 'true']"
p1071
(lp1072
I26
aI23
aI20
aI21
asS"[-1, 'false', [5, 2, 5], 2, 47, 12, 'false']"
p1073
(lp1074
I36
aI35
aI30
aI34
asS"[-1, 'false', [3, 4, 5], 5, 4, 14, 'true']"
p1075
(lp1076
I24
aI25
aI31
aI36
asS"[-1, 'false', [3, 2, 7], 10, 23, 7, 'false']"
p1077
(lp1078
I26
aI25
aI21
aI15
asS"[-1, 'false', [3, 8, 1], 5, 11, 3, 'true']"
p1079
(lp1080
I24
aI23
aI31
aI21
asS"[-1, 'false', [5, 2, 5], 12, 2, 12, 'true']"
p1081
(lp1082
I33
aI30
aI32
aI26
asS"[-1, 'false', [0, 6, 6], 1, 9, 9, 'true']"
p1083
(lp1084
I38
aI34
aI34
aI30
asS"[-1, 'false', [2, 5, 5], 4, 48, 12, 'true']"
p1085
(lp1086
I28
aI24
aI12
aI31
asS"[-1, 'false', [4, 2, 6], 19, 23, 7, 'false']"
p1087
(lp1088
I30
aI18
aI22
aI19
asS"[-1, 'false', [6, 5, 1], 8, 10, 5, 'true']"
p1089
(lp1090
I22
aI28
aI14
aI27
asS"[-1, 'false', [1, 5, 6], 12, 23, 7, 'false']"
p1091
(lp1092
I23
aI35
aI14
aI18
asS"[-1, 'false', [5, 2, 5], 18, 35, 7, 'true']"
p1093
(lp1094
I24
aI18
aI30
aI15
asS"[-1, 'false', [4, 4, 4], 2, 21, 15, 'true']"
p1095
(lp1096
I35
aI22
aI27
aI34
asS"[-1, 'false', [8, 1, 3], 12, 24, 6, 'false']"
p1097
(lp1098
I25
aI25
aI26
aI24
asS"[-1, 'false', [10, 1, 1], 6, 37, 15, 'false']"
p1099
(lp1100
I23
aI29
aI33
aI17
asS"[-1, 'false', [4, 4, 4], 19, 12, 9, 'true']"
p1101
(lp1102
I17
asS"[-1, 'false', [6, 4, 2], 15, 27, 12, 'false']"
p1103
(lp1104
I21
aI18
aI18
aI21
asS"[-1, 'false', [4, 5, 3], 18, 11, 11, 'false']"
p1105
(lp1106
I27
asS"[-1, 'false', [0, 5, 7], 1, 9, 9, 'true']"
p1107
(lp1108
I39
aI28
aI36
aI42
asS"[-1, 'false', [5, 3, 4], 2, 47, 12, 'false']"
p1109
(lp1110
I28
aI35
aI23
aI37
asS"[-1, 'false', [0, 5, 7], 8, 18, 4, 'true']"
p1111
(lp1112
I31
aI48
aI42
aI30
asS"[-1, 'false', [5, 3, 4], 7, 14, 12, 'false']"
p1113
(lp1114
I28
aI20
aI31
aI29
asS"[-1, 'false', [1, 7, 4], 12, 31, 11, 'true']"
p1115
(lp1116
I35
asS"[-1, 'false', [7, 4, 1], 8, 10, 5, 'true']"
p1117
(lp1118
I18
aI21
aI26
aI17
asS"[-1, 'false', [5, 2, 5], 3, 20, 12, 'false']"
p1119
(lp1120
I37
aI30
aI33
aI34
asS"[-1, 'false', [5, 6, 1], 17, 16, 17, 'false']"
p1121
(lp1122
I21
asS"[-1, 'false', [3, 4, 5], 10, 24, 10, 'true']"
p1123
(lp1124
I25
aI27
aI27
aI21
asS"[-1, 'false', [2, 5, 5], 4, 48, 12, 'false']"
p1125
(lp1126
I28
aI24
aI21
aI25
asS"[-1, 'false', [7, 1, 4], 11, 24, 12, 'true']"
p1127
(lp1128
I29
aI26
aI34
aI33
asS"[-1, 'false', [1, 8, 3], 7, 24, 3, 'false']"
p1129
(lp1130
I44
aI44
aI33
aI17
asS"[-1, 'false', [0, 9, 3], 3, 17, 8, 'false']"
p1131
(lp1132
I30
asS"[-1, 'false', [0, 4, 8], 1, 15, 18, 'true']"
p1133
(lp1134
I33
aI33
aI27
aI30
asS"[-1, 'false', [2, 3, 7], 3, 14, 13, 'true']"
p1135
(lp1136
I23
aI34
aI34
aI34
asS"[-1, 'false', [0, 5, 7], 12, 27, 10, 'false']"
p1137
(lp1138
I28
aI31
aI25
aI35
asS"[-1, 'false', [1, 2, 9], 11, 13, 5, 'false']"
p1139
(lp1140
I20
aI18
aI21
aI18
asS"[-1, 'false', [6, 2, 4], 7, 33, 6, 'true']"
p1141
(lp1142
I28
aI34
aI45
aI17
asS"[-1, 'false', [3, 4, 5], 9, 9, 6, 'false']"
p1143
(lp1144
I22
aI20
aI27
aI27
asS"[-1, 'false', [6, 4, 2], 12, 8, 8, 'true']"
p1145
(lp1146
I22
asS"[-1, 'false', [1, 8, 3], 11, 7, 3, 'true']"
p1147
(lp1148
I32
aI29
aI31
aI41
asS"[-1, 'false', [4, 6, 2], 5, 26, 9, 'false']"
p1149
(lp1150
I19
aI17
aI23
aI20
asS"[-1, 'false', [2, 4, 6], 9, 5, 6, 'true']"
p1151
(lp1152
I23
aI24
aI23
aI26
asS"[-1, 'false', [3, 1, 8], 4, 23, 9, 'true']"
p1153
(lp1154
I17
aI30
aI21
aI32
asS"[-1, 'false', [1, 8, 3], 14, 12, 3, 'true']"
p1155
(lp1156
I32
aI31
aI38
aI39
asS"[-1, 'false', [4, 2, 6], 16, 24, 5, 'true']"
p1157
(lp1158
I24
aI16
aI12
aI22
asS"[-1, 'false', [4, 3, 5], 10, 39, 12, 'true']"
p1159
(lp1160
I31
aI30
aI25
aI33
asS"[-1, 'false', [5, 2, 5], 8, 24, 12, 'true']"
p1161
(lp1162
I29
aI36
aI25
aI27
asS"[-1, 'false', [5, 3, 4], 11, 6, 12, 'false']"
p1163
(lp1164
I29
aI37
aI22
aI28
asS"[-1, 'false', [2, 6, 4], 5, 12, 3, 'false']"
p1165
(lp1166
I29
aI47
aI39
aI36
asS"[-1, 'false', [1, 7, 4], 6, 11, 12, 'false']"
p1167
(lp1168
I22
aI21
aI48
aI37
asS"[-1, 'false', [3, 3, 6], 16, 24, 10, 'true']"
p1169
(lp1170
I17
aI31
aI14
aI21
asS"[-1, 'false', [3, 6, 3], 13, 34, 9, 'false']"
p1171
(lp1172
I17
aI19
aI14
aI27
asS"[-1, 'false', [7, 2, 3], 10, 1, 9, 'true']"
p1173
(lp1174
I21
aI22
aI25
aI19
asS"[-1, 'false', [1, 7, 4], 5, 39, 13, 'false']"
p1175
(lp1176
I21
aI28
aI24
aI22
asS"[-1, 'false', [2, 2, 8], 17, 8, 5, 'false']"
p1177
(lp1178
I25
aI22
aI20
aI23
asS"[-1, 'false', [1, 8, 3], 8, 24, 3, 'false']"
p1179
(lp1180
I33
aI39
aI36
aI19
asS"[-1, 'false', [5, 5, 2], 15, 21, 15, 'true']"
p1181
(lp1182
I15
aI17
aI21
aI21
asS"[-1, 'false', [5, 2, 5], 5, 30, 10, 'false']"
p1183
(lp1184
I31
aI28
aI26
aI24
asS"[-1, 'false', [0, 5, 7], 1, 8, 9, 'true']"
p1185
(lp1186
I37
aI35
aI36
aI42
asS"[-1, 'false', [2, 8, 2], 17, 50, 9, 'true']"
p1187
(lp1188
I12
aI10
aI29
aI16
asS"[-1, 'false', [0, 7, 5], 5, 44, 10, 'true']"
p1189
(lp1190
I21
aI22
aI31
aI12
asS"[-1, 'false', [0, 4, 8], 19, 10, 10, 'true']"
p1191
(lp1192
I20
aI34
aI19
aI20
asS"[-1, 'false', [9, 1, 2], 20, 48, 12, 'false']"
p1193
(lp1194
I25
aI11
aI9
aI13
asS"[-1, 'false', [5, 4, 3], 18, 16, 11, 'false']"
p1195
(lp1196
I16
aI7
aI12
aI31
asS"[-1, 'false', [4, 3, 5], 14, 32, 12, 'true']"
p1197
(lp1198
I21
aI23
aI31
aI35
asS"[-1, 'false', [2, 1, 9], 4, 25, 6, 'false']"
p1199
(lp1200
I34
aI19
aI37
aI58
asS"[-1, 'false', [6, 1, 5], 9, 38, 11, 'true']"
p1201
(lp1202
I27
aI31
aI19
aI41
asS"[-1, 'false', [1, 7, 4], 1, 45, 15, 'false']"
p1203
(lp1204
I28
aI26
aI42
aI26
asS"[-1, 'false', [3, 7, 2], 6, 12, 3, 'true']"
p1205
(lp1206
I38
aI31
aI28
aI29
asS"[-1, 'false', [2, 6, 4], 13, 34, 10, 'true']"
p1207
(lp1208
I25
asS"[-1, 'false', [6, 1, 5], 17, 38, 13, 'false']"
p1209
(lp1210
I21
aI26
aI22
aI30
asS"[-1, 'false', [3, 5, 4], 18, 5, 11, 'true']"
p1211
(lp1212
I23
asS"[-1, 'false', [1, 5, 6], 5, 39, 13, 'false']"
p1213
(lp1214
I34
aI36
aI21
aI34
asS"[-1, 'false', [5, 2, 5], 12, 24, 11, 'true']"
p1215
(lp1216
I35
aI29
aI25
aI26
asS"[-1, 'false', [1, 8, 3], 4, 12, 8, 'false']"
p1217
(lp1218
I31
aI32
aI19
aI17
asS"[-1, 'false', [0, 9, 3], 10, 35, 9, 'false']"
p1219
(lp1220
I38
aI15
aI32
aI23
asS"[-1, 'false', [1, 2, 9], 2, 7, 11, 'false']"
p1221
(lp1222
I16
aI38
aI25
aI33
asS"[-1, 'false', [6, 3, 3], 7, 9, 9, 'false']"
p1223
(lp1224
I25
aI25
aI34
aI31
asS"[-1, 'false', [1, 8, 3], 8, 27, 5, 'false']"
p1225
(lp1226
I24
aI27
aI20
aI39
asS"[-1, 'false', [3, 3, 6], 4, 1, 7, 'true']"
p1227
(lp1228
I23
aI26
aI31
aI22
asS"[-1, 'false', [5, 3, 4], 5, 23, 10, 'false']"
p1229
(lp1230
I25
aI23
aI23
aI25
asS"[-1, 'false', [1, 1, 10], 11, 49, 17, 'false']"
p1231
(lp1232
I26
asS"[-1, 'false', [5, 6, 1], 20, 47, 14, 'true']"
p1233
(lp1234
I7
aI14
aI6
aI9
asS"[-1, 'false', [4, 2, 6], 3, 32, 14, 'true']"
p1235
(lp1236
I30
aI25
aI30
aI42
asS"[-1, 'false', [7, 3, 2], 11, 45, 10, 'false']"
p1237
(lp1238
I23
aI20
aI20
aI11
asS"[-1, 'false', [4, 4, 4], 2, 29, 14, 'true']"
p1239
(lp1240
I40
aI24
aI29
aI34
asS"[-1, 'false', [3, 3, 6], 19, 21, 10, 'true']"
p1241
(lp1242
I16
aI33
asS"[-1, 'false', [5, 2, 5], 20, 24, 12, 'true']"
p1243
(lp1244
I17
aI19
aI15
aI18
asS"[-1, 'false', [4, 5, 3], 12, 45, 7, 'false']"
p1245
(lp1246
I22
aI13
aI8
aI12
asS"[-1, 'false', [2, 1, 9], 2, 32, 6, 'false']"
p1247
(lp1248
I37
aI39
aI29
aI21
asS"[-1, 'false', [5, 5, 2], 5, 43, 11, 'false']"
p1249
(lp1250
I21
aI21
aI13
aI14
asS"[-1, 'false', [0, 4, 8], 1, 15, 7, 'false']"
p1251
(lp1252
I27
aI38
aI31
aI35
asS"[-1, 'false', [3, 6, 3], 12, 4, 7, 'true']"
p1253
(lp1254
I26
aI27
aI21
aI29
asS"[-1, 'false', [1, 6, 5], 11, 29, 14, 'true']"
p1255
(lp1256
I22
aI20
aI35
aI29
asS"[-1, 'false', [5, 3, 4], 8, 37, 7, 'false']"
p1257
(lp1258
I20
aI20
aI24
aI28
asS"[-1, 'false', [2, 2, 8], 13, 23, 10, 'true']"
p1259
(lp1260
I26
aI18
aI33
aI22
asS"[-1, 'false', [3, 2, 7], 6, 48, 6, 'true']"
p1261
(lp1262
I28
aI24
aI33
aI18
asS"[-1, 'false', [6, 4, 2], 19, 43, 15, 'true']"
p1263
(lp1264
I8
aI15
aI8
aI11
asS"[-1, 'false', [5, 1, 6], 19, 21, 10, 'true']"
p1265
(lp1266
I20
aI23
asS"[-1, 'false', [1, 8, 3], 13, 37, 3, 'false']"
p1267
(lp1268
I14
aI26
aI29
aI25
asS"[-1, 'false', [2, 1, 9], 2, 23, 6, 'false']"
p1269
(lp1270
I44
aI30
aI27
aI38
asS"[-1, 'false', [2, 7, 3], 13, 47, 10, 'false']"
p1271
(lp1272
I25
asS"[-1, 'false', [3, 2, 7], 4, 36, 16, 'true']"
p1273
(lp1274
I29
aI35
aI34
aI34
asS"[-1, 'false', [5, 1, 6], 3, 15, 12, 'true']"
p1275
(lp1276
I15
aI35
aI21
aI25
asS"[-1, 'false', [0, 1, 11], 7, 26, 15, 'false']"
p1277
(lp1278
I29
aI37
aI42
aI25
asS"[-1, 'false', [7, 1, 4], 13, 32, 13, 'true']"
p1279
(lp1280
I31
aI26
aI29
aI28
asS"[-1, 'false', [7, 4, 1], 14, 34, 14, 'false']"
p1281
(lp1282
I15
aI13
aI9
aI24
asS"[-1, 'false', [10, 1, 1], 4, 28, 10, 'true']"
p1283
(lp1284
I24
aI17
aI29
aI31
asS"[-1, 'false', [6, 5, 1], 12, 26, 8, 'false']"
p1285
(lp1286
I13
aI29
aI26
aI15
asS"[-1, 'false', [4, 2, 6], 18, 18, 13, 'true']"
p1287
(lp1288
I25
aI27
aI19
aI21
asS"[-1, 'false', [4, 4, 4], 9, 24, 5, 'true']"
p1289
(lp1290
I29
aI30
aI28
aI29
asS"[-1, 'false', [3, 4, 5], 11, 33, 13, 'false']"
p1291
(lp1292
I27
aI20
aI24
aI24
asS"[-1, 'false', [6, 3, 3], 9, 32, 11, 'true']"
p1293
(lp1294
I21
aI33
aI27
aI17
asS"[-1, 'false', [2, 4, 6], 1, 15, 6, 'true']"
p1295
(lp1296
I42
aI30
aI38
aI27
asS"[-1, 'false', [2, 7, 3], 6, 5, 14, 'true']"
p1297
(lp1298
I19
aI30
aI29
aI27
asS"[-1, 'false', [6, 4, 2], 8, 16, 9, 'true']"
p1299
(lp1300
I16
aI23
aI21
aI20
asS"[-1, 'false', [2, 4, 6], 16, 40, 13, 'true']"
p1301
(lp1302
I24
asS"[-1, 'false', [2, 7, 3], 5, 33, 15, 'true']"
p1303
(lp1304
I18
aI19
aI28
aI34
asS"[-1, 'false', [8, 2, 2], 16, 15, 10, 'true']"
p1305
(lp1306
I26
aI18
aI22
aI21
asS"[-1, 'false', [0, 8, 4], 16, 47, 7, 'false']"
p1307
(lp1308
I6
aI10
aI8
aI8
asS"[-1, 'false', [4, 3, 5], 8, 6, 12, 'false']"
p1309
(lp1310
I25
aI26
aI25
aI22
asS"[-1, 'false', [5, 4, 3], 9, 16, 6, 'false']"
p1311
(lp1312
I20
aI16
aI27
aI25
asS"[-1, 'false', [2, 3, 7], 4, 21, 11, 'false']"
p1313
(lp1314
I28
aI38
aI21
aI37
asS"[-1, 'false', [4, 5, 3], 11, 15, 13, 'false']"
p1315
(lp1316
I14
aI21
aI19
aI29
asS"[-1, 'false', [0, 6, 6], 3, 41, 14, 'true']"
p1317
(lp1318
I31
aI31
aI27
aI30
asS"[-1, 'false', [6, 3, 3], 7, 3, 10, 'true']"
p1319
(lp1320
I19
aI27
aI21
aI32
asS"[-1, 'false', [5, 5, 2], 14, 41, 15, 'true']"
p1321
(lp1322
I15
aI19
aI19
aI18
asS"[-1, 'false', [5, 5, 2], 4, 32, 12, 'false']"
p1323
(lp1324
I23
aI31
aI22
aI16
asS"[-1, 'false', [0, 2, 10], 11, 49, 14, 'false']"
p1325
(lp1326
I6
asS"[-1, 'false', [3, 6, 3], 8, 1, 10, 'true']"
p1327
(lp1328
I28
aI20
aI33
aI26
asS"[-1, 'false', [6, 5, 1], 18, 8, 8, 'false']"
p1329
(lp1330
I18
aI22
aI23
aI25
asS"[-1, 'false', [3, 4, 5], 14, 20, 12, 'true']"
p1331
(lp1332
I25
aI16
aI27
aI26
asS"[-1, 'false', [8, 1, 3], 9, 7, 8, 'false']"
p1333
(lp1334
I30
aI33
aI24
aI27
asS"[-1, 'false', [9, 2, 1], 18, 5, 11, 'true']"
p1335
(lp1336
I18
aI21
asS"[-1, 'false', [6, 3, 3], 9, 32, 12, 'false']"
p1337
(lp1338
I19
aI27
aI29
aI36
asS"[-1, 'false', [6, 2, 4], 2, 47, 10, 'false']"
p1339
(lp1340
I39
aI41
aI21
aI33
asS"[-1, 'false', [5, 5, 2], 9, 21, 10, 'false']"
p1341
(lp1342
I17
aI28
aI26
aI15
asS"[-1, 'false', [5, 5, 2], 12, 1, 7, 'true']"
p1343
(lp1344
I27
aI22
aI28
aI25
asS"[-1, 'false', [0, 1, 11], 8, 2, 13, 'false']"
p1345
(lp1346
I28
aI35
aI18
aI20
asS"[-1, 'false', [1, 8, 3], 8, 37, 3, 'false']"
p1347
(lp1348
I35
aI44
aI36
aI36
asS"[-1, 'false', [7, 3, 2], 8, 42, 14, 'true']"
p1349
(lp1350
I18
aI26
aI21
aI24
aI14
aI14
aI16
aI16
aI17
aI16
asS"[-1, 'false', [2, 1, 9], 10, 15, 6, 'false']"
p1351
(lp1352
I21
aI21
aI42
aI28
asS"[-1, 'false', [5, 3, 4], 11, 15, 15, 'true']"
p1353
(lp1354
I31
aI34
aI17
aI23
asS"[-1, 'false', [5, 4, 3], 6, 15, 11, 'true']"
p1355
(lp1356
I30
aI29
aI23
aI23
asS"[-1, 'false', [3, 7, 2], 11, 30, 8, 'true']"
p1357
(lp1358
I30
aI24
aI27
aI22
asS"[-1, 'false', [4, 1, 7], 4, 26, 4, 'false']"
p1359
(lp1360
I32
aI38
aI27
aI38
asS"[-1, 'false', [9, 2, 1], 19, 43, 11, 'true']"
p1361
(lp1362
I17
aI14
aI12
aI15
asS"[-1, 'false', [1, 8, 3], 3, 10, 3, 'true']"
p1363
(lp1364
I40
aI50
aI39
aI37
asS"[-1, 'false', [2, 7, 3], 6, 14, 15, 'false']"
p1365
(lp1366
I33
aI30
aI27
aI18
asS"[-1, 'false', [2, 1, 9], 11, 15, 6, 'false']"
p1367
(lp1368
I24
aI35
aI33
aI21
asS"[-1, 'false', [2, 2, 8], 11, 36, 6, 'false']"
p1369
(lp1370
I22
aI16
aI35
aI21
asS"[-1, 'false', [2, 5, 5], 8, 37, 3, 'false']"
p1371
(lp1372
I20
aI26
aI36
aI33
asS"[-1, 'false', [4, 1, 7], 19, 21, 10, 'true']"
p1373
(lp1374
I25
aI14
aI12
aI25
aI25
aI32
aI27
aI15
asS"[-1, 'false', [5, 4, 3], 14, 19, 12, 'true']"
p1375
(lp1376
I16
aI21
aI21
aI26
asS"[-1, 'false', [4, 3, 5], 3, 7, 13, 'false']"
p1377
(lp1378
I34
aI33
aI29
aI30
asS"[-1, 'false', [8, 2, 2], 11, 33, 13, 'false']"
p1379
(lp1380
I21
aI25
aI15
aI28
asS"[-1, 'false', [3, 2, 7], 4, 23, 7, 'false']"
p1381
(lp1382
I33
aI26
aI29
aI17
asS"[-1, 'false', [2, 2, 8], 1, 16, 8, 'false']"
p1383
(lp1384
I36
aI41
aI34
aI45
asS"[-1, 'false', [0, 5, 7], 8, 18, 8, 'true']"
p1385
(lp1386
I28
aI22
aI31
aI35
asS"[-1, 'false', [2, 2, 8], 15, 9, 6, 'false']"
p1387
(lp1388
I22
aI22
aI28
aI26
asS"[-1, 'false', [0, 4, 8], 1, 15, 6, 'true']"
p1389
(lp1390
I32
aI31
aI43
aI39
asS"[-1, 'false', [3, 4, 5], 9, 24, 6, 'true']"
p1391
(lp1392
I25
aI31
aI27
aI18
asS"[-1, 'false', [1, 7, 4], 12, 31, 14, 'false']"
p1393
(lp1394
I23
asS"[-1, 'false', [3, 4, 5], 2, 12, 11, 'true']"
p1395
(lp1396
I30
aI38
aI29
aI29
asS"[-1, 'false', [1, 2, 9], 2, 7, 13, 'false']"
p1397
(lp1398
I22
aI28
aI34
aI31
asS"[-1, 'false', [2, 8, 2], 16, 4, 13, 'false']"
p1399
(lp1400
I23
aI23
asS"[-1, 'false', [2, 7, 3], 2, 23, 13, 'false']"
p1401
(lp1402
I34
aI25
aI27
aI31
asS"[-1, 'false', [1, 6, 5], 1, 45, 15, 'true']"
p1403
(lp1404
I25
aI33
aI35
aI27
asS"[-1, 'false', [1, 6, 5], 1, 5, 8, 'true']"
p1405
(lp1406
I24
aI28
aI38
aI33
asS"[-1, 'false', [1, 8, 3], 12, 12, 19, 'true']"
p1407
(lp1408
I27
aI19
aI27
aI26
asS"[-1, 'false', [0, 6, 6], 18, 15, 7, 'true']"
p1409
(lp1410
I11
aI27
aI18
aI9
asS"[-1, 'false', [7, 3, 2], 5, 42, 14, 'true']"
p1411
(lp1412
I28
asS"[-1, 'false', [6, 1, 5], 4, 38, 15, 'false']"
p1413
(lp1414
I34
aI35
aI34
aI25
asS"[-1, 'false', [8, 1, 3], 7, 13, 8, 'true']"
p1415
(lp1416
I22
aI31
aI28
aI26
asS"[-1, 'false', [4, 7, 1], 4, 17, 14, 'true']"
p1417
(lp1418
I15
aI14
aI24
aI26
asS"[-1, 'false', [3, 2, 7], 11, 24, 12, 'true']"
p1419
(lp1420
I24
aI20
aI28
aI27
asS"[-1, 'false', [2, 3, 7], 2, 21, 11, 'false']"
p1421
(lp1422
I33
aI27
aI28
aI34
asS"[-1, 'false', [1, 10, 1], 7, 35, 14, 'false']"
p1423
(lp1424
I14
aI13
aI21
aI26
asS"[-1, 'false', [4, 2, 6], 12, 17, 8, 'true']"
p1425
(lp1426
I36
aI22
aI27
aI32
asS"[-1, 'false', [2, 2, 8], 15, 19, 8, 'false']"
p1427
(lp1428
I17
aI26
aI22
aI28
asS"[-1, 'false', [2, 3, 7], 3, 13, 9, 'true']"
p1429
(lp1430
I31
aI30
aI23
aI37
asS"[-1, 'false', [3, 2, 7], 4, 11, 7, 'false']"
p1431
(lp1432
I30
aI33
aI28
aI35
asS"[-1, 'false', [2, 2, 8], 1, 4, 7, 'false']"
p1433
(lp1434
I33
aI29
aI29
aI23
asS"[-1, 'false', [3, 7, 2], 15, 6, 10, 'true']"
p1435
(lp1436
I18
aI26
aI15
aI24
asS"[-1, 'false', [4, 1, 7], 10, 20, 20, 'true']"
p1437
(lp1438
I20
aI27
aI22
aI28
asS"[-1, 'false', [2, 1, 9], 10, 15, 6, 'true']"
p1439
(lp1440
I29
aI29
aI26
aI21
asS"[-1, 'false', [0, 6, 6], 18, 31, 12, 'true']"
p1441
(lp1442
I31
aI13
aI13
aI13
asS"[-1, 'false', [9, 1, 2], 3, 12, 8, 'true']"
p1443
(lp1444
I31
asS"[-1, 'false', [6, 4, 2], 3, 45, 12, 'true']"
p1445
(lp1446
I24
asS"[-1, 'false', [3, 6, 3], 12, 34, 9, 'false']"
p1447
(lp1448
I13
aI28
aI20
aI18
asS"[-1, 'false', [0, 2, 10], 6, 39, 8, 'true']"
p1449
(lp1450
I23
aI22
aI41
aI20
asS"[-1, 'false', [2, 2, 8], 8, 19, 8, 'false']"
p1451
(lp1452
I27
aI28
aI33
aI34
asS"[-1, 'false', [6, 1, 5], 20, 24, 12, 'true']"
p1453
(lp1454
I34
aI15
aI20
aI24
asS"[-1, 'false', [4, 4, 4], 9, 20, 20, 'true']"
p1455
(lp1456
I27
aI26
aI21
aI25
asS"[-1, 'false', [3, 3, 6], 10, 23, 7, 'true']"
p1457
(lp1458
I21
aI38
aI23
aI21
asS"[-1, 'false', [6, 3, 3], 4, 12, 6, 'true']"
p1459
(lp1460
I35
aI35
aI34
aI29
asS"[-1, 'false', [2, 5, 5], 1, 18, 9, 'true']"
p1461
(lp1462
I24
aI22
aI32
aI34
asS"[-1, 'false', [4, 3, 5], 16, 24, 8, 'true']"
p1463
(lp1464
I16
aI17
aI25
aI19
asS"[-1, 'false', [3, 8, 1], 18, 38, 15, 'true']"
p1465
(lp1466
I17
aI18
aI34
aI17
asS"[-1, 'false', [1, 1, 10], 3, 32, 10, 'true']"
p1467
(lp1468
I34
aI31
aI30
aI44
asS"[-1, 'false', [4, 5, 3], 11, 27, 12, 'false']"
p1469
(lp1470
I22
aI16
aI20
aI18
asS"[-1, 'false', [4, 1, 7], 5, 26, 4, 'true']"
p1471
(lp1472
I41
aI31
aI28
aI31
asS"[-1, 'false', [3, 5, 4], 12, 22, 15, 'true']"
p1473
(lp1474
I21
aI26
aI24
aI21
asS"[-1, 'false', [8, 2, 2], 14, 42, 15, 'false']"
p1475
(lp1476
I23
asS"[-1, 'false', [8, 2, 2], 6, 3, 8, 'false']"
p1477
(lp1478
I26
aI27
aI32
aI25
asS"[-1, 'false', [8, 1, 3], 6, 6, 12, 'false']"
p1479
(lp1480
I21
aI33
aI25
aI31
asS"[-1, 'false', [1, 5, 6], 6, 14, 15, 'false']"
p1481
(lp1482
I25
aI45
aI30
aI39
asS"[-1, 'false', [6, 3, 3], 3, 42, 8, 'false']"
p1483
(lp1484
I37
aI23
aI22
aI29
asS"[-1, 'false', [5, 4, 3], 8, 1, 4, 'false']"
p1485
(lp1486
I32
aI26
aI32
aI28
asS"[-1, 'false', [2, 7, 3], 10, 7, 11, 'true']"
p1487
(lp1488
I28
aI21
aI17
aI24
asS"[-1, 'false', [0, 10, 2], 15, 29, 14, 'true']"
p1489
(lp1490
I30
asS"[-1, 'false', [3, 6, 3], 10, 18, 7, 'true']"
p1491
(lp1492
I33
aI22
aI22
aI36
asS"[-1, 'false', [3, 2, 7], 5, 30, 11, 'true']"
p1493
(lp1494
I32
aI17
aI35
aI36
asS"[-1, 'false', [4, 5, 3], 4, 35, 11, 'false']"
p1495
(lp1496
I32
aI35
aI32
aI24
asS"[-1, 'false', [1, 7, 4], 12, 45, 8, 'false']"
p1497
(lp1498
I24
aI8
aI12
aI14
asS"[-1, 'false', [0, 5, 7], 2, 12, 9, 'true']"
p1499
(lp1500
I28
aI30
aI26
aI23
asS"[-1, 'false', [10, 1, 1], 7, 21, 9, 'true']"
p1501
(lp1502
I37
asS"[-1, 'false', [7, 4, 1], 16, 17, 14, 'false']"
p1503
(lp1504
I24
aI21
aI14
aI25
asS"[-1, 'false', [2, 2, 8], 1, 5, 8, 'false']"
p1505
(lp1506
I39
aI40
aI33
aI28
asS"[-1, 'false', [6, 3, 3], 17, 10, 6, 'true']"
p1507
(lp1508
I24
aI19
aI14
aI28
asS"[-1, 'false', [4, 3, 5], 16, 24, 10, 'true']"
p1509
(lp1510
I19
aI19
aI29
aI21
asS"[-1, 'false', [8, 1, 3], 7, 25, 17, 'false']"
p1511
(lp1512
I26
aI34
aI35
aI26
asS"[-1, 'false', [2, 3, 7], 14, 21, 11, 'false']"
p1513
(lp1514
I16
aI33
aI24
aI19
asS"[-1, 'false', [2, 1, 9], 1, 4, 9, 'true']"
p1515
(lp1516
I24
aI25
aI30
aI28
asS"[-1, 'false', [7, 1, 4], 10, 2, 11, 'true']"
p1517
(lp1518
I23
aI27
aI34
aI25
asS"[-1, 'false', [8, 2, 2], 12, 45, 9, 'false']"
p1519
(lp1520
I27
aI17
aI20
aI20
asS"[-1, 'false', [2, 3, 7], 7, 11, 7, 'false']"
p1521
(lp1522
I29
aI16
aI29
aI43
asS"[-1, 'false', [5, 2, 5], 3, 47, 10, 'false']"
p1523
(lp1524
I21
aI23
aI28
aI39
asS"[-1, 'false', [5, 3, 4], 11, 26, 13, 'false']"
p1525
(lp1526
I30
aI24
aI29
aI36
asS"[-1, 'false', [5, 1, 6], 4, 32, 15, 'false']"
p1527
(lp1528
I34
aI19
aI31
aI32
asS"[-1, 'false', [6, 3, 3], 10, 32, 13, 'true']"
p1529
(lp1530
I24
aI26
aI28
aI25
asS"[-1, 'false', [2, 1, 9], 4, 22, 9, 'true']"
p1531
(lp1532
I25
aI30
aI22
aI33
asS"[-1, 'false', [5, 2, 5], 3, 47, 12, 'false']"
p1533
(lp1534
I20
aI32
aI33
aI27
asS"[-1, 'false', [9, 2, 1], 8, 13, 9, 'false']"
p1535
(lp1536
I35
aI32
aI19
aI24
asS"[-1, 'false', [8, 2, 2], 3, 40, 17, 'false']"
p1537
(lp1538
I18
aI33
aI17
aI24
asS"[-1, 'false', [8, 1, 3], 11, 13, 10, 'true']"
p1539
(lp1540
I29
asS"[-1, 'false', [5, 2, 5], 6, 23, 9, 'false']"
p1541
(lp1542
I51
aI33
aI35
aI31
asS"[-1, 'false', [5, 1, 6], 5, 45, 9, 'false']"
p1543
(lp1544
I34
aI27
aI20
aI21
asS"[-1, 'false', [4, 4, 4], 16, 10, 13, 'true']"
p1545
(lp1546
I31
aI29
aI23
aI21
asS"[-1, 'false', [4, 7, 1], 2, 35, 12, 'false']"
p1547
(lp1548
I10
aI22
aI24
aI14
asS"[-1, 'false', [1, 5, 6], 1, 15, 6, 'true']"
p1549
(lp1550
I35
aI37
aI41
aI38
asS"[-1, 'false', [2, 8, 2], 20, 45, 9, 'false']"
p1551
(lp1552
I6
asS"[-1, 'false', [4, 5, 3], 5, 39, 12, 'true']"
p1553
(lp1554
I25
aI29
aI26
aI15
asS"[-1, 'false', [1, 9, 2], 9, 12, 8, 'true']"
p1555
(lp1556
I27
aI19
aI32
aI26
asS"[-1, 'false', [1, 10, 1], 9, 6, 7, 'false']"
p1557
(lp1558
I32
asS"[-1, 'false', [9, 2, 1], 5, 26, 13, 'false']"
p1559
(lp1560
I20
aI26
aI11
aI23
asS"[-1, 'false', [4, 5, 3], 9, 45, 15, 'false']"
p1561
(lp1562
I22
aI27
aI24
aI28
asS"[-1, 'false', [1, 4, 7], 1, 15, 8, 'true']"
p1563
(lp1564
I30
aI42
aI31
aI48
asS"[-1, 'false', [3, 3, 6], 1, 22, 9, 'false']"
p1565
(lp1566
I34
aI27
aI39
aI42
asS"[-1, 'false', [5, 1, 6], 3, 30, 10, 'true']"
p1567
(lp1568
I31
aI30
aI36
aI19
asS"[-1, 'false', [3, 1, 8], 9, 24, 15, 'true']"
p1569
(lp1570
I23
aI37
aI32
aI17
asS"[-1, 'false', [0, 5, 7], 1, 15, 7, 'false']"
p1571
(lp1572
I45
aI33
aI37
aI41
asS"[-1, 'false', [5, 1, 6], 15, 16, 8, 'true']"
p1573
(lp1574
I33
aI28
aI25
aI23
asS"[-1, 'false', [1, 4, 7], 1, 9, 6, 'true']"
p1575
(lp1576
I37
aI36
aI47
aI40
asS"[-1, 'false', [1, 7, 4], 12, 12, 11, 'true']"
p1577
(lp1578
I30
asS"[-1, 'false', [3, 3, 6], 5, 23, 10, 'false']"
p1579
(lp1580
I33
aI29
aI21
aI26
asS"[-1, 'false', [2, 4, 6], 5, 23, 7, 'false']"
p1581
(lp1582
I31
aI26
aI16
aI29
asS"[-1, 'false', [5, 2, 5], 12, 31, 14, 'false']"
p1583
(lp1584
I33
aI31
asS"[-1, 'false', [4, 3, 5], 6, 36, 10, 'false']"
p1585
(lp1586
I30
aI31
aI20
aI34
asS"[-1, 'false', [4, 7, 1], 10, 16, 20, 'true']"
p1587
(lp1588
I26
aI21
aI24
aI17
asS"[-1, 'false', [8, 1, 3], 14, 14, 11, 'false']"
p1589
(lp1590
I28
aI27
aI22
aI32
asS"[-1, 'false', [7, 2, 3], 4, 35, 11, 'false']"
p1591
(lp1592
I35
aI33
aI39
aI27
asS"[-1, 'false', [1, 8, 3], 8, 32, 3, 'true']"
p1593
(lp1594
I52
aI39
aI20
aI30
asS"[-1, 'false', [3, 3, 6], 5, 38, 8, 'true']"
p1595
(lp1596
I29
aI27
aI27
aI29
asS"[-1, 'false', [0, 4, 8], 1, 15, 7, 'true']"
p1597
(lp1598
I36
aI54
aI46
aI42
asS"[-1, 'false', [2, 3, 7], 2, 14, 13, 'true']"
p1599
(lp1600
I37
aI40
aI28
aI23
asS"[-1, 'false', [5, 5, 2], 11, 16, 11, 'true']"
p1601
(lp1602
I29
aI20
aI32
aI22
asS"[-1, 'false', [8, 1, 3], 7, 13, 17, 'true']"
p1603
(lp1604
I25
aI22
aI32
aI20
asS"[-1, 'false', [3, 4, 5], 5, 39, 13, 'false']"
p1605
(lp1606
I21
aI21
aI37
aI23
asS"[-1, 'false', [3, 6, 3], 5, 19, 15, 'false']"
p1607
(lp1608
I27
aI20
aI29
aI33
asS"[-1, 'false', [6, 2, 4], 5, 23, 9, 'false']"
p1609
(lp1610
I27
aI28
aI32
aI31
asS"[-1, 'false', [6, 2, 4], 13, 17, 12, 'true']"
p1611
(lp1612
I29
aI30
aI22
aI25
asS"[-1, 'false', [5, 1, 6], 17, 38, 13, 'false']"
p1613
(lp1614
I16
aI31
aI28
aI21
asS"[-1, 'false', [1, 8, 3], 6, 12, 3, 'true']"
p1615
(lp1616
I39
aI41
aI36
aI47
asS"[-1, 'false', [5, 1, 6], 10, 1, 12, 'true']"
p1617
(lp1618
I26
aI25
aI29
aI25
asS"[-1, 'false', [2, 4, 6], 4, 24, 7, 'false']"
p1619
(lp1620
I29
aI32
aI33
aI33
asS"[-1, 'false', [5, 3, 4], 6, 24, 12, 'true']"
p1621
(lp1622
I27
aI34
aI34
aI30
asS"[-1, 'false', [1, 7, 4], 16, 14, 7, 'false']"
p1623
(lp1624
I11
asS"[-1, 'false', [0, 6, 6], 1, 15, 8, 'true']"
p1625
(lp1626
I35
aI27
aI35
aI48
asS"[-1, 'false', [5, 1, 6], 5, 30, 11, 'true']"
p1627
(lp1628
I29
aI34
aI32
aI28
asS"[-1, 'false', [1, 8, 3], 8, 1, 4, 'false']"
p1629
(lp1630
I22
aI24
aI31
aI22
asS"[-1, 'false', [7, 1, 4], 8, 38, 11, 'false']"
p1631
(lp1632
I38
aI28
aI38
aI25
asS"[-1, 'false', [5, 4, 3], 6, 8, 7, 'false']"
p1633
(lp1634
I21
aI28
aI22
aI36
asS"[-1, 'false', [1, 7, 4], 12, 41, 8, 'false']"
p1635
(lp1636
I26
aI42
aI19
aI18
asS"[-1, 'false', [1, 2, 9], 4, 21, 15, 'true']"
p1637
(lp1638
I27
aI30
aI49
aI31
asS"[-1, 'false', [6, 2, 4], 5, 43, 12, 'false']"
p1639
(lp1640
I20
aI29
aI20
aI37
asS"[-1, 'false', [1, 7, 4], 18, 7, 11, 'false']"
p1641
(lp1642
I20
aI27
aI23
aI25
asS"[-1, 'false', [6, 5, 1], 14, 21, 7, 'true']"
p1643
(lp1644
I16
aI18
aI21
aI22
asS"[-1, 'false', [0, 2, 10], 8, 7, 13, 'false']"
p1645
(lp1646
I28
aI29
aI23
aI24
asS"[-1, 'false', [3, 6, 3], 12, 44, 8, 'false']"
p1647
(lp1648
I14
aI18
aI29
aI10
asS"[-1, 'false', [5, 2, 5], 10, 2, 12, 'true']"
p1649
(lp1650
I25
aI24
aI29
aI22
asS"[-1, 'false', [5, 3, 4], 5, 10, 11, 'false']"
p1651
(lp1652
I29
aI26
aI34
aI27
asS"[-1, 'false', [3, 2, 7], 18, 3, 11, 'false']"
p1653
(lp1654
I32
asS"[-1, 'false', [4, 6, 2], 5, 26, 14, 'false']"
p1655
(lp1656
I31
aI24
aI24
aI18
asS"[-1, 'false', [5, 6, 1], 4, 17, 14, 'true']"
p1657
(lp1658
I22
aI17
aI20
aI24
asS"[-1, 'false', [0, 3, 9], 11, 13, 6, 'false']"
p1659
(lp1660
I32
aI32
aI22
aI40
asS"[-1, 'false', [1, 3, 8], 5, 39, 8, 'true']"
p1661
(lp1662
I28
aI27
aI21
aI47
asS"[-1, 'false', [5, 4, 3], 18, 7, 11, 'false']"
p1663
(lp1664
I22
aI19
aI22
aI32
asS"[-1, 'false', [1, 8, 3], 6, 32, 3, 'true']"
p1665
(lp1666
I35
aI28
aI33
aI37
asS"[-1, 'false', [2, 3, 7], 8, 45, 11, 'false']"
p1667
(lp1668
I21
aI13
aI35
aI34
asS"[-1, 'false', [5, 4, 3], 11, 33, 13, 'false']"
p1669
(lp1670
I24
aI19
aI18
aI23
asS"[-1, 'false', [8, 1, 3], 6, 35, 11, 'true']"
p1671
(lp1672
I25
aI36
aI31
aI20
asS"[-1, 'false', [1, 7, 4], 11, 39, 14, 'true']"
p1673
(lp1674
I35
aI23
aI18
aI20
asS"[-1, 'false', [0, 5, 7], 1, 11, 9, 'true']"
p1675
(lp1676
I26
aI29
aI32
aI35
asS"[-1, 'false', [0, 2, 10], 15, 43, 11, 'false']"
p1677
(lp1678
I26
asS"[-1, 'false', [2, 4, 6], 7, 21, 11, 'false']"
p1679
(lp1680
I26
aI25
aI31
aI23
asS"[-1, 'false', [5, 3, 4], 9, 24, 5, 'true']"
p1681
(lp1682
I29
aI27
aI28
aI14
asS"[-1, 'false', [1, 8, 3], 20, 14, 3, 'true']"
p1683
(lp1684
I37
aI37
aI33
aI40
asS"[-1, 'false', [2, 3, 7], 10, 23, 9, 'false']"
p1685
(lp1686
I27
aI22
aI31
aI29
asS"[-1, 'false', [9, 1, 2], 20, 37, 2, 'false']"
p1687
(lp1688
I32
aI36
aI34
aI18
asS"[-1, 'false', [6, 1, 5], 5, 2, 9, 'false']"
p1689
(lp1690
I32
aI27
aI34
aI22
asS"[-1, 'false', [6, 4, 2], 18, 5, 11, 'true']"
p1691
(lp1692
I29
asS"[-1, 'false', [3, 7, 2], 13, 4, 13, 'false']"
p1693
(lp1694
I20
asS"[-1, 'false', [6, 5, 1], 8, 28, 12, 'true']"
p1695
(lp1696
I17
aI13
aI14
aI23
asS"[-1, 'false', [5, 1, 6], 4, 21, 5, 'false']"
p1697
(lp1698
I43
aI28
aI30
aI31
asS"[-1, 'false', [5, 2, 5], 1, 21, 9, 'true']"
p1699
(lp1700
I31
aI51
aI32
aI29
asS"[-1, 'false', [3, 7, 2], 12, 30, 5, 'true']"
p1701
(lp1702
I14
aI31
aI7
aI16
asS"[-1, 'false', [0, 5, 7], 1, 22, 11, 'false']"
p1703
(lp1704
I32
aI50
aI32
aI47
asS"[-1, 'false', [3, 6, 3], 13, 30, 9, 'false']"
p1705
(lp1706
I27
aI36
aI20
aI21
asS"[-1, 'false', [5, 3, 4], 7, 33, 13, 'false']"
p1707
(lp1708
I25
aI29
aI31
aI24
asS"[-1, 'false', [5, 2, 5], 1, 21, 9, 'false']"
p1709
(lp1710
I25
aI44
aI36
aI26
asS"[-1, 'false', [5, 2, 5], 12, 15, 12, 'true']"
p1711
(lp1712
I40
aI26
aI28
aI31
asS"[-1, 'false', [3, 1, 8], 4, 21, 10, 'false']"
p1713
(lp1714
I17
aI42
aI24
aI33
asS"[-1, 'false', [2, 5, 5], 3, 14, 12, 'true']"
p1715
(lp1716
I34
aI41
aI35
aI28
asS"[-1, 'false', [0, 4, 8], 4, 12, 6, 'true']"
p1717
(lp1718
I24
aI29
aI25
aI39
asS"[-1, 'false', [6, 4, 2], 3, 15, 9, 'false']"
p1719
(lp1720
I32
aI24
aI27
aI24
asS"[-1, 'false', [1, 5, 6], 7, 42, 8, 'false']"
p1721
(lp1722
I35
aI26
aI28
aI20
asS"[-1, 'false', [6, 3, 3], 9, 46, 12, 'false']"
p1723
(lp1724
I24
aI27
aI24
aI16
asS"[-1, 'false', [3, 6, 3], 14, 43, 14, 'true']"
p1725
(lp1726
I15
asS"[-1, 'false', [3, 6, 3], 3, 13, 3, 'true']"
p1727
(lp1728
I33
aI34
aI45
aI40
asS"[-1, 'false', [6, 3, 3], 13, 32, 13, 'true']"
p1729
(lp1730
I20
aI15
aI40
aI26
asS"[-1, 'false', [6, 3, 3], 18, 32, 10, 'false']"
p1731
(lp1732
I17
aI11
aI10
aI18
asS"[-1, 'false', [7, 3, 2], 12, 6, 15, 'true']"
p1733
(lp1734
I23
aI26
asS"[-1, 'false', [0, 1, 11], 9, 9, 10, 'false']"
p1735
(lp1736
I32
asS"[-1, 'false', [5, 1, 6], 8, 50, 9, 'false']"
p1737
(lp1738
I22
aI24
aI33
aI16
asS"[-1, 'false', [7, 2, 3], 9, 32, 5, 'false']"
p1739
(lp1740
I21
aI17
aI20
aI23
asS"[-1, 'false', [4, 6, 2], 12, 10, 10, 'false']"
p1741
(lp1742
I29
aI21
aI27
aI24
asS"[-1, 'false', [2, 7, 3], 9, 15, 9, 'true']"
p1743
(lp1744
I24
aI23
aI23
aI19
asS"[-1, 'false', [4, 3, 5], 10, 13, 12, 'true']"
p1745
(lp1746
I20
aI20
aI39
aI29
asS"[-1, 'false', [5, 3, 4], 7, 30, 17, 'false']"
p1747
(lp1748
I34
aI35
aI21
aI25
asS"[-1, 'false', [4, 4, 4], 11, 47, 8, 'false']"
p1749
(lp1750
I10
asS"[-1, 'false', [6, 3, 3], 17, 7, 6, 'true']"
p1751
(lp1752
I27
aI22
aI15
aI19
asS"[-1, 'false', [5, 4, 3], 11, 12, 8, 'true']"
p1753
(lp1754
I16
aI29
aI32
aI27
asS"[-1, 'false', [1, 4, 7], 7, 15, 8, 'false']"
p1755
(lp1756
I32
aI25
aI32
aI31
asS"[-1, 'false', [6, 4, 2], 15, 25, 10, 'false']"
p1757
(lp1758
I28
aI19
aI12
aI29
asS"[-1, 'false', [0, 6, 6], 1, 18, 20, 'true']"
p1759
(lp1760
I24
aI26
aI33
aI30
asS"[-1, 'false', [4, 6, 2], 16, 17, 14, 'false']"
p1761
(lp1762
I28
aI20
aI16
aI31
asS"[-1, 'false', [2, 2, 8], 1, 23, 16, 'false']"
p1763
(lp1764
I29
aI31
aI36
aI35
asS"[-1, 'false', [2, 8, 2], 12, 26, 8, 'false']"
p1765
(lp1766
I20
aI29
aI32
aI27
asS"[-1, 'false', [4, 4, 4], 2, 13, 6, 'true']"
p1767
(lp1768
I28
aI17
aI30
aI22
asS"[-1, 'false', [4, 2, 6], 6, 19, 11, 'true']"
p1769
(lp1770
I36
aI33
aI32
aI21
asS"[-1, 'false', [4, 3, 5], 11, 7, 11, 'true']"
p1771
(lp1772
I26
aI26
aI31
aI22
asS"[-1, 'false', [0, 5, 7], 1, 12, 9, 'true']"
p1773
(lp1774
I33
aI32
aI28
aI41
asS"[-1, 'false', [2, 7, 3], 7, 12, 3, 'true']"
p1775
(lp1776
I31
aI26
aI26
aI44
asS"[-1, 'false', [0, 7, 5], 2, 45, 15, 'true']"
p1777
(lp1778
I16
aI29
aI36
aI46
asS"[-1, 'false', [1, 4, 7], 10, 25, 13, 'true']"
p1779
(lp1780
I26
aI22
aI28
aI33
asS"[-1, 'false', [3, 3, 6], 4, 19, 11, 'false']"
p1781
(lp1782
I31
aI35
aI37
aI29
asS"[-1, 'false', [4, 5, 3], 17, 20, 6, 'true']"
p1783
(lp1784
I11
aI13
aI13
aI13
asS"[-1, 'false', [0, 4, 8], 7, 15, 7, 'false']"
p1785
(lp1786
I55
aI43
aI23
aI22
asS"[-1, 'false', [0, 4, 8], 1, 16, 7, 'true']"
p1787
(lp1788
I31
aI50
aI38
aI36
asS"[-1, 'false', [3, 3, 6], 3, 16, 7, 'true']"
p1789
(lp1790
I37
aI31
aI30
aI26
asS"[-1, 'false', [4, 5, 3], 12, 45, 7, 'true']"
p1791
(lp1792
I24
aI13
aI15
aI19
asS"[-1, 'false', [1, 8, 3], 3, 32, 3, 'true']"
p1793
(lp1794
I41
aI26
aI33
aI35
asS"[-1, 'false', [3, 7, 2], 16, 4, 4, 'false']"
p1795
(lp1796
I29
asS"[-1, 'false', [3, 7, 2], 12, 26, 10, 'false']"
p1797
(lp1798
I20
aI25
aI9
aI19
asS"[-1, 'false', [4, 5, 3], 16, 49, 7, 'true']"
p1799
(lp1800
I11
aI20
aI10
aI20
asS"[-1, 'false', [1, 6, 5], 1, 9, 11, 'false']"
p1801
(lp1802
I28
aI53
aI47
aI34
asS"[-1, 'false', [5, 3, 4], 2, 9, 9, 'false']"
p1803
(lp1804
I29
aI24
aI27
aI31
asS"[-1, 'false', [5, 4, 3], 11, 2, 11, 'true']"
p1805
(lp1806
I32
aI20
aI38
aI34
asS"[-1, 'false', [3, 3, 6], 12, 31, 14, 'true']"
p1807
(lp1808
I23
asS"[-1, 'false', [2, 2, 8], 4, 23, 7, 'false']"
p1809
(lp1810
I44
aI24
aI31
aI30
asS"[-1, 'false', [2, 8, 2], 16, 30, 10, 'true']"
p1811
(lp1812
I11
aI20
aI23
aI23
asS"[-1, 'false', [5, 3, 4], 11, 24, 12, 'false']"
p1813
(lp1814
I30
aI28
aI25
aI25
asS"[-1, 'false', [2, 8, 2], 1, 25, 7, 'true']"
p1815
(lp1816
I22
aI30
aI15
aI18
asS"[-1, 'false', [1, 8, 3], 18, 13, 14, 'false']"
p1817
(lp1818
I18
aI32
aI19
aI21
asS"[-1, 'false', [7, 2, 3], 4, 32, 12, 'false']"
p1819
(lp1820
I29
aI30
aI31
aI33
asS"[-1, 'false', [4, 3, 5], 2, 47, 11, 'false']"
p1821
(lp1822
I32
aI28
aI41
aI29
asS"[-1, 'false', [5, 2, 5], 3, 2, 10, 'true']"
p1823
(lp1824
I25
aI25
aI32
aI28
asS"[-1, 'false', [1, 9, 2], 7, 35, 14, 'false']"
p1825
(lp1826
I33
aI12
aI20
aI23
asS"[-1, 'false', [2, 5, 5], 5, 30, 8, 'true']"
p1827
(lp1828
I33
aI40
aI27
aI19
asS"[-1, 'false', [0, 1, 11], 10, 36, 7, 'true']"
p1829
(lp1830
I28
asS"[-1, 'false', [3, 7, 2], 13, 9, 12, 'true']"
p1831
(lp1832
I24
aI26
aI19
aI22
asS"[-1, 'false', [4, 3, 5], 4, 24, 7, 'false']"
p1833
(lp1834
I33
aI37
aI33
aI33
asS"[-1, 'false', [3, 7, 2], 11, 24, 12, 'true']"
p1835
(lp1836
I27
aI25
aI23
aI21
asS"[-1, 'false', [5, 6, 1], 7, 40, 6, 'true']"
p1837
(lp1838
I22
aI17
aI20
aI11
asS"[-1, 'false', [3, 8, 1], 13, 47, 10, 'false']"
p1839
(lp1840
I7
asS"[-1, 'false', [3, 6, 3], 15, 11, 7, 'false']"
p1841
(lp1842
I21
asS"[-1, 'false', [3, 6, 3], 14, 37, 14, 'true']"
p1843
(lp1844
I13
asS"[-1, 'false', [9, 1, 2], 16, 25, 10, 'false']"
p1845
(lp1846
I30
aI24
aI22
aI19
asS"[-1, 'false', [4, 3, 5], 2, 45, 12, 'false']"
p1847
(lp1848
I31
aI22
aI32
aI37
asS"[-1, 'false', [1, 8, 3], 7, 37, 3, 'false']"
p1849
(lp1850
I42
aI26
aI41
aI28
asS"[-1, 'false', [0, 5, 7], 8, 8, 13, 'false']"
p1851
(lp1852
I22
aI24
aI26
aI35
asS"[-1, 'false', [5, 4, 3], 11, 13, 12, 'false']"
p1853
(lp1854
I26
aI20
aI30
aI19
asS"[-1, 'false', [2, 3, 7], 4, 11, 7, 'false']"
p1855
(lp1856
I32
aI39
aI23
aI44
asS"[-1, 'false', [6, 4, 2], 13, 31, 13, 'true']"
p1857
(lp1858
I25
aI23
aI26
aI18
asS"[-1, 'false', [5, 5, 2], 14, 31, 12, 'true']"
p1859
(lp1860
I17
aI27
aI22
aI16
asS"[-1, 'false', [10, 1, 1], 7, 33, 12, 'false']"
p1861
(lp1862
I27
aI16
aI20
aI35
asS"[-1, 'false', [1, 8, 3], 15, 11, 3, 'true']"
p1863
(lp1864
I27
aI29
aI36
aI37
asS"[-1, 'false', [1, 8, 3], 20, 12, 3, 'false']"
p1865
(lp1866
I36
aI43
aI34
aI26
asS"[-1, 'false', [6, 2, 4], 11, 2, 11, 'true']"
p1867
(lp1868
I33
aI31
aI26
aI29
asS"[-1, 'false', [2, 3, 7], 4, 19, 11, 'false']"
p1869
(lp1870
I32
aI32
aI31
aI31
asS"[-1, 'false', [1, 6, 5], 5, 11, 3, 'true']"
p1871
(lp1872
I44
aI27
aI47
aI38
asS"[-1, 'false', [3, 3, 6], 7, 13, 9, 'false']"
p1873
(lp1874
I37
aI31
aI25
aI29
asS"[-1, 'false', [3, 7, 2], 12, 26, 8, 'false']"
p1875
(lp1876
I24
aI17
aI24
aI26
asS"[-1, 'false', [3, 6, 3], 15, 6, 9, 'true']"
p1877
(lp1878
I25
aI25
aI19
aI23
asS"[-1, 'false', [1, 9, 2], 8, 39, 10, 'true']"
p1879
(lp1880
I18
aI20
aI40
aI16
asS"[-1, 'false', [6, 2, 4], 11, 24, 19, 'true']"
p1881
(lp1882
I20
aI31
aI13
aI23
asS"[-1, 'false', [5, 4, 3], 12, 19, 8, 'true']"
p1883
(lp1884
I21
asS"[-1, 'false', [1, 4, 7], 1, 5, 8, 'true']"
p1885
(lp1886
I37
aI33
aI29
aI29
asS"[-1, 'false', [4, 5, 3], 14, 31, 11, 'true']"
p1887
(lp1888
I32
aI16
aI26
aI17
asS"[-1, 'false', [6, 4, 2], 4, 24, 9, 'true']"
p1889
(lp1890
I21
asS"[-1, 'false', [0, 4, 8], 1, 15, 10, 'true']"
p1891
(lp1892
I44
aI38
aI19
aI37
asS"[-1, 'false', [4, 2, 6], 12, 8, 8, 'false']"
p1893
(lp1894
I35
asS"[-1, 'false', [2, 2, 8], 12, 31, 12, 'true']"
p1895
(lp1896
I21
aI18
asS"[-1, 'false', [5, 3, 4], 14, 7, 12, 'true']"
p1897
(lp1898
I29
aI29
aI30
aI26
asS"[-1, 'false', [5, 2, 5], 18, 28, 7, 'true']"
p1899
(lp1900
I15
aI24
aI28
aI18
asS"[-1, 'false', [8, 1, 3], 4, 35, 11, 'false']"
p1901
(lp1902
I38
aI36
aI30
aI39
asS"[-1, 'false', [0, 7, 5], 5, 30, 8, 'true']"
p1903
(lp1904
I39
aI30
aI38
aI35
asS"[-1, 'false', [1, 9, 2], 6, 21, 13, 'false']"
p1905
(lp1906
I25
asS"[-1, 'false', [5, 2, 5], 2, 47, 12, 'true']"
p1907
(lp1908
I42
aI24
aI40
aI23
asS"[-1, 'false', [7, 1, 4], 17, 32, 13, 'false']"
p1909
(lp1910
I31
aI28
aI21
aI29
asS"[-1, 'false', [1, 9, 2], 18, 12, 6, 'true']"
p1911
(lp1912
I15
aI18
aI16
aI18
asS"[-1, 'false', [0, 2, 10], 14, 40, 11, 'false']"
p1913
(lp1914
I31
aI21
aI26
aI31
asS"[-1, 'false', [3, 6, 3], 8, 37, 5, 'true']"
p1915
(lp1916
I21
aI17
aI19
aI29
asS"[-1, 'false', [7, 3, 2], 4, 28, 10, 'true']"
p1917
(lp1918
I16
aI19
aI35
aI39
asS"[-1, 'false', [7, 1, 4], 10, 33, 10, 'false']"
p1919
(lp1920
I33
aI26
aI35
aI40
asS"[-1, 'false', [6, 5, 1], 3, 42, 8, 'true']"
p1921
(lp1922
I9
aI12
aI14
aI15
asS"[-1, 'false', [2, 2, 8], 16, 23, 7, 'false']"
p1923
(lp1924
I28
aI27
aI18
aI21
asS"[-1, 'false', [0, 5, 7], 1, 30, 11, 'false']"
p1925
(lp1926
I28
aI34
aI34
aI40
asS"[-1, 'false', [5, 3, 4], 15, 12, 8, 'true']"
p1927
(lp1928
I31
asS"[-1, 'false', [4, 5, 3], 16, 17, 7, 'false']"
p1929
(lp1930
I29
asS"[-1, 'false', [8, 1, 3], 5, 44, 10, 'false']"
p1931
(lp1932
I27
aI32
aI28
aI20
asS"[-1, 'false', [1, 9, 2], 18, 10, 11, 'false']"
p1933
(lp1934
I22
aI15
aI24
aI24
asS"[-1, 'false', [3, 2, 7], 10, 23, 9, 'false']"
p1935
(lp1936
I35
aI28
aI25
aI35
asS"[-1, 'false', [0, 6, 6], 1, 21, 9, 'true']"
p1937
(lp1938
I44
aI40
aI28
aI30
asS"[-1, 'false', [6, 2, 4], 3, 30, 12, 'true']"
p1939
(lp1940
I28
aI33
aI12
aI41
asS"[-1, 'false', [1, 2, 9], 11, 49, 17, 'false']"
p1941
(lp1942
I21
asS"[-1, 'false', [2, 2, 8], 10, 22, 9, 'true']"
p1943
(lp1944
I23
aI27
aI21
aI34
asS"[-1, 'false', [6, 2, 4], 8, 33, 6, 'true']"
p1945
(lp1946
I34
aI22
aI31
aI27
asS"[-1, 'false', [3, 5, 4], 12, 35, 6, 'false']"
p1947
(lp1948
I17
aI22
aI35
aI26
asS"[-1, 'false', [2, 1, 9], 7, 2, 6, 'false']"
p1949
(lp1950
I27
aI20
aI19
aI34
asS"[-1, 'false', [8, 1, 3], 6, 7, 8, 'true']"
p1951
(lp1952
I27
aI27
aI28
aI33
asS"[-1, 'false', [1, 9, 2], 15, 17, 15, 'false']"
p1953
(lp1954
I30
aI22
aI17
aI21
asS"[-1, 'false', [4, 2, 6], 8, 6, 20, 'false']"
p1955
(lp1956
I23
aI31
aI22
aI25
asS"[-1, 'false', [3, 6, 3], 10, 32, 13, 'true']"
p1957
(lp1958
I40
aI22
aI28
aI35
asS"[-1, 'false', [3, 4, 5], 1, 45, 6, 'false']"
p1959
(lp1960
I23
aI29
aI28
aI27
asS"[-1, 'false', [9, 1, 2], 10, 10, 12, 'true']"
p1961
(lp1962
I27
aI24
asS"[-1, 'false', [8, 2, 2], 15, 25, 10, 'true']"
p1963
(lp1964
I27
aI21
aI20
aI27
asS"[-1, 'false', [2, 5, 5], 13, 28, 11, 'true']"
p1965
(lp1966
I18
aI20
aI26
aI21
asS"[-1, 'false', [4, 3, 5], 6, 21, 7, 'false']"
p1967
(lp1968
I20
aI36
aI36
aI32
asS"[-1, 'false', [4, 2, 6], 3, 2, 10, 'true']"
p1969
(lp1970
I34
aI25
aI25
aI27
asS"[-1, 'false', [2, 3, 7], 10, 23, 7, 'true']"
p1971
(lp1972
I36
aI25
aI25
aI30
asS"[-1, 'false', [1, 6, 5], 14, 42, 13, 'true']"
p1973
(lp1974
I17
asS"[-1, 'false', [4, 2, 6], 5, 30, 11, 'true']"
p1975
(lp1976
I30
aI45
aI28
aI30
asS"[-1, 'false', [4, 2, 6], 10, 23, 7, 'false']"
p1977
(lp1978
I30
aI27
aI33
aI27
asS"[-1, 'false', [6, 1, 5], 10, 19, 11, 'false']"
p1979
(lp1980
I27
aI32
aI22
aI31
asS"[-1, 'false', [0, 4, 8], 8, 4, 13, 'false']"
p1981
(lp1982
I25
aI25
aI26
aI23
asS"[-1, 'false', [0, 7, 5], 1, 18, 9, 'true']"
p1983
(lp1984
I29
aI51
aI36
aI38
asS"[-1, 'false', [5, 3, 4], 9, 24, 12, 'true']"
p1985
(lp1986
I21
aI41
aI28
aI27
asS"[-1, 'false', [8, 1, 3], 7, 33, 13, 'false']"
p1987
(lp1988
I45
aI20
aI18
aI27
asS"[-1, 'false', [4, 7, 1], 10, 1, 20, 'true']"
p1989
(lp1990
I22
aI27
aI21
aI19
asS"[-1, 'false', [5, 5, 2], 11, 11, 14, 'true']"
p1991
(lp1992
I24
aI23
aI22
aI24
asS"[-1, 'false', [9, 1, 2], 20, 37, 1, 'false']"
p1993
(lp1994
I27
aI21
aI31
aI33
asS"[-1, 'false', [6, 3, 3], 8, 10, 12, 'true']"
p1995
(lp1996
I25
asS"[-1, 'false', [3, 6, 3], 9, 41, 14, 'true']"
p1997
(lp1998
I13
aI13
aI18
aI30
asS"[-1, 'false', [8, 2, 2], 11, 26, 13, 'false']"
p1999
(lp2000
I37
aI26
aI32
aI20
asS"[-1, 'false', [3, 3, 6], 10, 23, 7, 'false']"
p2001
(lp2002
I26
aI28
aI14
aI32
asS"[-1, 'false', [5, 5, 2], 10, 13, 7, 'true']"
p2003
(lp2004
I17
aI17
aI27
aI25
asS"[-1, 'false', [8, 2, 2], 19, 36, 7, 'false']"
p2005
(lp2006
I21
aI12
aI8
aI18
asS"[-1, 'false', [5, 6, 1], 12, 26, 8, 'false']"
p2007
(lp2008
I18
aI22
aI22
aI15
asS"[-1, 'false', [5, 2, 5], 10, 10, 12, 'false']"
p2009
(lp2010
I29
aI21
asS"[-1, 'false', [3, 4, 5], 18, 16, 7, 'true']"
p2011
(lp2012
I31
aI20
aI18
aI20
asS"[-1, 'false', [6, 5, 1], 10, 15, 20, 'true']"
p2013
(lp2014
I20
aI20
aI19
aI18
asS"[-1, 'false', [1, 8, 3], 3, 4, 13, 'false']"
p2015
(lp2016
I20
asS"[-1, 'false', [6, 3, 3], 2, 42, 8, 'false']"
p2017
(lp2018
I21
aI21
aI29
aI34
asS"[-1, 'false', [1, 4, 7], 12, 31, 14, 'false']"
p2019
(lp2020
I32
asS"[-1, 'false', [1, 4, 7], 11, 49, 15, 'false']"
p2021
(lp2022
I14
asS"[-1, 'false', [1, 4, 7], 1, 5, 7, 'true']"
p2023
(lp2024
I33
aI31
aI44
aI44
asS"[-1, 'false', [0, 4, 8], 1, 23, 5, 'true']"
p2025
(lp2026
I50
aI45
aI43
aI34
asS"[-1, 'false', [5, 2, 5], 2, 26, 12, 'true']"
p2027
(lp2028
I30
aI21
aI23
aI37
asS"[-1, 'false', [5, 6, 1], 16, 16, 13, 'true']"
p2029
(lp2030
I17
aI25
aI20
aI19
asS"[-1, 'false', [3, 4, 5], 19, 3, 15, 'false']"
p2031
(lp2032
I21
aI28
aI21
aI23
asS"[-1, 'false', [9, 1, 2], 10, 24, 9, 'false']"
p2033
(lp2034
I25
aI20
aI19
aI42
asS"[-1, 'false', [6, 3, 3], 6, 23, 9, 'true']"
p2035
(lp2036
I38
aI23
aI31
aI33
asS"[-1, 'false', [6, 3, 3], 18, 15, 7, 'true']"
p2037
(lp2038
I21
asS"[-1, 'false', [4, 2, 6], 5, 19, 11, 'true']"
p2039
(lp2040
I32
aI23
aI33
aI26
asS"[-1, 'false', [2, 2, 8], 12, 31, 13, 'false']"
p2041
(lp2042
I22
asS"[-1, 'false', [1, 8, 3], 8, 12, 3, 'false']"
p2043
(lp2044
I41
aI23
aI34
aI37
asS"[-1, 'false', [6, 5, 1], 14, 17, 13, 'false']"
p2045
(lp2046
I24
asS"[-1, 'false', [9, 2, 1], 19, 43, 9, 'true']"
p2047
(lp2048
I16
aI13
aI10
aI25
asS"[-1, 'false', [4, 2, 6], 6, 49, 14, 'true']"
p2049
(lp2050
I11
aI32
aI35
aI30
asS"[-1, 'false', [5, 4, 3], 18, 17, 14, 'false']"
p2051
(lp2052
I22
aI23
aI29
aI28
asS"[-1, 'false', [6, 1, 5], 2, 47, 10, 'false']"
p2053
(lp2054
I39
aI43
aI28
aI36
asS"[-1, 'false', [4, 1, 7], 5, 26, 4, 'false']"
p2055
(lp2056
I45
aI33
aI41
aI47
asS"[-1, 'false', [5, 3, 4], 1, 23, 9, 'false']"
p2057
(lp2058
I32
aI43
aI32
aI37
asS"[-1, 'false', [2, 7, 3], 8, 37, 5, 'false']"
p2059
(lp2060
I22
aI22
aI20
aI17
asS"[-1, 'false', [7, 3, 2], 10, 10, 12, 'true']"
p2061
(lp2062
I32
asS"[-1, 'false', [8, 2, 2], 9, 31, 11, 'false']"
p2063
(lp2064
I38
aI23
aI30
aI25
asS"[-1, 'false', [3, 4, 5], 1, 15, 6, 'true']"
p2065
(lp2066
I30
aI25
aI38
aI40
asS"[-1, 'false', [2, 1, 9], 1, 23, 10, 'false']"
p2067
(lp2068
I29
aI44
aI44
aI29
asS"[-1, 'false', [5, 1, 6], 3, 16, 10, 'true']"
p2069
(lp2070
I33
aI34
aI27
aI19
asS"[-1, 'false', [8, 3, 1], 3, 42, 8, 'true']"
p2071
(lp2072
I15
aI15
aI18
aI21
asS"[-1, 'false', [3, 6, 3], 6, 14, 15, 'false']"
p2073
(lp2074
I31
aI33
aI20
aI32
asS"[-1, 'false', [4, 3, 5], 18, 16, 11, 'false']"
p2075
(lp2076
I22
aI33
aI21
aI20
asS"[-1, 'false', [3, 2, 7], 7, 30, 15, 'true']"
p2077
(lp2078
I28
aI35
aI31
aI19
asS"[-1, 'false', [0, 10, 2], 1, 18, 9, 'true']"
p2079
(lp2080
I23
aI27
aI34
aI31
asS"[-1, 'false', [3, 6, 3], 13, 24, 11, 'true']"
p2081
(lp2082
I19
asS"[-1, 'false', [8, 3, 1], 15, 40, 15, 'true']"
p2083
(lp2084
I28
asS"[-1, 'false', [4, 1, 7], 11, 8, 13, 'false']"
p2085
(lp2086
I22
aI25
aI26
aI24
asS"[-1, 'false', [6, 4, 2], 8, 39, 10, 'true']"
p2087
(lp2088
I36
aI24
aI16
aI23
asS"[-1, 'false', [5, 2, 5], 11, 24, 12, 'true']"
p2089
(lp2090
I22
aI28
aI26
aI33
asS"[-1, 'false', [1, 1, 10], 13, 49, 15, 'false']"
p2091
(lp2092
I44
aI29
asS"[-1, 'false', [0, 6, 6], 1, 9, 11, 'true']"
p2093
(lp2094
I29
aI30
aI42
aI30
asS"[-1, 'false', [2, 6, 4], 4, 41, 12, 'true']"
p2095
(lp2096
I36
aI35
aI27
aI23
asS"[-1, 'false', [2, 6, 4], 4, 12, 3, 'true']"
p2097
(lp2098
I39
aI36
aI38
aI48
asS"[-1, 'false', [5, 3, 4], 2, 7, 13, 'false']"
p2099
(lp2100
I33
aI32
aI33
aI39
asS"[-1, 'false', [0, 3, 9], 19, 43, 3, 'true']"
p2101
(lp2102
I43
aI29
aI37
aI42
asS"[-1, 'false', [1, 10, 1], 6, 5, 14, 'true']"
p2103
(lp2104
I24
aI31
aI29
aI27
asS"[-1, 'false', [7, 3, 2], 9, 45, 10, 'false']"
p2105
(lp2106
I18
aI28
aI14
aI23
asS"[-1, 'false', [10, 1, 1], 3, 28, 14, 'true']"
p2107
(lp2108
I31
aI26
aI27
aI33
asS"[-1, 'false', [5, 3, 4], 6, 7, 13, 'false']"
p2109
(lp2110
I28
aI29
aI36
aI28
asS"[-1, 'false', [3, 5, 4], 2, 20, 15, 'true']"
p2111
(lp2112
I32
aI32
aI18
aI40
asS"[-1, 'false', [2, 2, 8], 10, 23, 10, 'false']"
p2113
(lp2114
I27
aI29
aI29
aI26
asS"[-1, 'false', [7, 2, 3], 12, 45, 7, 'false']"
p2115
(lp2116
I23
aI26
aI25
aI12
asS"[-1, 'false', [4, 4, 4], 4, 1, 16, 'false']"
p2117
(lp2118
I28
aI36
aI25
aI23
asS"[-1, 'false', [3, 6, 3], 5, 25, 7, 'false']"
p2119
(lp2120
I21
aI33
asS"[-1, 'false', [0, 5, 7], 16, 2, 8, 'false']"
p2121
(lp2122
I34
aI23
aI26
aI19
asS"[-1, 'false', [1, 6, 5], 6, 14, 15, 'false']"
p2123
(lp2124
I27
aI27
aI35
aI29
asS"[-1, 'false', [5, 2, 5], 12, 24, 14, 'false']"
p2125
(lp2126
I25
asS"[-1, 'false', [1, 4, 7], 10, 23, 7, 'false']"
p2127
(lp2128
I29
aI20
aI15
aI32
asS"[-1, 'false', [2, 3, 7], 4, 12, 8, 'false']"
p2129
(lp2130
I31
aI24
aI23
aI40
asS"[-1, 'false', [4, 3, 5], 8, 11, 13, 'false']"
p2131
(lp2132
I22
asS"[-1, 'false', [3, 3, 6], 19, 30, 10, 'false']"
p2133
(lp2134
I7
aI26
aI23
aI15
asS"[-1, 'false', [3, 2, 7], 11, 43, 7, 'true']"
p2135
(lp2136
I30
aI31
aI31
aI23
asS"[-1, 'false', [6, 4, 2], 4, 15, 9, 'true']"
p2137
(lp2138
I31
aI21
aI21
aI9
asS"[-1, 'false', [4, 5, 3], 16, 1, 6, 'true']"
p2139
(lp2140
I24
aI23
aI30
aI21
asS"[-1, 'false', [4, 4, 4], 19, 12, 6, 'true']"
p2141
(lp2142
I22
asS"[-1, 'false', [5, 3, 4], 1, 15, 13, 'false']"
p2143
(lp2144
I33
aI40
aI31
aI26
asS"[-1, 'false', [2, 5, 5], 5, 35, 15, 'true']"
p2145
(lp2146
I23
aI27
aI18
aI26
asS"[-1, 'false', [5, 3, 4], 11, 24, 6, 'true']"
p2147
(lp2148
I24
aI29
aI37
aI26
asS"[-1, 'false', [6, 4, 2], 11, 27, 12, 'false']"
p2149
(lp2150
I23
aI18
aI14
aI24
asS"[-1, 'false', [0, 8, 4], 16, 11, 13, 'true']"
p2151
(lp2152
I25
asS"[-1, 'false', [1, 5, 6], 9, 17, 11, 'false']"
p2153
(lp2154
I20
aI24
asS"[-1, 'false', [2, 2, 8], 12, 23, 10, 'false']"
p2155
(lp2156
I22
aI19
aI31
aI29
asS"[-1, 'false', [4, 2, 6], 11, 32, 12, 'false']"
p2157
(lp2158
I38
aI22
aI24
aI28
asS"[-1, 'false', [2, 3, 7], 14, 22, 11, 'false']"
p2159
(lp2160
I31
aI19
aI24
aI33
asS"[-1, 'false', [2, 2, 8], 15, 4, 8, 'false']"
p2161
(lp2162
I30
aI29
aI28
aI32
asS"[-1, 'false', [4, 2, 6], 6, 23, 7, 'true']"
p2163
(lp2164
I35
aI30
aI29
aI26
asS"[-1, 'false', [1, 7, 4], 13, 11, 7, 'false']"
p2165
(lp2166
I25
asS"[-1, 'false', [2, 7, 3], 11, 47, 8, 'false']"
p2167
(lp2168
I17
asS"[-1, 'false', [5, 3, 4], 11, 7, 12, 'true']"
p2169
(lp2170
I28
aI20
aI33
aI36
asS"[-1, 'false', [5, 3, 4], 1, 12, 11, 'true']"
p2171
(lp2172
I34
aI31
aI36
aI35
asS"[-1, 'false', [4, 5, 3], 1, 8, 10, 'true']"
p2173
(lp2174
I35
aI31
aI27
aI26
asS"[-1, 'false', [5, 4, 3], 12, 28, 8, 'true']"
p2175
(lp2176
I27
asS"[-1, 'false', [2, 7, 3], 5, 23, 13, 'false']"
p2177
(lp2178
I38
aI17
aI29
aI20
asS"[-1, 'false', [4, 4, 4], 5, 21, 12, 'true']"
p2179
(lp2180
I31
aI35
aI36
aI17
asS"[-1, 'false', [0, 9, 3], 10, 35, 13, 'false']"
p2181
(lp2182
I28
aI23
aI10
aI12
asS"[-1, 'false', [3, 6, 3], 13, 34, 11, 'true']"
p2183
(lp2184
I17
aI23
aI19
aI23
asS"[-1, 'false', [2, 7, 3], 20, 44, 10, 'true']"
p2185
(lp2186
I9
aI18
aI6
aI12
asS"[-1, 'false', [7, 1, 4], 6, 24, 12, 'true']"
p2187
(lp2188
I41
aI25
aI35
aI25
asS"[-1, 'false', [1, 2, 9], 20, 41, 7, 'true']"
p2189
(lp2190
I5
aI43
aI18
aI12
asS"[-1, 'false', [7, 1, 4], 6, 24, 10, 'true']"
p2191
(lp2192
I28
aI34
aI32
aI22
asS"[-1, 'false', [4, 7, 1], 9, 1, 15, 'false']"
p2193
(lp2194
I27
aI24
aI34
aI35
asS"[-1, 'false', [6, 1, 5], 8, 19, 11, 'false']"
p2195
(lp2196
I24
aI32
aI43
aI23
asS"[-1, 'false', [0, 4, 8], 16, 8, 13, 'false']"
p2197
(lp2198
I33
aI21
aI21
aI23
asS"[-1, 'false', [1, 5, 6], 9, 24, 10, 'true']"
p2199
(lp2200
I41
aI24
aI33
aI29
asS"[-1, 'false', [4, 6, 2], 8, 24, 12, 'true']"
p2201
(lp2202
I18
aI19
aI20
aI23
asS"[-1, 'false', [3, 7, 2], 13, 45, 7, 'false']"
p2203
(lp2204
I16
aI18
aI10
aI21
asS"[-1, 'false', [3, 5, 4], 13, 9, 10, 'false']"
p2205
(lp2206
I19
aI30
aI32
aI24
asS"[-1, 'false', [0, 5, 7], 1, 18, 3, 'true']"
p2207
(lp2208
I46
aI22
aI26
aI36
asS"[-1, 'false', [0, 4, 8], 1, 8, 9, 'false']"
p2209
(lp2210
I34
aI32
aI33
aI31
asS"[-1, 'false', [10, 1, 1], 7, 32, 13, 'false']"
p2211
(lp2212
I22
aI16
aI14
aI15
asS"[-1, 'false', [0, 5, 7], 4, 18, 8, 'true']"
p2213
(lp2214
I22
aI36
aI31
aI53
asS"[-1, 'false', [3, 4, 5], 1, 45, 15, 'false']"
p2215
(lp2216
I22
aI27
aI35
aI27
asS"[-1, 'false', [7, 2, 3], 12, 24, 12, 'true']"
p2217
(lp2218
I24
aI23
aI21
aI13
asS"[-1, 'false', [3, 3, 6], 5, 21, 7, 'false']"
p2219
(lp2220
I29
aI38
aI33
aI36
asS"[-1, 'false', [9, 1, 2], 11, 26, 12, 'true']"
p2221
(lp2222
I23
aI24
aI26
aI25
asS"[-1, 'false', [2, 3, 7], 11, 16, 12, 'false']"
p2223
(lp2224
I35
aI31
aI33
aI27
asS"[-1, 'false', [5, 2, 5], 6, 30, 12, 'false']"
p2225
(lp2226
I21
aI23
aI35
aI37
asS"[-1, 'false', [3, 6, 3], 10, 1, 10, 'true']"
p2227
(lp2228
I25
aI23
aI30
aI32
asS"[-1, 'false', [2, 2, 8], 15, 3, 9, 'false']"
p2229
(lp2230
I29
aI24
aI21
aI32
asS"[-1, 'false', [4, 2, 6], 18, 29, 15, 'false']"
p2231
(lp2232
I29
aI23
aI30
aI18
asS"[-1, 'false', [8, 2, 2], 7, 22, 13, 'true']"
p2233
(lp2234
I28
aI31
aI25
aI29
asS"[-1, 'false', [4, 3, 5], 5, 28, 7, 'false']"
p2235
(lp2236
I33
aI29
aI31
aI25
asS"[-1, 'false', [5, 3, 4], 16, 11, 10, 'false']"
p2237
(lp2238
I37
asS"[-1, 'false', [1, 8, 3], 11, 12, 3, 'true']"
p2239
(lp2240
I22
aI48
aI44
aI43
asS"[-1, 'false', [9, 2, 1], 10, 10, 10, 'true']"
p2241
(lp2242
I16
asS"[-1, 'false', [9, 1, 2], 18, 40, 15, 'false']"
p2243
(lp2244
I20
aI20
aI25
aI12
asS"[-1, 'false', [6, 1, 5], 6, 35, 7, 'false']"
p2245
(lp2246
I27
asS"[-1, 'false', [6, 3, 3], 5, 3, 14, 'true']"
p2247
(lp2248
I24
aI34
aI26
aI30
asS"[-1, 'false', [6, 1, 5], 4, 16, 11, 'false']"
p2249
(lp2250
I34
aI36
aI23
aI29
asS"[-1, 'false', [9, 2, 1], 19, 43, 15, 'true']"
p2251
(lp2252
I30
aI15
aI10
aI11
asS"[-1, 'false', [10, 1, 1], 10, 37, 8, 'false']"
p2253
(lp2254
I23
aI22
aI23
aI11
asS"[-1, 'false', [1, 4, 7], 17, 29, 5, 'true']"
p2255
(lp2256
I7
aI4
aI15
aI11
asS"[-1, 'false', [6, 1, 5], 5, 16, 13, 'false']"
p2257
(lp2258
I28
aI26
aI36
aI27
asS"[-1, 'false', [2, 2, 8], 2, 23, 5, 'false']"
p2259
(lp2260
I48
aI33
aI41
aI42
asS"[-1, 'false', [2, 2, 8], 4, 23, 9, 'false']"
p2261
(lp2262
I28
aI35
aI33
aI51
asS"[-1, 'false', [4, 4, 4], 5, 30, 12, 'true']"
p2263
(lp2264
I25
aI26
aI23
aI28
asS"[-1, 'false', [6, 3, 3], 17, 16, 12, 'false']"
p2265
(lp2266
I18
aI23
aI31
aI22
asS"[-1, 'false', [1, 7, 4], 4, 41, 12, 'false']"
p2267
(lp2268
I26
aI27
aI23
aI38
asS"[-1, 'false', [3, 6, 3], 12, 12, 8, 'true']"
p2269
(lp2270
I20
asS"[-1, 'false', [5, 3, 4], 15, 24, 15, 'false']"
p2271
(lp2272
I20
aI21
aI15
aI27
asS"[-1, 'false', [1, 5, 6], 9, 15, 4, 'true']"
p2273
(lp2274
I48
aI37
aI40
aI28
asS"[-1, 'false', [3, 4, 5], 14, 10, 12, 'true']"
p2275
(lp2276
I29
aI36
aI25
aI23
asS"[-1, 'false', [3, 3, 6], 5, 23, 8, 'false']"
p2277
(lp2278
I33
aI22
aI31
aI39
asS"[-1, 'false', [3, 4, 5], 10, 23, 7, 'false']"
p2279
(lp2280
I30
aI20
aI24
aI20
asS"[-1, 'false', [4, 6, 2], 7, 18, 6, 'true']"
p2281
(lp2282
I23
aI22
aI27
aI26
asS"[-1, 'false', [3, 6, 3], 11, 47, 8, 'false']"
p2283
(lp2284
I24
aI17
asS"[-1, 'false', [4, 2, 6], 18, 15, 8, 'false']"
p2285
(lp2286
I33
aI29
aI15
aI21
asS"[-1, 'false', [7, 3, 2], 14, 21, 14, 'true']"
p2287
(lp2288
I12
aI35
aI22
aI20
asS"[-1, 'false', [4, 4, 4], 8, 22, 14, 'false']"
p2289
(lp2290
I24
aI18
aI24
aI28
asS"[-1, 'false', [5, 1, 6], 4, 38, 9, 'false']"
p2291
(lp2292
I24
aI20
aI28
aI31
asS"[-1, 'false', [2, 7, 3], 16, 11, 7, 'false']"
p2293
(lp2294
I24
asS"[-1, 'false', [0, 3, 9], 12, 8, 8, 'true']"
p2295
(lp2296
I16
asS"[-1, 'false', [4, 4, 4], 6, 3, 8, 'false']"
p2297
(lp2298
I28
aI30
aI41
aI23
asS"[-1, 'false', [2, 3, 7], 9, 47, 8, 'true']"
p2299
(lp2300
I24
aI28
aI10
aI32
asS"[-1, 'false', [2, 6, 4], 8, 37, 3, 'false']"
p2301
(lp2302
I36
aI35
aI29
aI20
asS"[-1, 'false', [6, 2, 4], 4, 1, 9, 'false']"
p2303
(lp2304
I17
aI32
aI16
aI19
asS"[-1, 'false', [4, 1, 7], 16, 6, 12, 'false']"
p2305
(lp2306
I24
aI33
aI28
aI22
asS"[-1, 'false', [9, 2, 1], 5, 26, 12, 'false']"
p2307
(lp2308
I22
aI31
aI21
aI21
asS"[-1, 'false', [10, 1, 1], 3, 50, 7, 'true']"
p2309
(lp2310
I20
aI25
aI31
aI28
asS"[-1, 'false', [5, 4, 3], 13, 43, 15, 'false']"
p2311
(lp2312
I30
aI24
aI25
aI26
asS"[-1, 'false', [0, 5, 7], 18, 12, 9, 'true']"
p2313
(lp2314
I11
aI14
aI14
aI18
asS"[-1, 'false', [6, 2, 4], 6, 33, 7, 'true']"
p2315
(lp2316
I38
aI33
aI30
aI41
asS"[-1, 'false', [3, 7, 2], 12, 30, 8, 'true']"
p2317
(lp2318
I20
aI22
aI26
aI7
asS"[-1, 'false', [0, 7, 5], 5, 45, 15, 'false']"
p2319
(lp2320
I18
aI25
aI30
aI24
asS"[-1, 'false', [4, 6, 2], 7, 6, 8, 'true']"
p2321
(lp2322
I31
aI27
aI24
aI28
asS"[-1, 'false', [3, 2, 7], 10, 35, 9, 'false']"
p2323
(lp2324
I30
aI24
aI27
aI17
asS"[-1, 'false', [0, 6, 6], 3, 41, 11, 'true']"
p2325
(lp2326
I38
aI36
aI26
aI34
asS"[-1, 'false', [0, 5, 7], 16, 8, 13, 'false']"
p2327
(lp2328
I27
aI24
aI26
aI22
asS"[-1, 'false', [0, 2, 10], 15, 27, 11, 'false']"
p2329
(lp2330
I30
asS"[-1, 'false', [3, 6, 3], 13, 48, 9, 'false']"
p2331
(lp2332
I7
aI16
aI29
aI10
asS"[-1, 'false', [8, 2, 2], 13, 42, 6, 'false']"
p2333
(lp2334
I19
aI27
aI22
aI43
asS"[-1, 'false', [2, 8, 2], 8, 37, 3, 'false']"
p2335
(lp2336
I27
aI34
aI39
aI35
asS"[-1, 'false', [6, 3, 3], 11, 24, 12, 'true']"
p2337
(lp2338
I17
aI21
aI32
aI27
asS"[-1, 'false', [3, 2, 7], 18, 9, 13, 'false']"
p2339
(lp2340
I22
aI24
aI25
aI27
aI26
asS"[-1, 'false', [1, 5, 6], 16, 50, 11, 'true']"
p2341
(lp2342
I15
aI19
aI10
aI11
asS"[-1, 'false', [1, 8, 3], 4, 32, 3, 'false']"
p2343
(lp2344
I25
aI25
aI53
aI41
asS"[-1, 'false', [3, 6, 3], 5, 29, 15, 'false']"
p2345
(lp2346
I27
aI25
aI25
aI21
asS"[-1, 'false', [4, 7, 1], 10, 1, 11, 'false']"
p2347
(lp2348
I16
aI28
aI30
aI26
asS"[-1, 'false', [3, 4, 5], 1, 39, 7, 'true']"
p2349
(lp2350
I29
aI26
aI38
aI42
asS"[-1, 'false', [3, 6, 3], 16, 11, 7, 'false']"
p2351
(lp2352
I24
asS"[-1, 'false', [4, 6, 2], 7, 27, 6, 'true']"
p2353
(lp2354
I21
aI29
aI18
aI24
asS"[-1, 'false', [0, 3, 9], 12, 8, 8, 'false']"
p2355
(lp2356
I34
aI25
asS"[-1, 'false', [6, 5, 1], 15, 37, 11, 'false']"
p2357
(lp2358
I13
aI24
aI19
aI13
asS"[-1, 'false', [5, 3, 4], 11, 17, 12, 'true']"
p2359
(lp2360
I26
aI27
aI21
aI34
asS"[-1, 'false', [4, 2, 6], 11, 16, 12, 'false']"
p2361
(lp2362
I19
aI31
aI24
aI37
asS"[-1, 'false', [1, 5, 6], 1, 15, 6, 'false']"
p2363
(lp2364
I33
aI30
aI47
aI45
asS"[-1, 'false', [2, 3, 7], 13, 23, 10, 'false']"
p2365
(lp2366
I31
aI29
aI28
aI27
asS"[-1, 'false', [6, 5, 1], 6, 11, 12, 'false']"
p2367
(lp2368
I27
aI25
aI22
aI20
asS"[-1, 'false', [4, 2, 6], 5, 19, 12, 'true']"
p2369
(lp2370
I25
aI31
aI26
aI20
asS"[-1, 'false', [8, 1, 3], 1, 7, 5, 'true']"
p2371
(lp2372
I36
aI30
aI36
aI18
asS"[-1, 'false', [2, 5, 5], 5, 30, 12, 'true']"
p2373
(lp2374
I30
aI31
aI24
aI24
asS"[-1, 'false', [1, 10, 1], 4, 43, 9, 'false']"
p2375
(lp2376
I14
aI33
aI10
asS"[-1, 'false', [8, 3, 1], 1, 24, 13, 'true']"
p2377
(lp2378
I19
aI21
aI14
aI23
asS"[-1, 'false', [5, 4, 3], 11, 17, 12, 'false']"
p2379
(lp2380
I18
aI16
aI27
aI22
asS"[-1, 'false', [1, 7, 4], 6, 14, 15, 'false']"
p2381
(lp2382
I26
aI22
aI38
aI23
asS"[-1, 'false', [0, 2, 10], 1, 12, 5, 'true']"
p2383
(lp2384
I37
aI44
aI43
aI37
asS"[-1, 'false', [2, 3, 7], 8, 6, 12, 'true']"
p2385
(lp2386
I30
aI28
aI27
aI29
asS"[-1, 'false', [10, 1, 1], 7, 35, 12, 'true']"
p2387
(lp2388
I23
aI26
aI29
aI20
aI21
aI20
aI33
aI36
aI13
asS"[-1, 'false', [6, 2, 4], 13, 2, 12, 'true']"
p2389
(lp2390
I21
aI34
aI30
aI27
asS"[-1, 'false', [1, 8, 3], 5, 12, 3, 'true']"
p2391
(lp2392
I43
aI46
aI45
aI40
asS"[-1, 'false', [8, 3, 1], 7, 24, 14, 'true']"
p2393
(lp2394
I11
aI16
aI18
aI21
asS"[-1, 'false', [7, 2, 3], 11, 12, 8, 'true']"
p2395
(lp2396
I21
aI30
aI28
aI25
asS"[-1, 'false', [5, 2, 5], 5, 12, 10, 'false']"
p2397
(lp2398
I21
aI23
aI37
aI23
asS"[-1, 'false', [1, 8, 3], 7, 37, 7, 'false']"
p2399
(lp2400
I21
aI33
aI21
aI9
asS"[-1, 'false', [1, 8, 3], 6, 32, 5, 'true']"
p2401
(lp2402
I31
aI19
aI23
aI22
asS"[-1, 'false', [4, 3, 5], 1, 12, 11, 'true']"
p2403
(lp2404
I35
aI28
aI45
aI22
asS"[-1, 'false', [6, 1, 5], 7, 20, 10, 'false']"
p2405
(lp2406
I32
aI33
asS"[-1, 'false', [1, 9, 2], 12, 12, 11, 'true']"
p2407
(lp2408
I29
aI35
aI28
aI18
asS"[-1, 'false', [1, 8, 3], 3, 12, 5, 'true']"
p2409
(lp2410
I25
aI36
aI26
aI27
asS"[-1, 'false', [5, 3, 4], 10, 16, 9, 'true']"
p2411
(lp2412
I36
aI27
aI20
aI27
asS"[-1, 'false', [1, 7, 4], 8, 11, 12, 'true']"
p2413
(lp2414
I27
aI25
aI30
aI30
asS"[-1, 'false', [6, 4, 2], 3, 37, 6, 'false']"
p2415
(lp2416
I22
asS"[-1, 'false', [2, 1, 9], 8, 19, 8, 'false']"
p2417
(lp2418
I33
aI46
aI24
aI31
asS"[-1, 'false', [0, 5, 7], 1, 8, 7, 'true']"
p2419
(lp2420
I43
aI35
aI45
aI27
asS"[-1, 'false', [3, 6, 3], 10, 4, 7, 'true']"
p2421
(lp2422
I24
aI22
aI28
aI18
asS"[-1, 'false', [9, 2, 1], 10, 27, 8, 'true']"
p2423
(lp2424
I26
aI16
aI28
aI26
asS"[-1, 'false', [5, 2, 5], 5, 10, 11, 'false']"
p2425
(lp2426
I45
aI27
aI24
aI38
asS"[-1, 'false', [0, 4, 8], 16, 8, 10, 'false']"
p2427
(lp2428
I25
aI12
aI18
aI28
asS"[-1, 'false', [4, 2, 6], 4, 23, 7, 'false']"
p2429
(lp2430
I35
aI33
aI32
aI29
asS"[-1, 'false', [8, 2, 2], 2, 40, 10, 'false']"
p2431
(lp2432
I19
aI20
aI20
aI18
asS"[-1, 'false', [0, 6, 6], 1, 15, 4, 'true']"
p2433
(lp2434
I44
aI32
aI40
aI47
asS"[-1, 'false', [6, 5, 1], 6, 8, 11, 'false']"
p2435
(lp2436
I28
aI17
aI26
aI28
asS"[-1, 'false', [6, 1, 5], 5, 23, 10, 'false']"
p2437
(lp2438
I25
aI43
aI24
aI33
asS"[-1, 'false', [0, 5, 7], 6, 5, 12, 'false']"
p2439
(lp2440
I31
aI29
aI35
aI23
asS"[-1, 'false', [7, 4, 1], 11, 41, 10, 'true']"
p2441
(lp2442
I16
aI19
aI26
aI9
asS"[-1, 'false', [1, 3, 8], 10, 23, 7, 'false']"
p2443
(lp2444
I26
aI29
aI28
aI16
asS"[-1, 'false', [3, 6, 3], 12, 44, 8, 'true']"
p2445
(lp2446
I11
aI16
aI20
aI7
asS"[-1, 'false', [1, 1, 10], 9, 49, 15, 'false']"
p2447
(lp2448
I31
asS"[-1, 'false', [8, 2, 2], 11, 33, 15, 'false']"
p2449
(lp2450
I18
aI20
aI25
aI13
asS"[-1, 'false', [8, 1, 3], 3, 8, 12, 'false']"
p2451
(lp2452
I24
aI32
aI32
aI35
asS"[-1, 'false', [5, 3, 4], 1, 7, 13, 'false']"
p2453
(lp2454
I38
aI32
aI33
aI29
asS"[-1, 'false', [5, 1, 6], 2, 30, 10, 'true']"
p2455
(lp2456
I39
aI45
aI28
aI44
asS"[-1, 'false', [5, 2, 5], 4, 20, 7, 'true']"
p2457
(lp2458
I25
aI29
aI39
aI38
asS"[-1, 'false', [7, 1, 4], 10, 24, 12, 'true']"
p2459
(lp2460
I27
aI20
aI28
aI36
asS"[-1, 'false', [1, 1, 10], 11, 22, 13, 'false']"
p2461
(lp2462
I27
aI22
aI37
aI52
asS"[-1, 'false', [6, 1, 5], 1, 22, 11, 'true']"
p2463
(lp2464
I26
aI29
aI20
aI25
asS"[-1, 'false', [7, 2, 3], 4, 23, 7, 'false']"
p2465
(lp2466
I36
aI33
aI36
aI26
asS"[-1, 'false', [0, 7, 5], 1, 45, 14, 'false']"
p2467
(lp2468
I25
aI46
aI31
aI35
asS"[-1, 'false', [1, 8, 3], 5, 12, 8, 'false']"
p2469
(lp2470
I26
aI40
aI28
aI30
asS"[-1, 'false', [2, 2, 8], 1, 23, 9, 'true']"
p2471
(lp2472
I28
aI42
aI28
aI42
asS"[-1, 'false', [4, 5, 3], 10, 35, 13, 'false']"
p2473
(lp2474
I17
aI22
aI24
aI13
asS"[-1, 'false', [1, 8, 3], 3, 12, 3, 'true']"
p2475
(lp2476
I48
aI37
aI32
aI41
asS"[-1, 'false', [6, 2, 4], 3, 33, 7, 'true']"
p2477
(lp2478
I32
aI24
aI26
aI24
asS"[-1, 'false', [2, 1, 9], 2, 23, 10, 'false']"
p2479
(lp2480
I44
aI33
aI28
aI34
asS"[-1, 'false', [2, 2, 8], 1, 12, 9, 'false']"
p2481
(lp2482
I30
aI45
aI37
aI47
asS"[-1, 'false', [2, 3, 7], 2, 14, 9, 'true']"
p2483
(lp2484
I44
aI23
aI36
aI33
asS"[-1, 'false', [1, 5, 6], 3, 4, 14, 'true']"
p2485
(lp2486
I23
aI29
aI25
aI27
asS"[-1, 'false', [0, 2, 10], 3, 23, 14, 'true']"
p2487
(lp2488
I35
aI25
aI33
aI34
asS"[-1, 'false', [0, 10, 2], 4, 33, 15, 'true']"
p2489
(lp2490
I33
aI25
aI27
aI29
asS"[-1, 'false', [2, 3, 7], 4, 14, 13, 'true']"
p2491
(lp2492
I25
aI38
aI33
aI32
asS"[-1, 'false', [0, 4, 8], 1, 9, 9, 'true']"
p2493
(lp2494
I29
aI38
aI40
aI26
asS"[-1, 'false', [5, 5, 2], 20, 5, 7, 'false']"
p2495
(lp2496
I18
aI18
aI16
aI8
asS"[-1, 'false', [4, 2, 6], 3, 16, 7, 'true']"
p2497
(lp2498
I27
aI27
aI34
aI22
asS"[-1, 'false', [3, 2, 7], 10, 35, 8, 'false']"
p2499
(lp2500
I28
aI17
aI20
aI24
asS"[-1, 'false', [7, 3, 2], 7, 33, 13, 'false']"
p2501
(lp2502
I28
aI26
aI30
aI22
asS"[-1, 'false', [7, 3, 2], 17, 16, 17, 'false']"
p2503
(lp2504
I16
aI24
asS"[-1, 'false', [2, 2, 8], 1, 23, 5, 'false']"
p2505
(lp2506
I24
aI35
aI44
aI45
asS"[-1, 'false', [9, 1, 2], 13, 5, 10, 'true']"
p2507
(lp2508
I27
aI24
aI21
aI26
asS"[-1, 'false', [10, 1, 1], 7, 24, 13, 'false']"
p2509
(lp2510
I15
aI23
aI33
aI22
asS"[-1, 'false', [8, 2, 2], 1, 21, 18, 'true']"
p2511
(lp2512
I27
aI23
aI30
aI25
asS"[-1, 'false', [6, 2, 4], 11, 7, 12, 'true']"
p2513
(lp2514
I30
aI30
aI25
aI24
asS"[-1, 'false', [3, 6, 3], 15, 28, 7, 'true']"
p2515
(lp2516
I17
aI20
aI15
aI20
asS"[-1, 'false', [4, 2, 6], 1, 21, 9, 'false']"
p2517
(lp2518
I34
aI30
aI37
aI20
asS"[-1, 'false', [4, 3, 5], 6, 23, 9, 'false']"
p2519
(lp2520
I28
aI29
aI34
aI29
asS"[-1, 'false', [2, 3, 7], 4, 39, 8, 'true']"
p2521
(lp2522
I37
aI24
aI29
aI30
asS"[-1, 'false', [0, 2, 10], 8, 20, 11, 'true']"
p2523
(lp2524
I32
asS"[-1, 'false', [2, 8, 2], 9, 37, 3, 'false']"
p2525
(lp2526
I34
aI26
aI37
aI23
asS"[-1, 'false', [2, 4, 6], 10, 23, 7, 'false']"
p2527
(lp2528
I29
aI31
aI20
aI20
asS"[-1, 'false', [0, 8, 4], 16, 11, 7, 'false']"
p2529
(lp2530
I17
aI24
aI19
aI22
aI34
aI15
aI17
aI25
asS"[-1, 'false', [1, 8, 3], 8, 37, 4, 'false']"
p2531
(lp2532
I38
aI38
aI29
aI31
asS"[-1, 'false', [2, 2, 8], 5, 23, 9, 'false']"
p2533
(lp2534
I30
aI29
aI26
aI36
asS"[-1, 'false', [6, 4, 2], 11, 32, 12, 'false']"
p2535
(lp2536
I22
aI17
aI18
aI20
asS"[-1, 'false', [5, 5, 2], 7, 39, 14, 'true']"
p2537
(lp2538
I18
aI13
aI28
aI17
asS"[-1, 'false', [2, 2, 8], 2, 23, 9, 'false']"
p2539
(lp2540
I28
aI44
aI36
aI27
asS"[-1, 'false', [5, 3, 4], 7, 13, 9, 'false']"
p2541
(lp2542
I26
aI32
aI36
aI29
asS"[-1, 'false', [7, 2, 3], 9, 32, 3, 'false']"
p2543
(lp2544
I27
aI36
aI33
aI28
asS"[-1, 'false', [7, 1, 4], 11, 24, 13, 'false']"
p2545
(lp2546
I25
aI22
aI25
aI38
asS"[-1, 'false', [0, 5, 7], 14, 22, 15, 'false']"
p2547
(lp2548
I24
aI22
aI24
aI19
asS"[-1, 'false', [7, 4, 1], 13, 8, 8, 'true']"
p2549
(lp2550
I27
aI29
aI20
aI22
asS"[-1, 'false', [1, 8, 3], 8, 11, 3, 'false']"
p2551
(lp2552
I44
aI35
aI35
aI36
asS"[-1, 'false', [9, 1, 2], 17, 8, 11, 'false']"
p2553
(lp2554
I28
aI27
aI30
aI28
asS"[-1, 'false', [2, 7, 3], 2, 29, 13, 'true']"
p2555
(lp2556
I24
aI26
aI21
aI34
asS"[-1, 'false', [4, 5, 3], 18, 13, 14, 'false']"
p2557
(lp2558
I31
aI24
aI30
aI24
asS"[-1, 'false', [3, 7, 2], 5, 11, 3, 'true']"
p2559
(lp2560
I33
aI28
aI17
aI44
asS"[-1, 'false', [5, 1, 6], 4, 19, 6, 'true']"
p2561
(lp2562
I35
aI24
aI28
aI31
asS"[-1, 'false', [5, 3, 4], 11, 24, 10, 'true']"
p2563
(lp2564
I27
aI28
aI24
aI34
asS"[-1, 'false', [4, 3, 5], 19, 39, 12, 'true']"
p2565
(lp2566
I9
aI23
aI18
aI22
asS"[-1, 'false', [8, 2, 2], 20, 33, 6, 'true']"
p2567
(lp2568
I18
aI21
aI13
aI13
asS"[-1, 'false', [7, 1, 4], 6, 31, 9, 'false']"
p2569
(lp2570
I37
aI31
aI42
aI35
asS"[-1, 'false', [5, 1, 6], 5, 30, 10, 'true']"
p2571
(lp2572
I31
aI31
aI28
aI26
asS"[-1, 'false', [4, 4, 4], 11, 26, 10, 'false']"
p2573
(lp2574
I22
aI26
aI29
aI29
asS"[-1, 'false', [5, 2, 5], 2, 47, 10, 'true']"
p2575
(lp2576
I30
aI31
aI41
aI26
asS"[-1, 'false', [8, 1, 3], 5, 34, 10, 'false']"
p2577
(lp2578
I31
aI28
aI29
aI33
asS"[-1, 'false', [0, 9, 3], 4, 18, 15, 'true']"
p2579
(lp2580
I30
aI32
aI41
aI31
asS"[-1, 'false', [3, 3, 6], 19, 23, 9, 'false']"
p2581
(lp2582
I26
aI26
aI14
aI21
asS"[-1, 'false', [4, 2, 6], 11, 24, 12, 'true']"
p2583
(lp2584
I31
aI22
aI27
aI32
asS"[-1, 'false', [5, 2, 5], 11, 24, 13, 'true']"
p2585
(lp2586
I29
aI33
aI25
aI26
asS"[-1, 'false', [3, 7, 2], 13, 9, 10, 'false']"
p2587
(lp2588
I22
aI20
aI23
aI19
asS"[-1, 'false', [3, 7, 2], 16, 4, 14, 'false']"
p2589
(lp2590
I23
asS"[-1, 'false', [4, 3, 5], 8, 24, 12, 'true']"
p2591
(lp2592
I35
aI24
aI38
aI37
asS"[-1, 'false', [5, 5, 2], 7, 32, 10, 'false']"
p2593
(lp2594
I25
aI28
aI13
aI24
asS"[-1, 'false', [4, 6, 2], 8, 36, 6, 'false']"
p2595
(lp2596
I23
asS"[-1, 'false', [2, 4, 6], 5, 31, 10, 'true']"
p2597
(lp2598
I37
aI31
aI25
aI30
asS"[-1, 'false', [2, 2, 8], 10, 11, 7, 'false']"
p2599
(lp2600
I32
aI21
aI27
aI34
asS"[-1, 'false', [5, 1, 6], 3, 1, 12, 'true']"
p2601
(lp2602
I26
aI34
aI25
aI28
asS"[-1, 'false', [4, 5, 3], 8, 6, 12, 'false']"
p2603
(lp2604
I19
aI26
aI27
aI17
asS"[-1, 'false', [3, 4, 5], 9, 24, 8, 'true']"
p2605
(lp2606
I25
aI30
aI19
aI26
asS"[-1, 'false', [1, 5, 6], 1, 18, 9, 'true']"
p2607
(lp2608
I41
aI43
aI35
aI33
asS"[-1, 'false', [9, 1, 2], 16, 5, 10, 'false']"
p2609
(lp2610
I20
aI25
aI24
aI20
asS"[-1, 'false', [6, 1, 5], 5, 16, 11, 'false']"
p2611
(lp2612
I47
aI33
aI34
aI22
asS"[-1, 'false', [4, 3, 5], 18, 16, 7, 'true']"
p2613
(lp2614
I32
aI19
aI18
aI16
asS"[-1, 'false', [10, 1, 1], 17, 16, 17, 'false']"
p2615
(lp2616
I27
asS"[-1, 'false', [8, 1, 3], 11, 24, 6, 'false']"
p2617
(lp2618
I21
aI23
aI20
aI26
asS"[-1, 'false', [4, 2, 6], 9, 42, 13, 'false']"
p2619
(lp2620
I19
aI12
aI36
aI18
asS"[-1, 'false', [3, 7, 2], 19, 7, 12, 'false']"
p2621
(lp2622
I14
aI16
aI25
aI19
asS"[-1, 'false', [4, 4, 4], 7, 6, 14, 'true']"
p2623
(lp2624
I26
aI23
aI22
aI21
asS"[-1, 'false', [9, 1, 2], 16, 5, 10, 'true']"
p2625
(lp2626
I31
aI30
aI31
aI34
asS"[-1, 'false', [3, 7, 2], 15, 27, 9, 'true']"
p2627
(lp2628
I13
aI17
aI29
aI15
asS"[-1, 'false', [1, 3, 8], 5, 43, 11, 'false']"
p2629
(lp2630
I35
aI29
aI33
aI29
asS"[-1, 'false', [3, 7, 2], 9, 22, 6, 'true']"
p2631
(lp2632
I11
aI12
aI20
aI16
asS"[-1, 'false', [1, 8, 3], 6, 11, 6, 'false']"
p2633
(lp2634
I19
aI28
aI24
aI34
asS"[-1, 'false', [4, 1, 7], 18, 50, 12, 'false']"
p2635
(lp2636
I19
aI21
aI15
aI20
asS"[-1, 'false', [2, 2, 8], 15, 19, 9, 'false']"
p2637
(lp2638
I28
aI32
aI27
aI17
asS"[-1, 'false', [0, 4, 8], 7, 15, 8, 'false']"
p2639
(lp2640
I29
aI21
aI29
aI26
asS"[-1, 'false', [8, 2, 2], 7, 35, 12, 'true']"
p2641
(lp2642
I22
asS"[-1, 'false', [5, 5, 2], 9, 16, 10, 'false']"
p2643
(lp2644
I23
aI15
aI31
aI26
asS"[-1, 'false', [4, 2, 6], 12, 47, 8, 'true']"
p2645
(lp2646
I36
aI21
aI21
aI26
asS"[-1, 'false', [6, 3, 3], 17, 1, 6, 'true']"
p2647
(lp2648
I37
aI23
aI21
aI25
asS"[-1, 'false', [4, 6, 2], 15, 17, 19, 'true']"
p2649
(lp2650
I24
aI16
aI17
aI14
asS"[-1, 'false', [4, 2, 6], 12, 49, 15, 'true']"
p2651
(lp2652
I23
asS"[-1, 'false', [6, 5, 1], 18, 5, 11, 'true']"
p2653
(lp2654
I21
aI18
aI24
aI20
aI19
aI25
aI27
aI28
aI22
aI20
aI23
aI25
aI20
aI22
asS"[-1, 'false', [5, 2, 5], 8, 17, 9, 'false']"
p2655
(lp2656
I21
aI23
aI27
aI31
asS"[-1, 'false', [3, 6, 3], 7, 10, 5, 'true']"
p2657
(lp2658
I29
aI28
aI29
aI28
asS"[-1, 'false', [10, 1, 1], 7, 33, 13, 'false']"
p2659
(lp2660
I26
aI27
aI28
aI29
asS"[-1, 'false', [0, 5, 7], 5, 9, 14, 'true']"
p2661
(lp2662
I30
aI30
aI29
aI37
asS"[-1, 'false', [9, 1, 2], 19, 37, 9, 'false']"
p2663
(lp2664
I22
aI20
aI16
aI24
asS"[-1, 'false', [3, 6, 3], 12, 31, 14, 'true']"
p2665
(lp2666
I29
asS"[-1, 'false', [0, 3, 9], 11, 13, 7, 'false']"
p2667
(lp2668
I26
aI28
aI26
aI26
asS"[-1, 'false', [9, 2, 1], 6, 23, 9, 'false']"
p2669
(lp2670
I17
aI37
aI26
aI20
asS"[-1, 'false', [4, 3, 5], 1, 1, 9, 'false']"
p2671
(lp2672
I28
aI33
aI22
aI35
asS"[-1, 'false', [6, 2, 4], 6, 23, 9, 'false']"
p2673
(lp2674
I24
aI20
aI25
aI35
asS"[-1, 'false', [4, 3, 5], 10, 24, 8, 'true']"
p2675
(lp2676
I24
aI20
aI15
aI26
asS"[-1, 'false', [2, 1, 9], 11, 24, 12, 'true']"
p2677
(lp2678
I29
aI25
aI32
aI28
asS"[-1, 'false', [5, 1, 6], 5, 49, 10, 'true']"
p2679
(lp2680
I24
aI28
aI31
aI33
asS"[-1, 'false', [5, 3, 4], 3, 7, 15, 'false']"
p2681
(lp2682
I30
aI30
aI30
aI25
asS"[-1, 'false', [3, 3, 6], 18, 29, 15, 'false']"
p2683
(lp2684
I27
aI13
aI22
aI26
asS"[-1, 'false', [8, 1, 3], 13, 32, 13, 'true']"
p2685
(lp2686
I33
aI34
aI35
aI27
asS"[-1, 'false', [5, 6, 1], 14, 19, 14, 'true']"
p2687
(lp2688
I24
aI12
aI20
aI28
asS"[-1, 'false', [3, 6, 3], 10, 20, 7, 'true']"
p2689
(lp2690
I19
aI13
aI32
aI11
asS"[-1, 'false', [4, 2, 6], 3, 11, 19, 'true']"
p2691
(lp2692
I21
aI25
aI24
aI27
asS"[-1, 'false', [2, 2, 8], 4, 19, 11, 'false']"
p2693
(lp2694
I31
aI22
aI42
aI32
asS"[-1, 'false', [0, 10, 2], 3, 19, 13, 'false']"
p2695
(lp2696
I30
asS"[-1, 'false', [5, 5, 2], 10, 39, 14, 'true']"
p2697
(lp2698
I20
aI32
aI24
aI8
asS"[-1, 'false', [5, 3, 4], 11, 26, 10, 'false']"
p2699
(lp2700
I30
aI33
aI27
aI31
asS"[-1, 'false', [6, 4, 2], 11, 37, 10, 'true']"
p2701
(lp2702
I26
asS"[-1, 'false', [7, 3, 2], 7, 35, 12, 'true']"
p2703
(lp2704
I21
asS"[-1, 'false', [5, 2, 5], 6, 7, 13, 'false']"
p2705
(lp2706
I21
aI30
aI31
aI29
asS"[-1, 'false', [9, 2, 1], 7, 35, 12, 'true']"
p2707
(lp2708
I20
aI21
asS"[-1, 'false', [4, 1, 7], 3, 43, 10, 'true']"
p2709
(lp2710
I31
asS"[-1, 'false', [6, 4, 2], 12, 45, 7, 'false']"
p2711
(lp2712
I11
aI12
aI23
aI10
asS"[-1, 'false', [3, 3, 6], 10, 48, 13, 'false']"
p2713
(lp2714
I23
aI22
aI23
aI36
asS"[-1, 'false', [9, 2, 1], 13, 25, 7, 'true']"
p2715
(lp2716
I26
aI24
aI10
aI27
asS"[-1, 'false', [10, 1, 1], 3, 12, 8, 'true']"
p2717
(lp2718
I28
aI23
aI22
aI23
asS"[-1, 'false', [7, 1, 4], 8, 24, 12, 'true']"
p2719
(lp2720
I34
aI25
aI24
aI26
asS"[-1, 'false', [2, 5, 5], 14, 8, 15, 'true']"
p2721
(lp2722
I23
aI32
aI31
aI30
asS"[-1, 'false', [3, 3, 6], 4, 23, 11, 'false']"
p2723
(lp2724
I24
aI31
aI37
aI37
asS"[-1, 'false', [2, 3, 7], 4, 23, 7, 'true']"
p2725
(lp2726
I31
aI31
aI41
aI45
asS"[-1, 'false', [1, 7, 4], 6, 12, 3, 'true']"
p2727
(lp2728
I40
aI33
aI39
aI43
asS"[-1, 'false', [2, 8, 2], 1, 18, 9, 'true']"
p2729
(lp2730
I32
aI18
aI22
aI35
asS"[-1, 'false', [8, 1, 3], 5, 10, 10, 'false']"
p2731
(lp2732
I31
aI24
aI30
aI23
asS"[-1, 'false', [4, 1, 7], 19, 29, 10, 'true']"
p2733
(lp2734
I11
asS"[-1, 'false', [1, 6, 5], 1, 45, 15, 'false']"
p2735
(lp2736
I29
aI27
aI30
aI18
asS"[-1, 'false', [1, 7, 4], 7, 38, 14, 'false']"
p2737
(lp2738
I28
aI32
aI54
aI22
asS"[-1, 'false', [1, 6, 5], 5, 23, 13, 'false']"
p2739
(lp2740
I46
aI18
aI26
aI26
asS"[-1, 'false', [8, 2, 2], 6, 8, 14, 'false']"
p2741
(lp2742
I23
aI26
aI24
aI20
asS"[-1, 'false', [6, 1, 5], 4, 13, 9, 'false']"
p2743
(lp2744
I31
aI23
aI26
aI33
asS"[-1, 'false', [5, 4, 3], 10, 29, 9, 'false']"
p2745
(lp2746
I18
aI24
aI34
aI18
asS"[-1, 'false', [3, 5, 4], 8, 22, 14, 'false']"
p2747
(lp2748
I23
aI28
aI32
aI22
asS"[-1, 'false', [1, 5, 6], 11, 24, 8, 'true']"
p2749
(lp2750
I28
aI26
aI22
aI30
asS"[-1, 'false', [5, 2, 5], 10, 17, 12, 'false']"
p2751
(lp2752
I24
aI17
aI27
asS"[-1, 'false', [5, 3, 4], 11, 17, 12, 'false']"
p2753
(lp2754
I23
aI29
aI39
aI28
asS"[-1, 'false', [2, 6, 4], 2, 23, 13, 'true']"
p2755
(lp2756
I32
aI37
aI28
aI41
asS"[-1, 'false', [1, 8, 3], 5, 13, 3, 'true']"
p2757
(lp2758
I35
aI27
aI32
aI38
asS"[-1, 'false', [4, 1, 7], 4, 38, 15, 'true']"
p2759
(lp2760
I38
aI40
aI32
aI30
asS"[-1, 'false', [2, 1, 9], 14, 29, 14, 'true']"
p2761
(lp2762
I26
aI21
aI27
aI21
asS"[-1, 'false', [1, 2, 9], 13, 3, 15, 'false']"
p2763
(lp2764
I28
aI29
aI28
aI32
asS"[-1, 'false', [0, 5, 7], 1, 22, 11, 'true']"
p2765
(lp2766
I31
aI32
aI41
aI43
asS"[-1, 'false', [6, 1, 5], 8, 17, 8, 'false']"
p2767
(lp2768
I28
aI30
aI26
aI20
asS"[-1, 'false', [5, 2, 5], 3, 10, 19, 'false']"
p2769
(lp2770
I26
aI28
aI34
aI25
asS"[-1, 'false', [1, 6, 5], 11, 39, 14, 'true']"
p2771
(lp2772
I14
aI16
aI16
aI26
asS"[-1, 'false', [2, 2, 8], 3, 23, 9, 'true']"
p2773
(lp2774
I36
aI39
aI41
aI33
asS"[-1, 'false', [3, 7, 2], 16, 4, 13, 'true']"
p2775
(lp2776
I30
asS"[-1, 'false', [0, 5, 7], 1, 18, 8, 'true']"
p2777
(lp2778
I35
aI44
aI34
aI38
asS"[-1, 'false', [5, 1, 6], 15, 9, 8, 'true']"
p2779
(lp2780
I25
aI24
aI21
aI25
asS"[-1, 'false', [1, 8, 3], 11, 46, 14, 'true']"
p2781
(lp2782
I25
aI17
aI23
aI26
asS"[-1, 'false', [9, 1, 2], 17, 11, 11, 'false']"
p2783
(lp2784
I19
aI20
aI15
aI17
asS"[-1, 'false', [4, 1, 7], 13, 23, 7, 'false']"
p2785
(lp2786
I17
aI23
aI21
aI33
asS"[-1, 'false', [4, 4, 4], 2, 7, 13, 'false']"
p2787
(lp2788
I27
aI29
aI26
aI17
asS"[-1, 'false', [4, 2, 6], 13, 23, 7, 'false']"
p2789
(lp2790
I20
aI23
aI20
aI26
asS"[-1, 'false', [1, 6, 5], 8, 19, 11, 'false']"
p2791
(lp2792
I38
aI34
aI39
aI32
asS"[-1, 'false', [1, 8, 3], 10, 17, 8, 'false']"
p2793
(lp2794
I27
aI31
aI28
aI38
asS"[-1, 'false', [10, 1, 1], 7, 28, 12, 'true']"
p2795
(lp2796
I26
asS"[-1, 'false', [1, 2, 9], 2, 7, 12, 'false']"
p2797
(lp2798
I34
aI33
aI29
aI22
asS"[-1, 'false', [5, 3, 4], 6, 33, 7, 'true']"
p2799
(lp2800
I27
aI38
aI31
aI35
asS"[-1, 'false', [2, 7, 3], 13, 30, 10, 'false']"
p2801
(lp2802
I15
aI34
aI29
aI24
asS"[-1, 'false', [4, 6, 2], 1, 45, 7, 'true']"
p2803
(lp2804
I22
aI26
aI31
aI33
asS"[-1, 'false', [3, 4, 5], 5, 33, 15, 'true']"
p2805
(lp2806
I29
aI30
aI33
aI36
asS"[-1, 'false', [2, 8, 2], 1, 18, 11, 'true']"
p2807
(lp2808
I23
aI24
aI22
aI33
asS"[-1, 'false', [4, 3, 5], 4, 16, 9, 'false']"
p2809
(lp2810
I35
aI27
aI36
aI38
asS"[-1, 'false', [5, 5, 2], 12, 13, 7, 'true']"
p2811
(lp2812
I33
aI24
aI30
aI30
asS"[-1, 'false', [5, 3, 4], 3, 8, 11, 'false']"
p2813
(lp2814
I26
aI27
aI21
aI30
asS"[-1, 'false', [3, 5, 4], 1, 18, 9, 'true']"
p2815
(lp2816
I34
aI17
aI46
aI30
asS"[-1, 'false', [4, 2, 6], 4, 38, 15, 'true']"
p2817
(lp2818
I31
aI29
aI37
aI33
asS"[-1, 'false', [2, 8, 2], 8, 32, 3, 'false']"
p2819
(lp2820
I30
aI27
aI28
aI27
asS"[-1, 'false', [4, 3, 5], 9, 24, 8, 'true']"
p2821
(lp2822
I26
aI17
aI31
aI32
asS"[-1, 'false', [3, 8, 1], 12, 10, 11, 'false']"
p2823
(lp2824
I14
aI21
aI16
aI27
asS"[-1, 'false', [1, 3, 8], 5, 43, 18, 'false']"
p2825
(lp2826
I34
aI32
aI31
aI23
asS"[-1, 'false', [4, 6, 2], 20, 26, 4, 'false']"
p2827
(lp2828
I34
aI24
aI38
aI34
asS"[-1, 'false', [1, 7, 4], 6, 6, 3, 'true']"
p2829
(lp2830
I35
aI43
aI36
aI35
asS"[-1, 'false', [4, 3, 5], 8, 26, 12, 'false']"
p2831
(lp2832
I25
aI23
aI32
aI27
asS"[-1, 'false', [2, 1, 9], 16, 23, 10, 'false']"
p2833
(lp2834
I19
aI33
aI28
aI20
asS"[-1, 'false', [4, 5, 3], 16, 11, 7, 'false']"
p2835
(lp2836
I28
aI21
aI21
asS"[-1, 'false', [5, 1, 6], 10, 16, 8, 'true']"
p2837
(lp2838
I19
aI26
aI31
aI28
asS"[-1, 'false', [4, 7, 1], 10, 1, 8, 'false']"
p2839
(lp2840
I34
aI28
aI28
aI23
asS"[-1, 'false', [5, 4, 3], 11, 50, 14, 'false']"
p2841
(lp2842
I30
aI21
aI24
aI14
asS"[-1, 'false', [3, 3, 6], 1, 23, 9, 'false']"
p2843
(lp2844
I32
aI26
aI34
aI37
asS"[-1, 'false', [7, 4, 1], 12, 41, 7, 'true']"
p2845
(lp2846
I21
aI24
aI15
aI16
asS"[-1, 'false', [5, 1, 6], 4, 38, 15, 'false']"
p2847
(lp2848
I25
aI28
aI28
aI29
asS"[-1, 'false', [3, 2, 7], 4, 48, 12, 'false']"
p2849
(lp2850
I32
aI30
aI33
aI26
asS"[-1, 'false', [4, 3, 5], 12, 8, 8, 'false']"
p2851
(lp2852
I25
aI25
aI35
asS"[-1, 'false', [3, 1, 8], 4, 23, 9, 'false']"
p2853
(lp2854
I19
aI28
aI35
aI28
asS"[-1, 'false', [2, 5, 5], 1, 45, 12, 'true']"
p2855
(lp2856
I41
aI38
aI34
aI36
asS"[-1, 'false', [3, 3, 6], 3, 40, 14, 'false']"
p2857
(lp2858
I30
aI23
aI26
aI25
asS"[-1, 'false', [6, 2, 4], 7, 35, 17, 'true']"
p2859
(lp2860
I24
aI28
asS"[-1, 'false', [5, 2, 5], 2, 47, 9, 'false']"
p2861
(lp2862
I32
aI35
aI26
aI34
asS"[-1, 'false', [3, 2, 7], 18, 15, 8, 'false']"
p2863
(lp2864
I22
aI20
aI11
aI20
asS"[-1, 'false', [7, 1, 4], 7, 20, 10, 'false']"
p2865
(lp2866
I35
asS"[-1, 'false', [4, 2, 6], 9, 39, 13, 'false']"
p2867
(lp2868
I30
aI30
aI34
aI22
asS"[-1, 'false', [6, 1, 5], 5, 28, 11, 'true']"
p2869
(lp2870
I38
aI31
aI30
aI31
asS"[-1, 'false', [4, 2, 6], 9, 23, 7, 'false']"
p2871
(lp2872
I30
aI24
aI24
aI40
asS"[-1, 'false', [2, 3, 7], 6, 23, 9, 'true']"
p2873
(lp2874
I27
aI32
aI39
aI28
asS"[-1, 'false', [3, 3, 6], 17, 33, 13, 'false']"
p2875
(lp2876
I19
aI19
aI23
aI16
asS"[-1, 'false', [0, 2, 10], 8, 2, 8, 'false']"
p2877
(lp2878
I25
aI31
aI21
aI32
asS"[-1, 'false', [4, 6, 2], 5, 26, 4, 'false']"
p2879
(lp2880
I41
aI39
aI39
aI25
asS"[-1, 'false', [2, 6, 4], 5, 12, 3, 'true']"
p2881
(lp2882
I38
aI23
aI43
aI40
asS"[-1, 'false', [5, 3, 4], 3, 10, 11, 'true']"
p2883
(lp2884
I30
aI29
aI23
aI28
asS"[-1, 'false', [2, 7, 3], 8, 37, 5, 'true']"
p2885
(lp2886
I17
aI22
aI16
aI25
asS"[-1, 'false', [1, 3, 8], 4, 23, 9, 'false']"
p2887
(lp2888
I22
aI21
aI31
aI35
asS"[-1, 'false', [5, 4, 3], 8, 8, 4, 'false']"
p2889
(lp2890
I28
aI30
aI24
aI29
asS"[-1, 'false', [3, 6, 3], 6, 19, 15, 'false']"
p2891
(lp2892
I24
aI30
aI30
aI32
asS"[-1, 'false', [2, 3, 7], 12, 25, 14, 'true']"
p2893
(lp2894
I34
asS"[-1, 'false', [9, 2, 1], 3, 15, 9, 'true']"
p2895
(lp2896
I28
aI34
aI28
aI28
asS"[-1, 'false', [0, 5, 7], 8, 8, 11, 'false']"
p2897
(lp2898
I28
aI21
aI27
aI37
asS"[-1, 'false', [8, 1, 3], 8, 38, 11, 'false']"
p2899
(lp2900
I28
aI31
aI37
aI33
asS"[-1, 'false', [7, 1, 4], 5, 16, 11, 'false']"
p2901
(lp2902
I24
aI25
aI29
aI29
asS"[-1, 'false', [7, 3, 2], 1, 1, 3, 'true']"
p2903
(lp2904
I26
aI29
aI27
aI18
asS"[-1, 'false', [0, 4, 8], 1, 12, 3, 'true']"
p2905
(lp2906
I39
aI29
aI25
aI30
asS"[-1, 'false', [4, 2, 6], 5, 23, 7, 'false']"
p2907
(lp2908
I25
aI39
aI33
aI28
asS"[-1, 'false', [5, 3, 4], 1, 15, 12, 'false']"
p2909
(lp2910
I30
aI40
aI29
aI35
asS"[-1, 'false', [6, 2, 4], 2, 47, 12, 'false']"
p2911
(lp2912
I31
aI32
aI33
aI34
asS"[-1, 'false', [3, 6, 3], 8, 10, 3, 'true']"
p2913
(lp2914
I27
aI41
aI27
aI36
asS"[-1, 'false', [4, 2, 6], 12, 16, 9, 'false']"
p2915
(lp2916
I38
aI26
aI38
aI23
asS"[-1, 'false', [10, 1, 1], 8, 17, 13, 'false']"
p2917
(lp2918
I28
aI24
aI18
aI21
asS"[-1, 'false', [7, 3, 2], 17, 14, 10, 'false']"
p2919
(lp2920
I24
asS"[-1, 'false', [5, 3, 4], 6, 47, 10, 'false']"
p2921
(lp2922
I17
aI20
aI20
aI31
asS"[-1, 'false', [5, 1, 6], 3, 32, 10, 'true']"
p2923
(lp2924
I39
aI30
aI42
aI31
asS"[-1, 'false', [5, 2, 5], 12, 9, 12, 'true']"
p2925
(lp2926
I32
aI32
aI42
aI22
asS"[-1, 'false', [6, 5, 1], 5, 39, 12, 'true']"
p2927
(lp2928
I11
aI20
aI17
aI7
asS"[-1, 'false', [5, 2, 5], 11, 5, 12, 'false']"
p2929
(lp2930
I26
aI28
aI22
aI28
asS"[-1, 'false', [3, 2, 7], 9, 23, 7, 'false']"
p2931
(lp2932
I24
aI36
aI36
aI25
asS"[-1, 'false', [2, 2, 8], 2, 22, 9, 'false']"
p2933
(lp2934
I28
aI34
aI35
aI34
asS"[-1, 'false', [3, 4, 5], 10, 49, 13, 'false']"
p2935
(lp2936
I27
aI32
aI20
aI32
asS"[-1, 'false', [4, 2, 6], 14, 32, 12, 'true']"
p2937
(lp2938
I34
aI31
aI20
aI32
asS"[-1, 'false', [0, 4, 8], 3, 15, 2, 'true']"
p2939
(lp2940
I52
aI40
aI37
aI54
asS"[-1, 'false', [1, 3, 8], 1, 15, 7, 'false']"
p2941
(lp2942
I24
aI44
aI37
aI33
asS"[-1, 'false', [2, 3, 7], 3, 23, 9, 'false']"
p2943
(lp2944
I29
aI34
aI19
aI36
asS"[-1, 'false', [4, 6, 2], 16, 43, 11, 'false']"
p2945
(lp2946
I18
aI18
aI14
aI9
asS"[-1, 'false', [8, 2, 2], 2, 40, 6, 'false']"
p2947
(lp2948
I19
aI34
aI26
aI33
asS"[-1, 'false', [3, 6, 3], 12, 21, 8, 'false']"
p2949
(lp2950
I29
asS"[-1, 'false', [6, 2, 4], 6, 11, 8, 'false']"
p2951
(lp2952
I30
aI29
aI29
aI34
asS"[-1, 'false', [9, 1, 2], 10, 33, 10, 'false']"
p2953
(lp2954
I29
aI36
aI28
aI25
asS"[-1, 'false', [1, 5, 6], 10, 23, 7, 'false']"
p2955
(lp2956
I29
aI20
aI47
aI22
asS"[-1, 'false', [2, 5, 5], 1, 22, 11, 'false']"
p2957
(lp2958
I39
aI38
aI32
aI25
asS"[-1, 'false', [7, 2, 3], 11, 24, 12, 'true']"
p2959
(lp2960
I27
aI30
aI20
aI22
asS"[-1, 'false', [5, 3, 4], 10, 1, 9, 'true']"
p2961
(lp2962
I31
aI29
aI34
aI28
asS"[-1, 'false', [4, 4, 4], 5, 39, 8, 'true']"
p2963
(lp2964
I32
aI31
aI31
aI40
asS"[-1, 'false', [4, 3, 5], 16, 3, 13, 'true']"
p2965
(lp2966
I30
asS"[-1, 'false', [0, 4, 8], 1, 15, 9, 'false']"
p2967
(lp2968
I33
aI43
aI30
aI25
asS"[-1, 'false', [5, 4, 3], 1, 22, 11, 'true']"
p2969
(lp2970
I27
aI30
aI33
aI24
asS"[-1, 'false', [4, 7, 1], 10, 1, 15, 'false']"
p2971
(lp2972
I23
aI29
aI25
aI23
asS"[-1, 'false', [3, 4, 5], 10, 18, 13, 'false']"
p2973
(lp2974
I29
aI27
aI30
aI30
asS"[-1, 'false', [1, 8, 3], 10, 18, 3, 'false']"
p2975
(lp2976
I32
aI34
aI37
aI24
asS"[-1, 'false', [1, 8, 3], 3, 12, 6, 'true']"
p2977
(lp2978
I33
aI42
aI29
aI35
asS"[-1, 'false', [8, 1, 3], 10, 2, 6, 'true']"
p2979
(lp2980
I24
aI26
aI29
aI22
asS"[-1, 'false', [8, 2, 2], 8, 31, 11, 'false']"
p2981
(lp2982
I24
aI18
aI12
aI33
asS"[-1, 'false', [5, 2, 5], 5, 10, 19, 'false']"
p2983
(lp2984
I26
aI31
aI21
aI30
asS"[-1, 'false', [5, 1, 6], 18, 18, 13, 'true']"
p2985
(lp2986
I27
aI28
aI35
aI27
asS"[-1, 'false', [2, 2, 8], 17, 22, 5, 'false']"
p2987
(lp2988
I12
aI22
aI22
aI15
asS"[-1, 'false', [2, 2, 8], 13, 23, 7, 'false']"
p2989
(lp2990
I22
aI16
aI24
aI22
asS"[-1, 'false', [1, 10, 1], 1, 43, 6, 'true']"
p2991
(lp2992
I26
aI19
aI16
aI29
asS"[-1, 'false', [1, 7, 4], 13, 49, 14, 'false']"
p2993
(lp2994
I19
asS"[-1, 'false', [6, 1, 5], 1, 17, 13, 'true']"
p2995
(lp2996
I25
aI40
aI27
aI28
asS"[-1, 'false', [1, 8, 3], 3, 22, 5, 'true']"
p2997
(lp2998
I38
aI30
aI32
aI35
asS"[-1, 'false', [4, 4, 4], 10, 1, 20, 'false']"
p2999
(lp3000
I24
aI30
aI31
aI22
asS"[-1, 'false', [4, 4, 4], 9, 24, 6, 'true']"
p3001
(lp3002
I29
aI25
aI28
aI27
asS"[-1, 'false', [1, 4, 7], 10, 10, 10, 'true']"
p3003
(lp3004
I31
aI21
aI28
aI36
asS"[-1, 'false', [5, 6, 1], 3, 41, 11, 'true']"
p3005
(lp3006
I22
aI13
aI16
aI26
asS"[-1, 'false', [6, 5, 1], 14, 21, 7, 'false']"
p3007
(lp3008
I14
aI19
aI21
aI16
asS"[-1, 'false', [2, 7, 3], 9, 32, 9, 'true']"
p3009
(lp3010
I32
aI26
aI27
aI21
asS"[-1, 'false', [0, 11, 1], 10, 23, 7, 'false']"
p3011
(lp3012
I19
aI30
aI9
aI11
asS"[-1, 'false', [6, 2, 4], 11, 24, 12, 'false']"
p3013
(lp3014
I31
aI27
aI24
aI32
asS"[-1, 'false', [2, 4, 6], 6, 23, 7, 'false']"
p3015
(lp3016
I28
aI26
aI33
aI38
asS"[-1, 'false', [3, 4, 5], 12, 31, 13, 'true']"
p3017
(lp3018
I34
aI23
asS"[-1, 'false', [4, 4, 4], 1, 21, 10, 'true']"
p3019
(lp3020
I23
aI28
aI35
aI28
asS"[-1, 'false', [2, 2, 8], 2, 23, 5, 'true']"
p3021
(lp3022
I21
aI43
aI40
aI39
asS"[-1, 'false', [6, 5, 1], 11, 27, 10, 'false']"
p3023
(lp3024
I25
aI21
aI20
aI19
asS"[-1, 'false', [0, 6, 6], 18, 20, 12, 'true']"
p3025
(lp3026
I19
aI19
aI17
aI19
asS"[-1, 'false', [4, 4, 4], 11, 39, 8, 'true']"
p3027
(lp3028
I27
aI18
aI20
aI31
asS"[-1, 'false', [4, 6, 2], 4, 26, 18, 'false']"
p3029
(lp3030
I26
aI22
aI18
aI20
asS"[-1, 'false', [6, 1, 5], 17, 38, 15, 'false']"
p3031
(lp3032
I26
aI28
aI21
aI26
asS"[-1, 'false', [0, 10, 2], 4, 41, 12, 'true']"
p3033
(lp3034
I24
aI21
aI15
aI27
asS"[-1, 'false', [5, 1, 6], 5, 19, 11, 'true']"
p3035
(lp3036
I28
aI28
aI31
aI30
asS"[-1, 'false', [8, 3, 1], 2, 39, 14, 'true']"
p3037
(lp3038
I29
aI18
asS"[-1, 'false', [0, 5, 7], 1, 9, 14, 'true']"
p3039
(lp3040
I36
aI37
aI39
aI34
asS"[-1, 'false', [2, 2, 8], 12, 31, 14, 'false']"
p3041
(lp3042
I35
aI24
aI27
aI25
aI31
aI33
aI26
aI29
aI26
asS"[-1, 'false', [4, 6, 2], 5, 24, 12, 'false']"
p3043
(lp3044
I28
aI22
aI22
aI19
asS"[-1, 'false', [0, 3, 9], 11, 13, 5, 'false']"
p3045
(lp3046
I32
aI33
aI19
aI19
asS"[-1, 'false', [1, 8, 3], 9, 30, 10, 'true']"
p3047
(lp3048
I22
aI14
aI35
aI13
asS"[-1, 'false', [2, 4, 6], 5, 6, 12, 'false']"
p3049
(lp3050
I26
aI18
aI32
aI24
asS"[-1, 'false', [6, 1, 5], 4, 35, 11, 'false']"
p3051
(lp3052
I30
aI29
aI31
aI23
asS"[-1, 'false', [4, 2, 6], 4, 31, 16, 'true']"
p3053
(lp3054
I25
aI36
aI39
aI27
asS"[-1, 'false', [6, 5, 1], 1, 37, 11, 'true']"
p3055
(lp3056
I7
aI26
aI25
aI15
asS"[-1, 'false', [7, 3, 2], 1, 37, 10, 'true']"
p3057
(lp3058
I22
aI26
aI12
aI25
asS"[-1, 'false', [4, 6, 2], 16, 4, 13, 'false']"
p3059
(lp3060
I19
asS"[-1, 'false', [0, 9, 3], 13, 47, 6, 'true']"
p3061
(lp3062
I11
aI8
aI12
aI12
asS"[-1, 'false', [3, 3, 6], 3, 10, 8, 'false']"
p3063
(lp3064
I33
asS"[-1, 'false', [0, 4, 8], 18, 12, 7, 'true']"
p3065
(lp3066
I18
aI19
aI16
aI15
asS"[-1, 'false', [6, 2, 4], 10, 27, 7, 'true']"
p3067
(lp3068
I20
aI36
aI26
aI28
asS"[-1, 'false', [0, 1, 11], 17, 4, 11, 'true']"
p3069
(lp3070
I23
aI27
aI22
aI26
asS"[-1, 'false', [3, 4, 5], 9, 24, 5, 'true']"
p3071
(lp3072
I33
aI27
aI24
aI24
asS"[-1, 'false', [1, 7, 4], 3, 5, 14, 'true']"
p3073
(lp3074
I34
aI26
aI35
aI26
asS"[-1, 'false', [4, 1, 7], 4, 1, 12, 'true']"
p3075
(lp3076
I27
aI16
aI23
aI21
asS"[-1, 'false', [5, 1, 6], 7, 35, 12, 'true']"
p3077
(lp3078
I32
asS"[-1, 'false', [5, 2, 5], 11, 7, 12, 'true']"
p3079
(lp3080
I30
aI42
aI26
aI31
asS"[-1, 'false', [7, 3, 2], 4, 12, 6, 'true']"
p3081
(lp3082
I20
aI32
aI30
aI28
asS"[-1, 'false', [4, 3, 5], 5, 29, 10, 'true']"
p3083
(lp3084
I24
aI34
aI31
aI33
asS"[-1, 'false', [1, 8, 3], 10, 12, 3, 'true']"
p3085
(lp3086
I28
aI39
aI29
aI33
asS"[-1, 'false', [3, 7, 2], 16, 4, 13, 'false']"
p3087
(lp3088
I22
aI19
aI25
aI25
aI32
aI22
aI25
aI19
asS"[-1, 'false', [0, 5, 7], 1, 8, 16, 'false']"
p3089
(lp3090
I26
aI36
aI27
aI37
asS"[-1, 'false', [6, 2, 4], 10, 16, 12, 'true']"
p3091
(lp3092
I28
aI35
aI19
aI22
asS"[-1, 'false', [4, 1, 7], 19, 20, 11, 'false']"
p3093
(lp3094
I11
aI21
aI27
aI22
asS"[-1, 'false', [2, 1, 9], 7, 23, 9, 'false']"
p3095
(lp3096
I36
aI32
aI27
aI34
asS"[-1, 'false', [9, 1, 2], 15, 25, 10, 'true']"
p3097
(lp3098
I26
aI31
aI20
aI23
asS"[-1, 'false', [4, 5, 3], 11, 21, 15, 'true']"
p3099
(lp3100
I22
aI25
aI21
aI20
asS"[-1, 'false', [4, 6, 2], 14, 24, 11, 'false']"
p3101
(lp3102
I18
aI12
aI22
aI18
asS"[-1, 'false', [5, 3, 4], 3, 10, 11, 'false']"
p3103
(lp3104
I30
aI26
aI33
aI23
asS"[-1, 'false', [1, 6, 5], 7, 38, 14, 'false']"
p3105
(lp3106
I26
aI34
aI29
aI28
asS"[-1, 'false', [6, 1, 5], 2, 50, 15, 'true']"
p3107
(lp3108
I44
aI23
aI26
aI21
asS"[-1, 'false', [0, 7, 5], 18, 10, 12, 'false']"
p3109
(lp3110
I26
aI29
aI22
aI20
asS"[-1, 'false', [7, 1, 4], 16, 2, 11, 'true']"
p3111
(lp3112
I28
aI32
aI25
aI27
asS"[-1, 'false', [0, 4, 8], 10, 10, 10, 'true']"
p3113
(lp3114
I35
aI35
aI30
aI28
asS"[-1, 'false', [5, 5, 2], 15, 17, 15, 'true']"
p3115
(lp3116
I21
aI24
aI20
aI20
asS"[-1, 'false', [9, 2, 1], 12, 13, 15, 'true']"
p3117
(lp3118
I27
asS"[-1, 'false', [1, 4, 7], 19, 36, 13, 'true']"
p3119
(lp3120
I12
aI22
aI12
aI13
asS"[-1, 'false', [6, 3, 3], 2, 42, 9, 'false']"
p3121
(lp3122
I29
aI31
aI29
aI34
asS"[-1, 'false', [5, 3, 4], 11, 2, 12, 'true']"
p3123
(lp3124
I26
aI20
aI27
aI26
asS"[-1, 'false', [6, 4, 2], 10, 17, 12, 'true']"
p3125
(lp3126
I24
asS"[-1, 'false', [7, 3, 2], 12, 8, 8, 'true']"
p3127
(lp3128
I24
aI25
asS"[-1, 'false', [1, 6, 5], 2, 47, 12, 'false']"
p3129
(lp3130
I32
aI20
aI31
aI15
asS"[-1, 'false', [7, 4, 1], 8, 5, 7, 'false']"
p3131
(lp3132
I26
aI21
aI21
aI22
asS"[-1, 'false', [0, 5, 7], 12, 27, 8, 'true']"
p3133
(lp3134
I29
aI17
aI26
aI30
asS"[-1, 'false', [0, 4, 8], 1, 9, 9, 'false']"
p3135
(lp3136
I32
aI25
aI43
aI19
asS"[-1, 'false', [9, 2, 1], 3, 15, 9, 'false']"
p3137
(lp3138
I27
aI25
aI29
aI35
asS"[-1, 'false', [5, 2, 5], 2, 14, 10, 'true']"
p3139
(lp3140
I27
aI36
aI29
aI29
asS"[-1, 'false', [0, 5, 7], 20, 5, 7, 'true']"
p3141
(lp3142
I26
aI26
aI23
aI24
asS"[-1, 'false', [3, 3, 6], 5, 23, 2, 'false']"
p3143
(lp3144
I22
aI21
aI45
aI39
asS"[-1, 'false', [1, 7, 4], 18, 1, 15, 'true']"
p3145
(lp3146
I25
aI26
aI30
aI28
asS"[-1, 'false', [9, 1, 2], 4, 43, 11, 'true']"
p3147
(lp3148
I28
asS"[-1, 'false', [4, 3, 5], 11, 11, 6, 'true']"
p3149
(lp3150
I16
aI22
aI25
aI25
asS"[-1, 'false', [0, 5, 7], 8, 4, 13, 'false']"
p3151
(lp3152
I26
aI28
aI22
aI26
asS"[-1, 'false', [3, 2, 7], 15, 15, 8, 'false']"
p3153
(lp3154
I19
aI24
aI24
aI23
asS"[-1, 'false', [6, 3, 3], 14, 31, 12, 'false']"
p3155
(lp3156
I20
aI22
aI28
aI27
asS"[-1, 'false', [4, 3, 5], 3, 20, 12, 'false']"
p3157
(lp3158
I27
aI27
aI38
aI30
asS"[-1, 'false', [7, 2, 3], 13, 45, 7, 'false']"
p3159
(lp3160
I21
aI24
aI21
aI16
asS"[-1, 'false', [5, 4, 3], 6, 11, 19, 'false']"
p3161
(lp3162
I26
aI22
aI21
aI31
asS"[-1, 'false', [8, 1, 3], 8, 19, 11, 'false']"
p3163
(lp3164
I25
aI31
aI35
aI32
asS"[-1, 'false', [10, 1, 1], 6, 50, 9, 'true']"
p3165
(lp3166
I29
aI26
aI26
aI28
asS"[-1, 'false', [5, 3, 4], 12, 31, 14, 'false']"
p3167
(lp3168
I16
asS"[-1, 'false', [3, 3, 6], 3, 49, 14, 'false']"
p3169
(lp3170
I29
aI27
aI33
aI24
asS"[-1, 'false', [4, 4, 4], 12, 20, 14, 'true']"
p3171
(lp3172
I17
aI21
aI20
aI11
asS"[-1, 'false', [6, 1, 5], 12, 20, 9, 'false']"
p3173
(lp3174
I29
aI23
aI18
aI30
asS"[-1, 'false', [0, 5, 7], 5, 26, 9, 'false']"
p3175
(lp3176
I37
aI23
aI34
aI31
asS"[-1, 'false', [9, 2, 1], 11, 23, 9, 'false']"
p3177
(lp3178
I28
aI24
aI11
aI18
asS"[-1, 'false', [4, 4, 4], 10, 30, 12, 'true']"
p3179
(lp3180
I25
aI20
aI29
aI28
asS"[-1, 'false', [2, 6, 4], 13, 9, 10, 'false']"
p3181
(lp3182
I14
aI25
aI39
aI32
asS"[-1, 'false', [5, 2, 5], 6, 6, 12, 'false']"
p3183
(lp3184
I33
aI33
aI27
aI25
asS"[-1, 'false', [2, 1, 9], 2, 5, 5, 'false']"
p3185
(lp3186
I29
aI24
aI32
aI27
asS"[-1, 'false', [5, 2, 5], 1, 7, 12, 'false']"
p3187
(lp3188
I19
aI28
aI20
aI39
asS"[-1, 'false', [7, 2, 3], 13, 12, 10, 'true']"
p3189
(lp3190
I31
aI22
aI23
aI23
asS"[-1, 'false', [2, 1, 9], 9, 19, 13, 'false']"
p3191
(lp3192
I31
aI30
aI31
aI20
asS"[-1, 'false', [1, 3, 8], 1, 18, 9, 'true']"
p3193
(lp3194
I33
aI36
aI43
aI30
asS"[-1, 'false', [2, 1, 9], 10, 32, 6, 'false']"
p3195
(lp3196
I31
aI25
aI28
aI42
asS"[-1, 'false', [6, 4, 2], 1, 22, 3, 'true']"
p3197
(lp3198
I26
aI38
aI27
aI38
asS"[-1, 'false', [0, 5, 7], 1, 18, 7, 'true']"
p3199
(lp3200
I41
aI30
aI51
aI32
asS"[-1, 'false', [2, 7, 3], 9, 8, 6, 'true']"
p3201
(lp3202
I28
aI21
aI30
aI31
asS"[-1, 'false', [9, 2, 1], 8, 43, 9, 'true']"
p3203
(lp3204
I23
aI23
aI15
aI28
asS"[-1, 'false', [2, 2, 8], 12, 23, 9, 'false']"
p3205
(lp3206
I32
aI27
aI34
aI28
asS"[-1, 'false', [4, 2, 6], 8, 6, 12, 'false']"
p3207
(lp3208
I25
aI33
aI34
aI31
asS"[-1, 'false', [9, 2, 1], 6, 50, 7, 'false']"
p3209
(lp3210
I9
aI17
aI18
aI23
asS"[-1, 'false', [4, 2, 6], 11, 9, 12, 'false']"
p3211
(lp3212
I29
aI29
aI23
aI27
asS"[-1, 'false', [2, 7, 3], 5, 11, 3, 'false']"
p3213
(lp3214
I48
aI39
aI45
aI37
asS"[-1, 'false', [6, 1, 5], 5, 17, 8, 'true']"
p3215
(lp3216
I37
aI25
aI31
aI42
asS"[-1, 'false', [8, 2, 2], 12, 33, 6, 'true']"
p3217
(lp3218
I24
aI13
aI20
aI32
asS"[-1, 'false', [3, 5, 4], 7, 8, 14, 'true']"
p3219
(lp3220
I23
aI33
aI31
aI29
asS"[-1, 'false', [0, 5, 7], 12, 18, 8, 'true']"
p3221
(lp3222
I29
aI26
aI33
aI22
asS"[-1, 'false', [2, 2, 8], 13, 39, 7, 'false']"
p3223
(lp3224
I10
asS"[-1, 'false', [10, 1, 1], 9, 14, 7, 'false']"
p3225
(lp3226
I23
asS"[-1, 'false', [2, 1, 9], 4, 15, 6, 'false']"
p3227
(lp3228
I33
aI35
aI39
aI38
asS"[-1, 'false', [2, 8, 2], 3, 29, 11, 'true']"
p3229
(lp3230
I27
asS"[-1, 'false', [0, 6, 6], 16, 11, 7, 'false']"
p3231
(lp3232
I31
asS"[-1, 'false', [1, 5, 6], 7, 13, 4, 'false']"
p3233
(lp3234
I53
aI45
aI42
aI28
asS"[-1, 'false', [5, 2, 5], 3, 14, 10, 'true']"
p3235
(lp3236
I30
aI30
aI28
aI42
asS"[-1, 'false', [3, 1, 8], 7, 29, 13, 'true']"
p3237
(lp3238
I18
asS"[-1, 'false', [2, 1, 9], 7, 43, 15, 'false']"
p3239
(lp3240
I46
aI31
aI32
aI41
asS"[-1, 'false', [4, 3, 5], 9, 39, 13, 'false']"
p3241
(lp3242
I21
aI16
aI18
aI25
asS"[-1, 'false', [1, 7, 4], 6, 13, 3, 'true']"
p3243
(lp3244
I45
aI38
aI33
aI31
asS"[-1, 'false', [7, 2, 3], 4, 7, 7, 'true']"
p3245
(lp3246
I32
aI24
aI25
aI32
asS"[-1, 'false', [5, 2, 5], 4, 23, 11, 'false']"
p3247
(lp3248
I29
aI33
aI28
aI33
asS"[-1, 'false', [5, 3, 4], 5, 8, 11, 'false']"
p3249
(lp3250
I31
aI22
aI29
aI32
asS"[-1, 'false', [3, 1, 8], 4, 21, 11, 'false']"
p3251
(lp3252
I33
aI29
aI33
aI40
asS"[-1, 'false', [4, 1, 7], 18, 11, 10, 'true']"
p3253
(lp3254
I23
asS"[-1, 'false', [4, 4, 4], 5, 13, 1, 'true']"
p3255
(lp3256
I37
aI39
aI29
aI36
asS"[-1, 'false', [5, 3, 4], 11, 25, 10, 'false']"
p3257
(lp3258
I25
aI19
aI21
aI30
asS"[-1, 'false', [4, 1, 7], 4, 8, 13, 'false']"
p3259
(lp3260
I34
aI23
aI13
aI39
asS"[-1, 'false', [1, 8, 3], 7, 20, 20, 'false']"
p3261
(lp3262
I36
aI14
aI24
aI28
asS"[-1, 'false', [3, 3, 6], 3, 10, 11, 'true']"
p3263
(lp3264
I34
aI29
aI32
aI27
asS"[-1, 'false', [2, 5, 5], 2, 26, 9, 'true']"
p3265
(lp3266
I32
aI35
aI34
aI31
asS"[-1, 'false', [9, 2, 1], 7, 17, 9, 'true']"
p3267
(lp3268
I19
asS"[-1, 'false', [0, 5, 7], 1, 8, 10, 'true']"
p3269
(lp3270
I32
aI45
aI37
aI22
asS"[-1, 'false', [0, 9, 3], 4, 33, 15, 'true']"
p3271
(lp3272
I15
aI27
aI30
aI25
asS"[-1, 'false', [3, 5, 4], 4, 24, 7, 'false']"
p3273
(lp3274
I38
aI34
aI32
aI38
asS"[-1, 'false', [3, 7, 2], 12, 45, 7, 'false']"
p3275
(lp3276
I15
aI16
aI9
aI18
asS"[-1, 'false', [5, 1, 6], 7, 45, 9, 'false']"
p3277
(lp3278
I26
aI27
aI33
aI35
asS"[-1, 'false', [3, 7, 2], 15, 16, 9, 'true']"
p3279
(lp3280
I21
aI12
aI22
aI23
asS"[-1, 'false', [5, 3, 4], 11, 26, 13, 'true']"
p3281
(lp3282
I25
aI21
aI22
aI22
asS"[-1, 'false', [1, 10, 1], 7, 35, 12, 'true']"
p3283
(lp3284
I11
asS"[-1, 'false', [0, 5, 7], 1, 22, 9, 'true']"
p3285
(lp3286
I33
aI47
aI41
aI38
asS"[-1, 'false', [8, 1, 3], 1, 7, 4, 'true']"
p3287
(lp3288
I22
aI28
aI23
aI25
asS"[-1, 'false', [5, 1, 6], 3, 49, 10, 'true']"
p3289
(lp3290
I36
aI27
aI32
aI37
asS"[-1, 'false', [5, 3, 4], 16, 20, 15, 'false']"
p3291
(lp3292
I19
aI24
aI14
aI27
asS"[-1, 'false', [5, 2, 5], 4, 20, 7, 'false']"
p3293
(lp3294
I28
aI36
aI25
aI41
asS"[-1, 'false', [3, 4, 5], 6, 49, 13, 'false']"
p3295
(lp3296
I24
aI32
aI17
aI19
asS"[-1, 'false', [1, 6, 5], 8, 39, 14, 'true']"
p3297
(lp3298
I35
aI24
aI11
aI17
asS"[-1, 'false', [5, 3, 4], 11, 27, 12, 'true']"
p3299
(lp3300
I21
aI22
aI39
aI26
asS"[-1, 'false', [1, 4, 7], 4, 23, 7, 'false']"
p3301
(lp3302
I36
aI27
aI28
aI38
asS"[-1, 'false', [0, 4, 8], 1, 15, 8, 'true']"
p3303
(lp3304
I37
aI44
aI42
aI37
asS"[-1, 'false', [7, 1, 4], 12, 6, 15, 'true']"
p3305
(lp3306
I45
asS"[-1, 'false', [3, 2, 7], 14, 32, 12, 'true']"
p3307
(lp3308
I27
aI29
aI20
aI14
asS"[-1, 'false', [5, 3, 4], 11, 5, 10, 'false']"
p3309
(lp3310
I23
aI26
aI30
aI28
asS"[-1, 'false', [7, 3, 2], 1, 24, 2, 'true']"
p3311
(lp3312
I29
aI23
aI33
aI19
asS"[-1, 'false', [0, 4, 8], 7, 15, 7, 'true']"
p3313
(lp3314
I20
aI28
aI33
aI26
asS"[-1, 'false', [3, 2, 7], 5, 39, 8, 'true']"
p3315
(lp3316
I27
aI43
aI30
aI35
asS"[-1, 'false', [7, 3, 2], 11, 24, 12, 'true']"
p3317
(lp3318
I26
aI15
aI33
aI42
asS"[-1, 'false', [0, 5, 7], 1, 15, 6, 'true']"
p3319
(lp3320
I49
aI32
aI31
aI50
asS"[-1, 'false', [4, 6, 2], 5, 26, 13, 'false']"
p3321
(lp3322
I32
aI23
aI23
aI29
asS"[-1, 'false', [3, 5, 4], 10, 1, 20, 'false']"
p3323
(lp3324
I25
aI28
aI20
aI30
asS"[-1, 'false', [3, 7, 2], 16, 20, 13, 'false']"
p3325
(lp3326
I23
asS"[-1, 'false', [7, 2, 3], 13, 1, 9, 'false']"
p3327
(lp3328
I23
aI27
aI26
aI27
asS"[-1, 'false', [1, 10, 1], 14, 21, 10, 'false']"
p3329
(lp3330
I19
aI19
aI14
aI6
asS"[-1, 'false', [0, 7, 5], 1, 30, 15, 'false']"
p3331
(lp3332
I32
aI42
aI23
aI28
asS"[-1, 'false', [0, 3, 9], 7, 8, 8, 'false']"
p3333
(lp3334
I30
asS"[-1, 'false', [0, 4, 8], 3, 15, 4, 'true']"
p3335
(lp3336
I27
aI31
aI51
aI46
asS"[-1, 'false', [0, 4, 8], 7, 28, 7, 'false']"
p3337
(lp3338
I31
aI32
aI27
aI62
asS"[-1, 'false', [8, 3, 1], 2, 45, 12, 'false']"
p3339
(lp3340
I16
aI32
aI24
aI29
asS"[-1, 'false', [7, 1, 4], 12, 32, 14, 'false']"
p3341
(lp3342
I37
asS"[-1, 'false', [3, 2, 7], 12, 5, 12, 'false']"
p3343
(lp3344
I29
aI24
aI29
aI21
asS"[-1, 'false', [9, 2, 1], 4, 44, 9, 'false']"
p3345
(lp3346
I24
aI27
aI28
aI28
asS"[-1, 'false', [1, 8, 3], 9, 32, 9, 'false']"
p3347
(lp3348
I23
aI35
aI31
aI23
asS"[-1, 'false', [4, 6, 2], 15, 21, 15, 'true']"
p3349
(lp3350
I18
aI29
aI28
aI22
asS"[-1, 'false', [4, 4, 4], 17, 33, 13, 'false']"
p3351
(lp3352
I18
aI15
aI21
aI16
asS"[-1, 'false', [3, 7, 2], 10, 30, 5, 'true']"
p3353
(lp3354
I14
aI19
aI17
aI27
asS"[-1, 'false', [0, 6, 6], 1, 18, 9, 'true']"
p3355
(lp3356
I34
aI28
aI36
aI32
asS"[-1, 'false', [0, 10, 2], 14, 29, 14, 'true']"
p3357
(lp3358
I19
asS"[-1, 'false', [10, 1, 1], 5, 11, 6, 'true']"
p3359
(lp3360
I24
aI32
asS"[-1, 'false', [2, 3, 7], 2, 23, 5, 'false']"
p3361
(lp3362
I36
aI30
aI30
aI33
asS"[-1, 'false', [4, 1, 7], 4, 8, 14, 'false']"
p3363
(lp3364
I27
aI26
aI32
aI26
asS"[-1, 'false', [8, 2, 2], 6, 11, 8, 'false']"
p3365
(lp3366
I26
aI28
aI30
aI18
asS"[-1, 'false', [1, 6, 5], 1, 12, 14, 'true']"
p3367
(lp3368
I25
aI22
aI40
aI34
asS"[-1, 'false', [0, 1, 11], 11, 4, 11, 'true']"
p3369
(lp3370
I28
aI11
aI33
aI27
asS"[-1, 'false', [5, 4, 3], 11, 27, 11, 'true']"
p3371
(lp3372
I28
aI20
aI34
aI24
asS"[-1, 'false', [4, 3, 5], 14, 41, 13, 'false']"
p3373
(lp3374
I21
aI22
aI25
aI30
asS"[-1, 'false', [6, 5, 1], 20, 12, 3, 'true']"
p3375
(lp3376
I26
aI26
aI22
aI12
asS"[-1, 'false', [2, 7, 3], 8, 37, 3, 'false']"
p3377
(lp3378
I40
aI22
aI30
aI40
asS"[-1, 'false', [3, 4, 5], 7, 45, 10, 'false']"
p3379
(lp3380
I33
asS"[-1, 'false', [1, 4, 7], 8, 10, 3, 'true']"
p3381
(lp3382
I43
aI33
aI42
aI36
asS"[-1, 'false', [1, 8, 3], 8, 37, 9, 'false']"
p3383
(lp3384
I20
aI20
aI20
aI20
asS"[-1, 'false', [8, 1, 3], 19, 11, 12, 'true']"
p3385
(lp3386
I21
aI30
aI32
aI21
asS"[-1, 'false', [5, 1, 6], 4, 38, 15, 'true']"
p3387
(lp3388
I34
aI38
aI30
aI31
asS"[-1, 'false', [8, 1, 3], 12, 38, 11, 'false']"
p3389
(lp3390
I28
aI29
aI19
aI37
asS"[-1, 'false', [2, 2, 8], 20, 7, 7, 'false']"
p3391
(lp3392
I21
aI14
aI23
aI21
asS"[-1, 'false', [5, 2, 5], 11, 24, 12, 'false']"
p3393
(lp3394
I20
aI36
aI30
aI26
asS"[-1, 'false', [5, 2, 5], 11, 35, 7, 'true']"
p3395
(lp3396
I19
aI20
aI12
aI16
asS"[-1, 'false', [8, 2, 2], 20, 15, 6, 'true']"
p3397
(lp3398
I25
aI15
aI20
aI20
asS"[-1, 'false', [2, 4, 6], 11, 23, 7, 'false']"
p3399
(lp3400
I20
aI18
aI32
aI36
asS"[-1, 'false', [8, 2, 2], 6, 12, 8, 'false']"
p3401
(lp3402
I20
aI22
aI42
aI30
asS"[-1, 'false', [6, 5, 1], 11, 27, 12, 'false']"
p3403
(lp3404
I14
aI24
aI29
aI27
asS"[-1, 'false', [7, 2, 3], 6, 35, 11, 'true']"
p3405
(lp3406
I19
aI35
aI25
aI24
asS"[-1, 'false', [5, 2, 5], 3, 10, 11, 'false']"
p3407
(lp3408
I27
aI31
aI33
aI32
asS"[-1, 'false', [2, 1, 9], 8, 23, 9, 'false']"
p3409
(lp3410
I28
aI44
aI36
aI32
asS"[-1, 'false', [1, 9, 2], 9, 37, 3, 'true']"
p3411
(lp3412
I43
aI31
aI31
aI31
asS"[-1, 'false', [3, 5, 4], 7, 28, 7, 'true']"
p3413
(lp3414
I31
aI25
aI23
aI39
asS"[-1, 'false', [8, 3, 1], 2, 6, 12, 'false']"
p3415
(lp3416
I29
aI19
aI26
aI28
asS"[-1, 'false', [8, 2, 2], 7, 21, 12, 'true']"
p3417
(lp3418
I35
asS"[-1, 'false', [6, 3, 3], 15, 22, 7, 'false']"
p3419
(lp3420
I28
aI16
aI20
aI17
asS"[-1, 'false', [5, 2, 5], 11, 7, 12, 'false']"
p3421
(lp3422
I20
aI28
aI33
aI23
asS"[-1, 'false', [1, 3, 8], 1, 15, 7, 'true']"
p3423
(lp3424
I40
aI35
aI41
aI32
asS"[-1, 'false', [8, 2, 2], 1, 19, 10, 'true']"
p3425
(lp3426
I40
aI27
aI29
aI26
asS"[-1, 'false', [1, 8, 3], 10, 32, 3, 'false']"
p3427
(lp3428
I44
aI25
aI40
aI27
asS"[-1, 'false', [4, 4, 4], 9, 24, 5, 'false']"
p3429
(lp3430
I34
aI17
aI22
aI18
asS"[-1, 'false', [0, 9, 3], 16, 19, 14, 'false']"
p3431
(lp3432
I25
aI15
aI28
aI22
asS"[-1, 'false', [1, 4, 7], 1, 18, 9, 'true']"
p3433
(lp3434
I36
aI45
aI37
aI48
asS"[-1, 'false', [1, 1, 10], 11, 30, 15, 'false']"
p3435
(lp3436
I24
asS"[-1, 'false', [5, 2, 5], 3, 49, 10, 'true']"
p3437
(lp3438
I31
aI48
aI38
aI19
asS"[-1, 'false', [6, 1, 5], 8, 19, 11, 'true']"
p3439
(lp3440
I28
aI35
aI27
aI31
asS"[-1, 'false', [8, 3, 1], 8, 20, 14, 'false']"
p3441
(lp3442
I21
aI27
aI23
aI17
asS"[-1, 'false', [1, 10, 1], 8, 22, 12, 'true']"
p3443
(lp3444
I17
aI21
aI20
aI17
asS"[-1, 'false', [1, 7, 4], 2, 47, 12, 'false']"
p3445
(lp3446
I19
aI29
aI28
aI19
asS"[-1, 'false', [2, 3, 7], 4, 22, 1, 'true']"
p3447
(lp3448
I52
aI38
aI44
aI40
asS"[-1, 'false', [0, 2, 10], 1, 16, 9, 'true']"
p3449
(lp3450
I30
aI27
aI38
aI44
asS"[-1, 'false', [0, 5, 7], 8, 18, 2, 'true']"
p3451
(lp3452
I33
aI34
aI33
aI35
asS"[-1, 'false', [5, 2, 5], 2, 47, 13, 'false']"
p3453
(lp3454
I28
aI28
aI29
aI25
asS"[-1, 'false', [3, 4, 5], 12, 22, 12, 'true']"
p3455
(lp3456
I32
aI23
aI22
aI24
asS"[-1, 'false', [9, 2, 1], 13, 37, 10, 'true']"
p3457
(lp3458
I11
asS"[-1, 'false', [0, 5, 7], 1, 15, 7, 'true']"
p3459
(lp3460
I35
aI38
aI55
aI26
asS"[-1, 'false', [8, 1, 3], 11, 38, 11, 'false']"
p3461
(lp3462
I23
aI47
aI24
aI30
asS"[-1, 'false', [2, 2, 8], 1, 23, 14, 'false']"
p3463
(lp3464
I29
aI29
aI26
aI19
asS"[-1, 'false', [1, 2, 9], 11, 29, 4, 'true']"
p3465
(lp3466
I63
aI35
aI41
aI30
asS"[-1, 'false', [3, 6, 3], 8, 10, 5, 'true']"
p3467
(lp3468
I29
aI32
aI18
aI24
asS"[-1, 'false', [3, 4, 5], 14, 41, 13, 'false']"
p3469
(lp3470
I11
aI32
aI28
aI14
asS"[-1, 'false', [2, 8, 2], 3, 23, 7, 'false']"
p3471
(lp3472
I30
aI22
aI29
aI34
asS"[-1, 'false', [2, 5, 5], 1, 22, 9, 'true']"
p3473
(lp3474
I52
aI34
aI38
aI25
asS"[-1, 'false', [4, 5, 3], 9, 32, 10, 'true']"
p3475
(lp3476
I14
aI18
aI25
aI28
asS"[-1, 'false', [5, 3, 4], 1, 16, 11, 'true']"
p3477
(lp3478
I44
aI16
aI34
aI38
asS"[-1, 'false', [1, 5, 6], 9, 13, 9, 'true']"
p3479
(lp3480
I39
asS"[-1, 'false', [3, 6, 3], 6, 10, 3, 'true']"
p3481
(lp3482
I21
aI31
aI26
aI35
asS"[-1, 'false', [0, 7, 5], 18, 33, 8, 'true']"
p3483
(lp3484
I23
aI14
aI11
aI23
asS"[-1, 'false', [6, 4, 2], 16, 38, 10, 'false']"
p3485
(lp3486
I6
aI20
aI26
aI17
asS"[-1, 'false', [0, 7, 5], 1, 33, 15, 'false']"
p3487
(lp3488
I32
aI34
aI40
aI36
asS"[-1, 'false', [1, 5, 6], 1, 12, 6, 'true']"
p3489
(lp3490
I35
aI32
aI48
aI40
asS"[-1, 'false', [3, 6, 3], 12, 8, 8, 'true']"
p3491
(lp3492
I25
aI20
aI28
aI20
aI26
aI22
aI22
aI19
aI21
aI14
asS"[-1, 'false', [6, 4, 2], 13, 31, 14, 'true']"
p3493
(lp3494
I34
aI23
aI23
aI12
asS"[-1, 'false', [5, 3, 4], 9, 16, 9, 'true']"
p3495
(lp3496
I40
aI41
aI33
aI28
asS"[-1, 'false', [6, 2, 4], 11, 24, 12, 'true']"
p3497
(lp3498
I36
aI26
aI31
aI33
asS"[-1, 'false', [1, 4, 7], 2, 43, 11, 'false']"
p3499
(lp3500
I20
aI32
aI31
aI33
asS"[-1, 'false', [6, 1, 5], 3, 34, 10, 'true']"
p3501
(lp3502
I25
aI39
aI18
aI33
asS"[-1, 'false', [5, 4, 3], 7, 13, 9, 'false']"
p3503
(lp3504
I31
aI33
aI31
aI27
asS"[-1, 'false', [2, 1, 9], 2, 15, 6, 'false']"
p3505
(lp3506
I26
aI30
aI26
aI41
asS"[-1, 'false', [1, 8, 3], 6, 22, 5, 'true']"
p3507
(lp3508
I27
aI21
aI21
aI25
asS"[-1, 'false', [6, 3, 3], 15, 22, 7, 'true']"
p3509
(lp3510
I37
aI26
aI20
aI28
asS"[-1, 'false', [4, 3, 5], 6, 11, 7, 'true']"
p3511
(lp3512
I24
aI35
aI29
aI32
asS"[-1, 'false', [0, 4, 8], 10, 15, 10, 'true']"
p3513
(lp3514
I26
aI38
aI15
aI47
asS"[-1, 'false', [4, 7, 1], 16, 45, 8, 'true']"
p3515
(lp3516
I9
aI15
aI12
aI8
asS"[-1, 'false', [1, 4, 7], 12, 1, 9, 'true']"
p3517
(lp3518
I26
aI28
aI30
aI31
asS"[-1, 'false', [4, 4, 4], 15, 23, 15, 'true']"
p3519
(lp3520
I34
aI21
aI26
aI24
asS"[-1, 'false', [3, 3, 6], 12, 12, 10, 'true']"
p3521
(lp3522
I21
asS"[-1, 'false', [0, 2, 10], 3, 32, 14, 'true']"
p3523
(lp3524
I35
aI33
aI28
aI28
asS"[-1, 'false', [1, 1, 10], 4, 15, 6, 'false']"
p3525
(lp3526
I36
aI46
aI40
aI24
asS"[-1, 'false', [4, 3, 5], 3, 20, 12, 'true']"
p3527
(lp3528
I33
aI42
aI25
aI39
asS"[-1, 'false', [3, 4, 5], 16, 17, 14, 'false']"
p3529
(lp3530
I15
aI28
aI19
aI27
asS"[-1, 'false', [4, 2, 6], 5, 18, 10, 'true']"
p3531
(lp3532
I25
aI30
aI20
aI28
asS"[-1, 'false', [5, 4, 3], 17, 17, 10, 'false']"
p3533
(lp3534
I22
asS"[-1, 'false', [4, 6, 2], 8, 21, 12, 'true']"
p3535
(lp3536
I18
aI16
aI19
aI23
asS"[-1, 'false', [7, 2, 3], 18, 7, 14, 'false']"
p3537
(lp3538
I24
aI24
aI32
aI25
asS"[-1, 'false', [1, 2, 9], 10, 7, 7, 'false']"
p3539
(lp3540
I35
aI31
aI28
aI21
asS"[-1, 'false', [1, 1, 10], 4, 19, 6, 'false']"
p3541
(lp3542
I25
aI34
aI20
aI40
asS"[-1, 'false', [6, 1, 5], 20, 48, 8, 'false']"
p3543
(lp3544
I22
aI9
aI19
aI7
asS"[-1, 'false', [1, 7, 4], 5, 23, 13, 'false']"
p3545
(lp3546
I27
aI27
aI39
aI28
asS"[-1, 'false', [4, 4, 4], 1, 1, 3, 'true']"
p3547
(lp3548
I38
aI28
aI19
aI26
asS"[-1, 'false', [3, 4, 5], 3, 45, 15, 'false']"
p3549
(lp3550
I21
aI24
aI6
aI20
asS"[-1, 'false', [3, 4, 5], 3, 14, 12, 'true']"
p3551
(lp3552
I26
aI33
aI33
aI28
asS"[-1, 'false', [1, 8, 3], 10, 37, 3, 'false']"
p3553
(lp3554
I39
aI36
aI36
aI30
asS"[-1, 'false', [3, 6, 3], 18, 30, 9, 'false']"
p3555
(lp3556
I14
aI15
aI18
aI14
asS"[-1, 'false', [0, 5, 7], 1, 16, 11, 'true']"
p3557
(lp3558
I43
aI38
aI31
aI34
asS"[-1, 'false', [5, 5, 2], 1, 9, 11, 'true']"
p3559
(lp3560
I34
aI27
aI33
aI26
asS"[-1, 'false', [3, 2, 7], 18, 50, 11, 'true']"
p3561
(lp3562
I18
asS"[-1, 'false', [1, 9, 2], 10, 35, 14, 'false']"
p3563
(lp3564
I18
aI14
aI16
aI17
asS"[-1, 'false', [2, 6, 4], 4, 36, 16, 'true']"
p3565
(lp3566
I27
aI13
aI27
aI24
asS"[-1, 'false', [4, 6, 2], 4, 38, 11, 'false']"
p3567
(lp3568
I21
aI17
aI27
aI28
asS"[-1, 'false', [6, 5, 1], 4, 43, 9, 'false']"
p3569
(lp3570
I18
asS"[-1, 'false', [0, 7, 5], 1, 45, 12, 'false']"
p3571
(lp3572
I21
aI31
aI40
aI35
asS"[-1, 'false', [4, 3, 5], 15, 16, 9, 'false']"
p3573
(lp3574
I27
aI23
aI21
aI26
asS"[-1, 'false', [3, 7, 2], 14, 37, 14, 'true']"
p3575
(lp3576
I11
asS"[-1, 'false', [2, 3, 7], 3, 13, 9, 'false']"
p3577
(lp3578
I25
aI18
aI36
aI34
asS"[-1, 'false', [3, 4, 5], 11, 22, 12, 'true']"
p3579
(lp3580
I22
aI23
aI18
aI30
asS"[-1, 'false', [3, 4, 5], 2, 45, 12, 'true']"
p3581
(lp3582
I32
aI13
aI31
aI41
asS"[-1, 'false', [7, 2, 3], 11, 24, 12, 'false']"
p3583
(lp3584
I20
aI20
aI40
aI27
asS"[-1, 'false', [5, 2, 5], 2, 47, 10, 'false']"
p3585
(lp3586
I31
aI37
aI41
aI30
asS"[-1, 'false', [1, 8, 3], 8, 37, 8, 'false']"
p3587
(lp3588
I20
aI14
aI28
aI25
asS"[-1, 'false', [2, 7, 3], 6, 12, 3, 'true']"
p3589
(lp3590
I39
aI42
aI35
aI32
asS"[-1, 'false', [6, 5, 1], 2, 40, 5, 'false']"
p3591
(lp3592
I20
aI22
aI19
aI28
asS"[-1, 'false', [6, 1, 5], 8, 17, 9, 'false']"
p3593
(lp3594
I30
aI24
aI29
aI37
asS"[-1, 'false', [5, 4, 3], 9, 7, 8, 'true']"
p3595
(lp3596
I23
aI25
aI31
aI27
asS"[-1, 'false', [9, 1, 2], 16, 5, 9, 'true']"
p3597
(lp3598
I17
aI19
aI27
aI25
asS"[-1, 'false', [10, 1, 1], 12, 35, 12, 'true']"
p3599
(lp3600
I15
asS"[-1, 'false', [0, 11, 1], 17, 50, 9, 'true']"
p3601
(lp3602
I14
aI5
aI10
aI13
asS"[-1, 'false', [1, 6, 5], 1, 8, 9, 'true']"
p3603
(lp3604
I34
aI25
aI31
aI37
asS"[-1, 'false', [2, 8, 2], 6, 5, 14, 'true']"
p3605
(lp3606
I35
aI29
aI27
aI25
asS"[-1, 'false', [9, 2, 1], 2, 40, 5, 'false']"
p3607
(lp3608
I29
aI35
aI21
aI28
asS"[-1, 'false', [3, 5, 4], 2, 47, 12, 'true']"
p3609
(lp3610
I30
aI30
aI24
aI23
asS"[-1, 'false', [4, 5, 3], 6, 45, 15, 'false']"
p3611
(lp3612
I18
aI23
aI18
aI24
asS"[-1, 'false', [5, 2, 5], 4, 7, 12, 'false']"
p3613
(lp3614
I23
aI31
aI18
aI19
asS"[-1, 'false', [1, 4, 7], 1, 8, 11, 'false']"
p3615
(lp3616
I35
aI20
aI37
aI32
asS"[-1, 'false', [2, 7, 3], 10, 5, 3, 'true']"
p3617
(lp3618
I20
aI24
aI34
aI36
asS"[-1, 'false', [2, 5, 5], 2, 9, 9, 'false']"
p3619
(lp3620
I25
aI35
aI30
aI51
asS"[-1, 'false', [6, 3, 3], 11, 47, 8, 'false']"
p3621
(lp3622
I15
aI4
aI19
aI25
aI24
aI26
aI25
aI17
aI22
aI21
aI18
asS"[-1, 'false', [6, 1, 5], 2, 47, 10, 'true']"
p3623
(lp3624
I24
aI43
aI29
aI24
asS"[-1, 'false', [6, 3, 3], 10, 10, 12, 'true']"
p3625
(lp3626
I21
aI26
aI29
aI28
aI25
aI17
aI28
aI22
aI20
asS"[-1, 'false', [1, 3, 8], 4, 39, 8, 'true']"
p3627
(lp3628
I30
aI37
aI29
aI26
asS"[-1, 'false', [0, 1, 11], 9, 41, 13, 'false']"
p3629
(lp3630
I18
aI16
aI25
aI22
asS"[-1, 'false', [6, 5, 1], 13, 18, 13, 'true']"
p3631
(lp3632
I19
aI16
aI16
aI12
asS"[-1, 'false', [2, 3, 7], 10, 23, 10, 'false']"
p3633
(lp3634
I24
aI28
aI25
aI21
asS"[-1, 'false', [0, 8, 4], 16, 14, 7, 'false']"
p3635
(lp3636
I24
asS"[-1, 'false', [1, 10, 1], 6, 21, 4, 'false']"
p3637
(lp3638
I16
asS"[-1, 'false', [0, 4, 8], 1, 10, 9, 'true']"
p3639
(lp3640
I42
aI31
aI48
aI26
asS"[-1, 'false', [5, 2, 5], 9, 14, 10, 'true']"
p3641
(lp3642
I33
aI31
aI27
aI23
asS"[-1, 'false', [7, 2, 3], 5, 16, 11, 'false']"
p3643
(lp3644
I33
aI35
aI23
aI34
asS"[-1, 'false', [7, 1, 4], 14, 35, 8, 'true']"
p3645
(lp3646
I24
aI26
aI39
aI30
asS"[-1, 'false', [0, 5, 7], 1, 18, 9, 'true']"
p3647
(lp3648
I29
aI39
aI49
aI51
asS"[-1, 'false', [1, 8, 3], 8, 32, 3, 'false']"
p3649
(lp3650
I28
aI28
aI36
aI38
asS"[-1, 'false', [9, 2, 1], 2, 1, 9, 'true']"
p3651
(lp3652
I28
asS"[-1, 'false', [6, 5, 1], 16, 10, 13, 'true']"
p3653
(lp3654
I26
aI27
aI13
aI18
asS"[-1, 'false', [1, 10, 1], 15, 22, 8, 'true']"
p3655
(lp3656
I15
aI15
aI19
aI12
asS"[-1, 'false', [7, 1, 4], 12, 31, 14, 'false']"
p3657
(lp3658
I39
aI21
aI29
asS"[-1, 'false', [2, 3, 7], 17, 4, 11, 'true']"
p3659
(lp3660
I31
aI25
aI14
aI22
asS"[-1, 'false', [7, 2, 3], 6, 11, 8, 'true']"
p3661
(lp3662
I36
aI21
aI20
aI29
asS"[-1, 'false', [4, 6, 2], 11, 21, 15, 'true']"
p3663
(lp3664
I28
aI31
aI13
aI19
asS"[-1, 'false', [5, 3, 4], 16, 10, 13, 'true']"
p3665
(lp3666
I25
aI31
aI21
aI26
asS"[-1, 'false', [7, 4, 1], 7, 13, 9, 'false']"
p3667
(lp3668
I22
aI18
aI29
aI29
asS"[-1, 'false', [9, 2, 1], 18, 7, 11, 'false']"
p3669
(lp3670
I13
aI27
aI30
aI26
asS"[-1, 'false', [3, 4, 5], 15, 47, 8, 'true']"
p3671
(lp3672
I15
aI23
aI7
aI12
asS"[-1, 'false', [0, 10, 2], 14, 37, 14, 'true']"
p3673
(lp3674
I17
aI6
aI13
aI30
aI23
asS"[-1, 'false', [1, 8, 3], 6, 32, 3, 'false']"
p3675
(lp3676
I40
aI27
aI23
aI31
asS"[-1, 'false', [6, 5, 1], 18, 13, 11, 'true']"
p3677
(lp3678
I18
aI28
aI29
asS"[-1, 'false', [4, 1, 7], 5, 22, 13, 'false']"
p3679
(lp3680
I32
aI36
aI38
aI22
asS"[-1, 'false', [7, 3, 2], 16, 27, 6, 'false']"
p3681
(lp3682
I8
aI8
aI14
aI20
asS"[-1, 'false', [4, 2, 6], 8, 19, 11, 'true']"
p3683
(lp3684
I34
aI30
aI38
aI26
asS"[-1, 'false', [4, 6, 2], 5, 32, 9, 'false']"
p3685
(lp3686
I22
aI30
aI19
aI17
asS"[-1, 'false', [3, 4, 5], 14, 19, 11, 'true']"
p3687
(lp3688
I21
aI20
aI19
aI29
asS"[-1, 'false', [6, 2, 4], 5, 43, 11, 'false']"
p3689
(lp3690
I24
aI44
aI21
aI38
asS"[-1, 'false', [2, 2, 8], 12, 23, 7, 'false']"
p3691
(lp3692
I26
aI15
aI33
aI24
asS"[-1, 'false', [0, 6, 6], 14, 11, 7, 'false']"
p3693
(lp3694
I19
asS"[-1, 'false', [4, 3, 5], 16, 41, 7, 'true']"
p3695
(lp3696
I8
aI16
aI13
aI14
asS"[-1, 'false', [3, 5, 4], 1, 22, 11, 'true']"
p3697
(lp3698
I36
aI42
aI27
aI35
asS"[-1, 'false', [2, 3, 7], 14, 1, 11, 'true']"
p3699
(lp3700
I20
aI20
aI20
aI22
asS"[-1, 'false', [2, 2, 8], 1, 23, 9, 'false']"
p3701
(lp3702
I52
aI39
aI42
aI36
asS"[-1, 'false', [1, 8, 3], 9, 32, 3, 'false']"
p3703
(lp3704
I19
aI34
aI24
aI29
asS"[-1, 'false', [7, 3, 2], 7, 3, 10, 'true']"
p3705
(lp3706
I28
aI27
aI35
aI26
asS"[-1, 'false', [0, 6, 6], 1, 8, 9, 'true']"
p3707
(lp3708
I40
aI43
aI30
aI34
asS"[-1, 'false', [1, 5, 6], 1, 9, 11, 'false']"
p3709
(lp3710
I36
aI23
aI34
aI27
asS"[-1, 'false', [0, 7, 5], 6, 11, 12, 'false']"
p3711
(lp3712
I37
aI22
aI36
aI33
asS"[-1, 'false', [6, 3, 3], 9, 24, 6, 'true']"
p3713
(lp3714
I30
aI30
aI21
aI25
asS"[-1, 'false', [2, 1, 9], 10, 40, 6, 'true']"
p3715
(lp3716
I23
aI47
aI34
aI35
asS"[-1, 'false', [5, 5, 2], 6, 5, 9, 'false']"
p3717
(lp3718
I31
aI26
aI22
aI20
asS"[-1, 'false', [5, 5, 2], 12, 6, 5, 'true']"
p3719
(lp3720
I23
aI21
aI23
aI25
asS"[-1, 'false', [2, 6, 4], 11, 24, 11, 'true']"
p3721
(lp3722
I23
aI22
aI39
aI35
asS"[-1, 'false', [2, 2, 8], 4, 21, 15, 'true']"
p3723
(lp3724
I33
aI38
aI35
aI24
asS"[-1, 'false', [3, 2, 7], 11, 43, 20, 'true']"
p3725
(lp3726
I22
aI21
aI22
aI22
asS"[-1, 'false', [3, 5, 4], 3, 22, 11, 'true']"
p3727
(lp3728
I30
aI17
aI25
aI26
asS"[-1, 'false', [3, 6, 3], 12, 1, 7, 'true']"
p3729
(lp3730
I30
aI31
aI20
aI23
asS"[-1, 'false', [3, 5, 4], 19, 7, 12, 'false']"
p3731
(lp3732
I24
aI26
aI24
aI21
asS"[-1, 'false', [5, 3, 4], 14, 19, 12, 'true']"
p3733
(lp3734
I32
aI25
aI30
aI18
asS"[-1, 'false', [0, 7, 5], 19, 30, 8, 'true']"
p3735
(lp3736
I5
aI16
aI8
aI12
asS"[-1, 'false', [2, 2, 8], 5, 23, 7, 'true']"
p3737
(lp3738
I34
aI37
aI39
aI26
asS"[-1, 'false', [4, 2, 6], 2, 43, 11, 'false']"
p3739
(lp3740
I45
aI37
aI35
aI32
asS"[-1, 'false', [0, 4, 8], 16, 2, 13, 'false']"
p3741
(lp3742
I30
aI27
aI26
aI23
asS"[-1, 'false', [6, 4, 2], 15, 27, 9, 'false']"
p3743
(lp3744
I25
aI15
aI10
aI19
asS"[-1, 'false', [1, 2, 9], 2, 40, 12, 'true']"
p3745
(lp3746
I36
aI43
aI39
aI24
asS"[-1, 'false', [4, 4, 4], 5, 39, 12, 'true']"
p3747
(lp3748
I22
aI24
aI23
aI26
asS"[-1, 'false', [2, 9, 1], 4, 41, 12, 'true']"
p3749
(lp3750
I22
aI26
aI17
aI11
asS"[-1, 'false', [1, 6, 5], 1, 10, 8, 'true']"
p3751
(lp3752
I36
aI30
aI31
aI23
asS"[-1, 'false', [5, 6, 1], 1, 41, 11, 'true']"
p3753
(lp3754
I18
aI22
aI23
aI21
asS"[-1, 'false', [8, 3, 1], 6, 49, 11, 'false']"
p3755
(lp3756
I9
aI22
aI9
aI22
asS"[-1, 'false', [0, 4, 8], 16, 29, 11, 'true']"
p3757
(lp3758
I21
aI22
aI12
aI31
asS"[-1, 'false', [2, 7, 3], 6, 6, 3, 'true']"
p3759
(lp3760
I28
aI23
aI28
aI32
asS"[-1, 'false', [2, 3, 7], 4, 23, 9, 'false']"
p3761
(lp3762
I36
aI30
aI36
aI34
asS"[-1, 'false', [9, 1, 2], 4, 35, 11, 'false']"
p3763
(lp3764
I37
aI32
aI41
aI23
asS"[-1, 'false', [4, 2, 6], 11, 24, 12, 'false']"
p3765
(lp3766
I26
aI21
aI29
aI26
asS"[-1, 'false', [5, 3, 4], 5, 12, 10, 'false']"
p3767
(lp3768
I27
aI23
aI15
aI40
asS"[-1, 'false', [0, 3, 9], 11, 24, 12, 'false']"
p3769
(lp3770
I27
aI26
aI23
aI29
asS"[-1, 'false', [7, 1, 4], 17, 32, 13, 'true']"
p3771
(lp3772
I28
aI27
aI22
aI26
asS"[-1, 'false', [1, 10, 1], 7, 35, 10, 'false']"
p3773
(lp3774
I14
aI33
aI17
aI17
asS"[-1, 'false', [7, 1, 4], 5, 17, 13, 'true']"
p3775
(lp3776
I26
aI27
aI31
aI31
asS"[-1, 'false', [2, 3, 7], 1, 15, 8, 'true']"
p3777
(lp3778
I27
aI24
aI38
aI37
asS"[-1, 'false', [1, 3, 8], 14, 41, 15, 'true']"
p3779
(lp3780
I42
aI35
aI23
aI16
asS"[-1, 'false', [6, 2, 4], 11, 13, 12, 'true']"
p3781
(lp3782
I36
aI34
aI26
aI24
asS"[-1, 'false', [0, 4, 8], 1, 8, 10, 'true']"
p3783
(lp3784
I38
aI37
aI30
aI43
asS"[-1, 'false', [4, 4, 4], 16, 11, 7, 'false']"
p3785
(lp3786
I26
asS"[-1, 'false', [5, 1, 6], 4, 19, 15, 'false']"
p3787
(lp3788
I30
aI30
aI24
aI32
asS"[-1, 'false', [2, 3, 7], 6, 23, 4, 'true']"
p3789
(lp3790
I38
aI47
aI30
aI14
asS"[-1, 'false', [8, 1, 3], 16, 35, 14, 'false']"
p3791
(lp3792
I18
asS"[-1, 'false', [3, 5, 4], 1, 18, 9, 'false']"
p3793
(lp3794
I22
aI32
aI34
aI38
asS"[-1, 'false', [6, 1, 5], 4, 49, 12, 'false']"
p3795
(lp3796
I33
aI28
aI30
aI27
asS"[-1, 'false', [4, 2, 6], 2, 47, 11, 'false']"
p3797
(lp3798
I30
aI28
aI30
aI25
asS"[-1, 'false', [8, 2, 2], 18, 34, 11, 'false']"
p3799
(lp3800
I33
asS"[-1, 'false', [4, 3, 5], 17, 33, 13, 'false']"
p3801
(lp3802
I19
aI31
aI26
aI22
asS"[-1, 'false', [6, 1, 5], 4, 38, 9, 'false']"
p3803
(lp3804
I21
aI27
aI25
aI32
asS"[-1, 'false', [2, 8, 2], 18, 41, 12, 'true']"
p3805
(lp3806
I12
aI22
aI8
aI10
asS"[-1, 'false', [3, 4, 5], 1, 15, 7, 'true']"
p3807
(lp3808
I38
aI31
aI27
aI43
asS"[-1, 'false', [1, 7, 4], 6, 10, 3, 'false']"
p3809
(lp3810
I42
aI39
aI24
aI32
asS"[-1, 'false', [4, 3, 5], 14, 16, 9, 'false']"
p3811
(lp3812
I25
aI24
aI29
aI34
asS"[-1, 'false', [0, 7, 5], 12, 44, 14, 'false']"
p3813
(lp3814
I24
asS"[-1, 'false', [3, 2, 7], 11, 5, 12, 'false']"
p3815
(lp3816
I21
aI21
aI26
aI28
asS"[-1, 'false', [3, 6, 3], 10, 16, 13, 'true']"
p3817
(lp3818
I15
aI23
aI28
aI24
asS"[-1, 'false', [7, 1, 4], 12, 31, 12, 'false']"
p3819
(lp3820
I27
aI21
aI23
asS"[-1, 'false', [6, 3, 3], 6, 7, 8, 'true']"
p3821
(lp3822
I25
aI21
aI24
aI31
asS"[-1, 'false', [5, 3, 4], 8, 24, 12, 'true']"
p3823
(lp3824
I26
aI24
aI22
aI24
asS"[-1, 'false', [7, 1, 4], 16, 2, 7, 'true']"
p3825
(lp3826
I16
aI22
aI30
aI30
asS"[-1, 'false', [0, 5, 7], 2, 8, 10, 'true']"
p3827
(lp3828
I20
aI30
aI34
aI39
asS"[-1, 'false', [0, 10, 2], 12, 2, 10, 'true']"
p3829
(lp3830
I25
aI33
aI24
aI18
asS"[-1, 'false', [9, 1, 2], 7, 35, 12, 'true']"
p3831
(lp3832
I25
aI31
aI14
asS"[-1, 'false', [1, 5, 6], 9, 17, 9, 'true']"
p3833
(lp3834
I24
aI27
aI27
aI26
aI15
aI25
aI25
aI26
aI27
aI24
asS"[-1, 'false', [6, 2, 4], 5, 14, 12, 'false']"
p3835
(lp3836
I26
aI31
aI20
aI27
asS"[-1, 'false', [4, 2, 6], 3, 49, 19, 'true']"
p3837
(lp3838
I22
aI27
aI29
aI33
asS"[-1, 'false', [6, 3, 3], 7, 3, 9, 'false']"
p3839
(lp3840
I34
aI37
aI29
aI23
asS"[-1, 'false', [1, 8, 3], 3, 13, 3, 'true']"
p3841
(lp3842
I25
aI39
aI38
aI43
asS"[-1, 'false', [2, 3, 7], 7, 21, 11, 'false']"
p3843
(lp3844
I24
aI33
aI30
aI36
asS"[-1, 'false', [2, 3, 7], 12, 47, 8, 'true']"
p3845
(lp3846
I25
aI27
aI24
aI29
asS"[-1, 'false', [2, 7, 3], 3, 16, 3, 'true']"
p3847
(lp3848
I30
aI33
aI35
aI27
asS"[-1, 'false', [4, 3, 5], 7, 35, 13, 'false']"
p3849
(lp3850
I29
aI29
aI28
aI21
asS"[-1, 'false', [1, 8, 3], 19, 12, 3, 'true']"
p3851
(lp3852
I28
aI16
aI43
aI44
asS"[-1, 'false', [4, 4, 4], 9, 16, 20, 'true']"
p3853
(lp3854
I27
aI23
aI25
aI26
asS"[-1, 'false', [5, 3, 4], 11, 15, 12, 'true']"
p3855
(lp3856
I28
aI33
aI20
aI29
asS"[-1, 'false', [9, 2, 1], 11, 13, 10, 'true']"
p3857
(lp3858
I26
asS"[-1, 'false', [3, 6, 3], 10, 1, 5, 'true']"
p3859
(lp3860
I18
aI24
aI21
aI28
asS"[-1, 'false', [1, 4, 7], 10, 23, 17, 'false']"
p3861
(lp3862
I32
aI24
aI18
aI18
asS"[-1, 'false', [7, 1, 4], 18, 1, 9, 'false']"
p3863
(lp3864
I28
aI22
aI31
aI24
asS"[-1, 'false', [2, 3, 7], 1, 23, 9, 'false']"
p3865
(lp3866
I37
aI49
aI26
aI36
asS"[-1, 'false', [3, 7, 2], 12, 12, 11, 'true']"
p3867
(lp3868
I16
aI15
aI32
aI27
asS"[-1, 'false', [0, 7, 5], 1, 45, 11, 'false']"
p3869
(lp3870
I22
aI19
aI55
aI18
asS"[-1, 'false', [0, 7, 5], 1, 45, 6, 'false']"
p3871
(lp3872
I33
aI30
aI44
aI35
asS"[-1, 'false', [4, 3, 5], 6, 11, 6, 'true']"
p3873
(lp3874
I33
aI24
aI29
aI29
asS"[-1, 'false', [9, 1, 2], 12, 42, 14, 'false']"
p3875
(lp3876
I21
aI16
aI28
aI32
asS"[-1, 'false', [1, 3, 8], 8, 43, 11, 'false']"
p3877
(lp3878
I21
aI27
aI24
aI27
asS"[-1, 'false', [2, 2, 8], 11, 23, 7, 'false']"
p3879
(lp3880
I20
aI21
aI27
aI34
asS"[-1, 'false', [6, 2, 4], 18, 35, 7, 'true']"
p3881
(lp3882
I23
aI20
aI28
aI13
asS"[-1, 'false', [7, 3, 2], 6, 23, 9, 'false']"
p3883
(lp3884
I20
aI21
aI36
aI12
asS"[-1, 'false', [5, 2, 5], 1, 7, 13, 'false']"
p3885
(lp3886
I23
aI27
aI33
aI21
asS"[-1, 'false', [6, 5, 1], 7, 35, 12, 'false']"
p3887
(lp3888
I25
asS"[-1, 'false', [1, 4, 7], 1, 1, 7, 'true']"
p3889
(lp3890
I25
aI29
aI33
aI28
asS"[-1, 'false', [0, 5, 7], 12, 27, 8, 'false']"
p3891
(lp3892
I32
aI20
aI22
aI17
asS"[-1, 'false', [1, 4, 7], 7, 15, 7, 'false']"
p3893
(lp3894
I16
aI24
aI25
aI29
asS"[-1, 'false', [3, 3, 6], 4, 1, 9, 'true']"
p3895
(lp3896
I26
aI26
aI23
aI23
asS"[-1, 'false', [2, 8, 2], 7, 38, 14, 'true']"
p3897
(lp3898
I16
aI24
aI11
aI15
asS"[-1, 'false', [6, 4, 2], 10, 15, 7, 'false']"
p3899
(lp3900
I18
aI29
aI14
aI17
asS"[-1, 'false', [4, 7, 1], 12, 26, 8, 'false']"
p3901
(lp3902
I8
aI12
aI14
aI27
asS"[-1, 'false', [1, 4, 7], 11, 25, 9, 'true']"
p3903
(lp3904
I15
aI28
aI32
aI30
asS"[-1, 'false', [3, 3, 6], 16, 24, 8, 'true']"
p3905
(lp3906
I24
aI24
aI16
aI26
asS"[-1, 'false', [2, 1, 9], 2, 19, 6, 'false']"
p3907
(lp3908
I29
aI36
aI28
aI41
asS"[-1, 'false', [0, 5, 7], 3, 15, 2, 'true']"
p3909
(lp3910
I34
aI41
aI29
aI35
asS"[-1, 'false', [4, 4, 4], 2, 13, 1, 'true']"
p3911
(lp3912
I22
aI31
aI27
aI34
asS"[-1, 'false', [5, 5, 2], 7, 27, 10, 'false']"
p3913
(lp3914
I29
aI23
aI19
aI31
asS"[-1, 'false', [5, 3, 4], 11, 28, 12, 'true']"
p3915
(lp3916
I30
aI31
aI36
aI29
asS"[-1, 'false', [4, 7, 1], 10, 47, 14, 'false']"
p3917
(lp3918
I3
aI17
aI15
aI12
asS"[-1, 'false', [4, 3, 5], 2, 47, 10, 'false']"
p3919
(lp3920
I26
aI31
aI33
aI25
asS"[-1, 'false', [3, 4, 5], 4, 24, 7, 'false']"
p3921
(lp3922
I29
aI37
aI36
aI33
asS"[-1, 'false', [3, 6, 3], 8, 34, 11, 'true']"
p3923
(lp3924
I32
asS"[-1, 'false', [2, 2, 8], 1, 22, 9, 'false']"
p3925
(lp3926
I52
aI46
aI32
aI33
asS"[-1, 'false', [1, 10, 1], 15, 22, 13, 'true']"
p3927
(lp3928
I15
aI16
aI26
aI16
asS"[-1, 'false', [9, 1, 2], 10, 10, 10, 'true']"
p3929
(lp3930
I23
asS"[-1, 'false', [6, 2, 4], 9, 6, 15, 'false']"
p3931
(lp3932
I29
asS"[-1, 'false', [8, 2, 2], 4, 38, 11, 'false']"
p3933
(lp3934
I29
aI28
aI30
aI30
asS"[-1, 'false', [5, 3, 4], 10, 18, 12, 'true']"
p3935
(lp3936
I29
aI24
aI32
aI32
asS"[-1, 'false', [2, 5, 5], 11, 12, 9, 'true']"
p3937
(lp3938
I35
aI23
aI23
aI32
asS"[-1, 'false', [7, 3, 2], 1, 22, 11, 'true']"
p3939
(lp3940
I22
aI28
aI38
aI29
asS"[-1, 'false', [9, 1, 2], 16, 12, 10, 'true']"
p3941
(lp3942
I22
aI30
aI19
aI25
asS"[-1, 'false', [2, 6, 4], 5, 41, 12, 'true']"
p3943
(lp3944
I35
aI35
aI28
aI27
asS"[-1, 'false', [1, 4, 7], 8, 9, 9, 'true']"
p3945
(lp3946
I36
aI28
aI35
aI30
asS"[-1, 'false', [1, 7, 4], 12, 45, 10, 'false']"
p3947
(lp3948
I29
aI19
aI7
aI26
asS"[-1, 'false', [1, 9, 2], 12, 12, 8, 'true']"
p3949
(lp3950
I19
aI29
aI21
aI21
asS"[-1, 'false', [4, 3, 5], 3, 47, 12, 'false']"
p3951
(lp3952
I20
aI42
aI37
aI33
asS"[-1, 'false', [5, 3, 4], 7, 6, 12, 'false']"
p3953
(lp3954
I32
aI24
aI27
aI33
asS"[-1, 'false', [8, 3, 1], 17, 20, 6, 'true']"
p3955
(lp3956
I12
aI13
aI17
aI23
asS"[-1, 'false', [1, 5, 6], 4, 13, 12, 'false']"
p3957
(lp3958
I18
aI24
aI40
aI32
asS"[-1, 'false', [1, 6, 5], 1, 1, 15, 'false']"
p3959
(lp3960
I30
aI25
aI35
aI31
asS"[-1, 'false', [2, 1, 9], 5, 25, 6, 'false']"
p3961
(lp3962
I36
aI24
aI25
aI34
asS"[-1, 'false', [9, 1, 2], 8, 30, 13, 'false']"
p3963
(lp3964
I33
asS"[-1, 'false', [1, 4, 7], 1, 8, 11, 'true']"
p3965
(lp3966
I29
aI21
aI28
aI29
asS"[-1, 'false', [5, 3, 4], 11, 24, 12, 'true']"
p3967
(lp3968
I47
aI36
aI37
aI22
asS"[-1, 'false', [7, 4, 1], 17, 13, 13, 'true']"
p3969
(lp3970
I24
aI14
aI18
aI21
asS"[-1, 'false', [8, 3, 1], 19, 43, 3, 'true']"
p3971
(lp3972
I27
aI21
aI26
aI29
asS"[-1, 'false', [2, 3, 7], 5, 23, 9, 'false']"
p3973
(lp3974
I35
aI30
aI28
aI34
asS"[-1, 'false', [1, 7, 4], 5, 11, 3, 'true']"
p3975
(lp3976
I33
aI33
aI26
aI28
asS"[-1, 'false', [8, 2, 2], 14, 24, 8, 'false']"
p3977
(lp3978
I20
aI26
aI19
aI24
asS"[-1, 'false', [6, 3, 3], 11, 47, 10, 'false']"
p3979
(lp3980
I23
asS"[-1, 'false', [6, 3, 3], 6, 36, 10, 'false']"
p3981
(lp3982
I34
aI26
aI29
aI15
asS"[-1, 'false', [0, 5, 7], 1, 12, 5, 'true']"
p3983
(lp3984
I49
aI41
aI37
aI28
asS"[-1, 'false', [8, 2, 2], 14, 21, 8, 'false']"
p3985
(lp3986
I20
aI23
aI26
aI11
asS"[-1, 'false', [6, 1, 5], 11, 49, 15, 'false']"
p3987
(lp3988
I13
asS"[-1, 'false', [0, 6, 6], 18, 32, 7, 'true']"
p3989
(lp3990
I17
aI24
aI10
aI21
asS"[-1, 'false', [3, 4, 5], 12, 31, 10, 'true']"
p3991
(lp3992
I27
asS"[-1, 'false', [5, 5, 2], 11, 27, 10, 'false']"
p3993
(lp3994
I23
aI25
aI21
aI12
asS"[-1, 'false', [3, 3, 6], 1, 18, 9, 'false']"
p3995
(lp3996
I27
aI29
aI41
aI33
asS"[-1, 'false', [8, 2, 2], 1, 21, 19, 'true']"
p3997
(lp3998
I42
aI28
aI20
aI23
asS"[-1, 'false', [3, 4, 5], 1, 7, 6, 'true']"
p3999
(lp4000
I39
aI34
aI33
aI24
asS"[-1, 'false', [0, 5, 7], 8, 18, 11, 'true']"
p4001
(lp4002
I29
aI37
aI22
aI34
asS"[-1, 'false', [5, 2, 5], 6, 47, 12, 'false']"
p4003
(lp4004
I23
aI36
aI36
aI30
asS"[-1, 'false', [8, 2, 2], 11, 24, 12, 'true']"
p4005
(lp4006
I21
aI11
aI16
aI37
asS"[-1, 'false', [5, 3, 4], 17, 1, 6, 'true']"
p4007
(lp4008
I16
aI31
aI28
aI29
asS"[-1, 'false', [5, 5, 2], 9, 27, 10, 'false']"
p4009
(lp4010
I18
aI14
aI25
aI37
asS"[-1, 'false', [8, 2, 2], 1, 21, 8, 'true']"
p4011
(lp4012
I27
aI22
aI31
aI26
asS"[-1, 'false', [5, 6, 1], 14, 45, 14, 'false']"
p4013
(lp4014
I14
aI16
aI19
aI17
asS"[-1, 'false', [7, 1, 4], 10, 32, 13, 'true']"
p4015
(lp4016
I36
aI22
aI22
aI34
asS"[-1, 'false', [0, 8, 4], 13, 24, 12, 'true']"
p4017
(lp4018
I26
aI34
aI32
aI23
asS"[-1, 'false', [1, 6, 5], 1, 12, 6, 'true']"
p4019
(lp4020
I35
aI35
aI43
aI25
asS"[-1, 'false', [4, 6, 2], 4, 31, 18, 'false']"
p4021
(lp4022
I19
aI22
aI33
aI31
asS"[-1, 'false', [7, 3, 2], 9, 16, 6, 'false']"
p4023
(lp4024
I21
aI30
aI23
aI17
asS"[-1, 'false', [2, 9, 1], 4, 33, 15, 'true']"
p4025
(lp4026
I20
aI35
aI24
aI10
asS"[-1, 'false', [1, 9, 2], 4, 6, 11, 'true']"
p4027
(lp4028
I19
aI25
aI27
aI34
asS"[-1, 'false', [2, 9, 1], 15, 7, 8, 'false']"
p4029
(lp4030
I21
aI10
aI22
aI23
asS"[-1, 'false', [1, 8, 3], 8, 37, 11, 'false']"
p4031
(lp4032
I22
aI32
aI31
aI19
asS"[-1, 'false', [3, 2, 7], 8, 43, 11, 'false']"
p4033
(lp4034
I24
aI25
aI36
aI31
asS"[-1, 'false', [2, 3, 7], 2, 12, 11, 'false']"
p4035
(lp4036
I28
aI34
aI29
aI37
asS"[-1, 'false', [6, 2, 4], 5, 8, 11, 'false']"
p4037
(lp4038
I20
aI25
aI35
aI23
asS"[-1, 'false', [3, 4, 5], 3, 14, 10, 'true']"
p4039
(lp4040
I32
aI33
aI27
aI38
asS"[-1, 'false', [3, 4, 5], 1, 18, 9, 'true']"
p4041
(lp4042
I26
aI38
aI30
aI36
asS"[-1, 'false', [0, 10, 2], 5, 33, 15, 'true']"
p4043
(lp4044
I23
aI36
aI13
aI25
asS"[-1, 'false', [0, 6, 6], 13, 11, 7, 'false']"
p4045
(lp4046
I25
asS"[-1, 'false', [5, 2, 5], 2, 30, 10, 'false']"
p4047
(lp4048
I31
aI33
aI29
aI39
asS"[-1, 'false', [4, 4, 4], 4, 24, 7, 'false']"
p4049
(lp4050
I27
aI29
aI33
aI38
asS"[-1, 'false', [6, 2, 4], 13, 16, 12, 'true']"
p4051
(lp4052
I35
aI30
aI18
aI25
asS"[-1, 'false', [8, 1, 3], 12, 5, 15, 'false']"
p4053
(lp4054
I27
aI21
aI23
aI26
asS"[-1, 'false', [5, 3, 4], 6, 7, 12, 'true']"
p4055
(lp4056
I24
aI30
aI29
aI33
asS"[-1, 'false', [4, 2, 6], 1, 23, 9, 'false']"
p4057
(lp4058
I30
aI29
aI41
aI37
asS"[-1, 'false', [9, 1, 2], 5, 14, 15, 'false']"
p4059
(lp4060
I19
asS"[-1, 'false', [5, 3, 4], 17, 10, 6, 'true']"
p4061
(lp4062
I22
aI16
aI23
aI27
asS"[-1, 'false', [1, 3, 8], 6, 6, 3, 'true']"
p4063
(lp4064
I20
aI33
aI31
aI33
asS"[-1, 'false', [2, 5, 5], 3, 15, 2, 'true']"
p4065
(lp4066
I19
aI28
aI49
aI30
asS"[-1, 'false', [5, 5, 2], 17, 46, 15, 'false']"
p4067
(lp4068
I6
aI15
aI12
aI19
asS"[-1, 'false', [1, 7, 4], 6, 10, 3, 'true']"
p4069
(lp4070
I29
aI44
aI37
aI23
asS"[-1, 'false', [1, 6, 5], 12, 31, 13, 'false']"
p4071
(lp4072
I31
asS"[-1, 'false', [8, 2, 2], 1, 21, 10, 'true']"
p4073
(lp4074
I34
aI25
aI20
aI28
asS"[-1, 'false', [0, 10, 2], 12, 18, 8, 'true']"
p4075
(lp4076
I20
aI20
aI25
aI22
asS"[-1, 'false', [5, 3, 4], 11, 33, 13, 'false']"
p4077
(lp4078
I26
aI25
aI34
aI31
asS"[-1, 'false', [2, 4, 6], 6, 23, 8, 'false']"
p4079
(lp4080
I33
aI23
aI38
aI26
asS"[-1, 'false', [5, 2, 5], 12, 7, 12, 'false']"
p4081
(lp4082
I30
aI20
aI31
aI32
asS"[-1, 'false', [3, 5, 4], 1, 9, 17, 'true']"
p4083
(lp4084
I28
aI24
aI32
aI24
asS"[-1, 'false', [1, 4, 7], 5, 39, 8, 'true']"
p4085
(lp4086
I36
aI34
aI26
aI36
asS"[-1, 'false', [4, 7, 1], 14, 43, 13, 'false']"
p4087
(lp4088
I15
aI12
aI9
aI21
asS"[-1, 'false', [2, 5, 5], 18, 22, 9, 'true']"
p4089
(lp4090
I24
aI20
aI14
aI17
asS"[-1, 'false', [7, 3, 2], 12, 45, 7, 'false']"
p4091
(lp4092
I18
aI17
aI9
aI33
asS"[-1, 'false', [8, 1, 3], 3, 32, 7, 'true']"
p4093
(lp4094
I20
aI31
aI17
aI33
asS"[-1, 'false', [3, 7, 2], 12, 28, 10, 'false']"
p4095
(lp4096
I24
aI27
aI25
aI27
asS"[-1, 'false', [1, 5, 6], 9, 22, 6, 'true']"
p4097
(lp4098
I27
aI24
aI24
aI25
asS"[-1, 'false', [6, 1, 5], 4, 38, 9, 'true']"
p4099
(lp4100
I33
aI30
aI39
aI39
asS"[-1, 'false', [3, 2, 7], 11, 43, 8, 'true']"
p4101
(lp4102
I32
aI32
aI14
aI19
asS"[-1, 'false', [6, 1, 5], 5, 2, 11, 'false']"
p4103
(lp4104
I22
aI25
aI28
aI36
asS"[-1, 'false', [4, 5, 3], 11, 6, 12, 'false']"
p4105
(lp4106
I35
aI30
aI19
aI22
asS"[-1, 'false', [0, 2, 10], 1, 18, 9, 'true']"
p4107
(lp4108
I44
aI47
aI41
aI29
asS"[-1, 'false', [8, 1, 3], 9, 7, 5, 'true']"
p4109
(lp4110
I29
aI23
aI35
aI24
asS"[-1, 'false', [2, 6, 4], 4, 12, 3, 'false']"
p4111
(lp4112
I44
aI46
aI32
aI30
asS"[-1, 'false', [2, 7, 3], 6, 5, 3, 'true']"
p4113
(lp4114
I32
aI25
aI28
aI41
asS"[-1, 'false', [7, 2, 3], 17, 2, 11, 'true']"
p4115
(lp4116
I25
aI21
aI28
aI19
asS"[-1, 'false', [8, 3, 1], 1, 24, 14, 'true']"
p4117
(lp4118
I29
aI30
aI26
aI24
asS"[-1, 'false', [0, 5, 7], 1, 18, 6, 'true']"
p4119
(lp4120
I31
aI39
aI39
aI35
asS"[-1, 'false', [5, 2, 5], 8, 24, 13, 'true']"
p4121
(lp4122
I27
aI23
aI37
aI32
asS"[-1, 'false', [1, 2, 9], 9, 29, 11, 'true']"
p4123
(lp4124
I31
aI37
aI33
aI24
asS"[-1, 'false', [6, 3, 3], 7, 42, 8, 'false']"
p4125
(lp4126
I21
aI24
aI22
aI27
asS"[-1, 'false', [2, 5, 5], 1, 10, 7, 'true']"
p4127
(lp4128
I30
aI47
aI30
aI42
asS"[-1, 'false', [0, 4, 8], 1, 15, 5, 'true']"
p4129
(lp4130
I45
aI56
aI43
aI27
asS"[-1, 'false', [3, 7, 2], 15, 6, 9, 'true']"
p4131
(lp4132
I29
aI28
aI20
aI15
asS"[-1, 'false', [5, 2, 5], 12, 12, 14, 'false']"
p4133
(lp4134
I30
asS"[-1, 'false', [5, 2, 5], 9, 16, 10, 'true']"
p4135
(lp4136
I38
aI20
aI32
aI22
as.