(dp0
S"[-1, 'false', [1, 6, 5], 14, 42, 13, 'true']"
p1
(lp2
I17
asS"[-1, 'false', [5, 2, 5], 12, 31, 14, 'false']"
p3
(lp4
I33
aI31
asS"[-1, 'false', [7, 1, 4], 7, 35, 12, 'true']"
p5
(lp6
I24
asS"[-1, 'false', [4, 3, 5], 13, 8, 8, 'false']"
p7
(lp8
I29
asS"[-1, 'false', [9, 2, 1], 11, 37, 10, 'true']"
p9
(lp10
I24
aI26
aI31
aI7
aI19
aI15
aI31
aI14
aI21
aI13
aI26
aI20
aI13
asS"[-1, 'false', [3, 6, 3], 15, 11, 7, 'false']"
p11
(lp12
I21
asS"[-1, 'false', [0, 2, 10], 15, 27, 11, 'false']"
p13
(lp14
I30
asS"[-1, 'false', [8, 2, 2], 18, 34, 11, 'false']"
p15
(lp16
I33
asS"[-1, 'false', [9, 2, 1], 2, 1, 9, 'true']"
p17
(lp18
I28
asS"[-1, 'false', [3, 3, 6], 3, 10, 8, 'false']"
p19
(lp20
I33
asS"[-1, 'false', [4, 2, 6], 12, 49, 15, 'true']"
p21
(lp22
I23
asS"[-1, 'false', [2, 8, 2], 16, 11, 7, 'false']"
p23
(lp24
I34
asS"[-1, 'false', [5, 2, 5], 12, 24, 14, 'false']"
p25
(lp26
I25
asS"[-1, 'false', [4, 4, 4], 18, 14, 11, 'true']"
p27
(lp28
I22
asS"[-1, 'false', [6, 5, 1], 18, 5, 11, 'true']"
p29
(lp30
I21
aI18
aI24
aI20
aI19
aI25
aI27
aI28
aI22
aI20
aI23
aI25
aI20
aI22
asS"[-1, 'false', [7, 3, 2], 8, 42, 14, 'true']"
p31
(lp32
I18
aI26
aI21
aI24
aI14
aI14
aI16
aI16
aI17
aI16
asS"[-1, 'false', [6, 5, 1], 7, 35, 12, 'false']"
p33
(lp34
I25
asS"[-1, 'false', [10, 1, 1], 7, 21, 12, 'true']"
p35
(lp36
I35
aI25
asS"[-1, 'false', [4, 3, 5], 8, 11, 13, 'false']"
p37
(lp38
I22
asS"[-1, 'false', [6, 2, 4], 11, 6, 10, 'false']"
p39
(lp40
I20
asS"[-1, 'false', [10, 1, 1], 7, 35, 12, 'true']"
p41
(lp42
I23
aI26
aI29
aI20
aI21
aI20
aI33
aI36
aI13
asS"[-1, 'false', [3, 8, 1], 13, 47, 10, 'false']"
p43
(lp44
I7
asS"[-1, 'false', [4, 3, 5], 12, 8, 8, 'false']"
p45
(lp46
I25
aI25
aI35
asS"[-1, 'false', [10, 1, 1], 9, 14, 7, 'false']"
p47
(lp48
I23
asS"[-1, 'false', [4, 1, 7], 19, 29, 10, 'true']"
p49
(lp50
I11
asS"[-1, 'false', [3, 6, 3], 5, 25, 7, 'false']"
p51
(lp52
I21
aI33
asS"[-1, 'false', [6, 4, 2], 4, 15, 9, 'true']"
p53
(lp54
I31
aI21
aI21
aI9
asS"[-1, 'false', [7, 3, 2], 10, 10, 12, 'true']"
p55
(lp56
I32
asS"[-1, 'false', [10, 1, 1], 7, 35, 9, 'true']"
p57
(lp58
I25
asS"[-1, 'false', [6, 2, 4], 12, 6, 15, 'true']"
p59
(lp60
I30
asS"[-1, 'false', [6, 2, 4], 12, 6, 15, 'false']"
p61
(lp62
I21
asS"[-1, 'false', [9, 2, 1], 13, 27, 10, 'true']"
p63
(lp64
I22
asS"[-1, 'false', [3, 6, 3], 11, 12, 8, 'true']"
p65
(lp66
I24
asS"[-1, 'false', [9, 2, 1], 18, 5, 11, 'true']"
p67
(lp68
I18
aI21
asS"[-1, 'false', [5, 1, 6], 3, 32, 10, 'true']"
p69
(lp70
I39
aI30
aI42
aI31
asS"[-1, 'false', [0, 8, 4], 16, 11, 13, 'true']"
p71
(lp72
I25
asS"[-1, 'false', [1, 5, 6], 9, 17, 11, 'false']"
p73
(lp74
I20
aI24
asS"[-1, 'false', [2, 9, 1], 9, 21, 10, 'false']"
p75
(lp76
I22
asS"[-1, 'false', [1, 10, 1], 7, 35, 12, 'true']"
p77
(lp78
I11
asS"[-1, 'false', [8, 1, 3], 8, 19, 11, 'false']"
p79
(lp80
I25
aI31
aI35
aI32
asS"[-1, 'false', [1, 2, 9], 11, 49, 17, 'false']"
p81
(lp82
I21
asS"[-1, 'false', [0, 2, 10], 15, 50, 11, 'false']"
p83
(lp84
I20
asS"[-1, 'false', [5, 3, 4], 12, 31, 14, 'false']"
p85
(lp86
I16
asS"[-1, 'false', [1, 7, 4], 16, 14, 7, 'false']"
p87
(lp88
I11
asS"[-1, 'false', [9, 2, 1], 11, 13, 10, 'true']"
p89
(lp90
I26
asS"[-1, 'false', [2, 6, 4], 20, 45, 14, 'true']"
p91
(lp92
I13
asS"[-1, 'false', [6, 4, 2], 4, 24, 9, 'true']"
p93
(lp94
I21
asS"[-1, 'false', [1, 7, 4], 13, 11, 7, 'false']"
p95
(lp96
I25
asS"[-1, 'false', [6, 1, 5], 7, 20, 10, 'false']"
p97
(lp98
I32
aI33
asS"[-1, 'false', [2, 7, 3], 11, 47, 8, 'false']"
p99
(lp100
I17
asS"[-1, 'false', [0, 6, 6], 10, 15, 7, 'true']"
p101
(lp102
I27
aI25
aI27
aI25
asS"[-1, 'false', [4, 2, 6], 12, 8, 8, 'false']"
p103
(lp104
I35
asS"[-1, 'false', [8, 2, 2], 7, 21, 12, 'true']"
p105
(lp106
I35
asS"[-1, 'false', [4, 4, 4], 19, 12, 9, 'true']"
p107
(lp108
I17
asS"[-1, 'false', [6, 4, 2], 3, 37, 6, 'false']"
p109
(lp110
I22
asS"[-1, 'false', [5, 5, 2], 8, 42, 14, 'true']"
p111
(lp112
I22
asS"[-1, 'false', [3, 4, 5], 13, 34, 11, 'true']"
p113
(lp114
I22
aI29
aI19
aI16
asS"[-1, 'false', [5, 1, 6], 12, 35, 12, 'false']"
p115
(lp116
I31
asS"[-1, 'false', [4, 5, 3], 18, 11, 11, 'false']"
p117
(lp118
I27
asS"[-1, 'false', [3, 6, 3], 8, 34, 11, 'true']"
p119
(lp120
I32
asS"[-1, 'false', [7, 3, 2], 12, 8, 8, 'true']"
p121
(lp122
I24
aI25
asS"[-1, 'false', [1, 10, 1], 4, 43, 9, 'false']"
p123
(lp124
I14
aI33
aI10
asS"[-1, 'false', [5, 4, 3], 12, 28, 8, 'true']"
p125
(lp126
I27
asS"[-1, 'false', [7, 1, 4], 12, 31, 14, 'false']"
p127
(lp128
I39
aI21
aI29
asS"[-1, 'false', [3, 7, 2], 16, 4, 13, 'true']"
p129
(lp130
I30
asS"[-1, 'false', [10, 1, 1], 2, 14, 7, 'false']"
p131
(lp132
I25
aI34
asS"[-1, 'false', [1, 7, 4], 12, 31, 11, 'true']"
p133
(lp134
I35
asS"[-1, 'false', [3, 6, 3], 13, 34, 11, 'true']"
p135
(lp136
I17
aI23
aI19
aI23
asS"[-1, 'false', [9, 1, 2], 10, 10, 10, 'true']"
p137
(lp138
I23
asS"[-1, 'false', [6, 1, 5], 11, 49, 15, 'false']"
p139
(lp140
I13
asS"[-1, 'false', [0, 1, 11], 9, 9, 10, 'false']"
p141
(lp142
I32
asS"[-1, 'false', [6, 2, 4], 9, 6, 15, 'false']"
p143
(lp144
I29
asS"[-1, 'false', [8, 3, 1], 18, 5, 11, 'true']"
p145
(lp146
I24
asS"[-1, 'false', [0, 6, 6], 14, 11, 7, 'false']"
p147
(lp148
I19
asS"[-1, 'false', [1, 1, 10], 11, 30, 15, 'false']"
p149
(lp150
I24
asS"[-1, 'false', [3, 6, 3], 12, 21, 8, 'false']"
p151
(lp152
I29
asS"[-1, 'false', [0, 10, 2], 3, 19, 13, 'false']"
p153
(lp154
I30
asS"[-1, 'false', [8, 2, 2], 18, 32, 11, 'false']"
p155
(lp156
I15
asS"[-1, 'false', [9, 2, 1], 7, 35, 12, 'true']"
p157
(lp158
I20
aI21
asS"[-1, 'false', [4, 1, 7], 3, 43, 10, 'true']"
p159
(lp160
I31
asS"[-1, 'false', [1, 1, 10], 10, 10, 12, 'true']"
p161
(lp162
I32
asS"[-1, 'false', [9, 2, 1], 11, 20, 18, 'true']"
p163
(lp164
I20
asS"[-1, 'false', [4, 1, 7], 19, 21, 10, 'true']"
p165
(lp166
I25
aI14
aI12
aI25
aI25
aI32
aI27
aI15
asS"[-1, 'false', [1, 8, 3], 14, 37, 14, 'true']"
p167
(lp168
I20
asS"[-1, 'false', [6, 5, 1], 18, 27, 11, 'true']"
p169
(lp170
I11
asS"[-1, 'false', [8, 1, 3], 7, 5, 10, 'false']"
p171
(lp172
I26
aI29
aI25
aI34
aI23
aI32
aI31
aI25
asS"[-1, 'false', [3, 3, 6], 12, 31, 14, 'true']"
p173
(lp174
I23
asS"[-1, 'false', [5, 6, 1], 17, 16, 17, 'false']"
p175
(lp176
I21
asS"[-1, 'false', [6, 5, 1], 4, 43, 9, 'false']"
p177
(lp178
I18
asS"[-1, 'false', [1, 1, 10], 9, 49, 15, 'false']"
p179
(lp180
I31
asS"[-1, 'false', [4, 5, 3], 5, 25, 7, 'false']"
p181
(lp182
I34
asS"[-1, 'false', [9, 2, 1], 4, 15, 9, 'true']"
p183
(lp184
I20
aI31
aI33
aI24
asS"[-1, 'false', [5, 3, 4], 15, 12, 8, 'true']"
p185
(lp186
I31
asS"[-1, 'false', [3, 2, 7], 18, 3, 11, 'false']"
p187
(lp188
I32
asS"[-1, 'false', [4, 5, 3], 16, 17, 7, 'false']"
p189
(lp190
I29
asS"[-1, 'false', [0, 9, 3], 3, 17, 8, 'false']"
p191
(lp192
I30
asS"[-1, 'false', [6, 1, 5], 7, 5, 10, 'false']"
p193
(lp194
I27
asS"[-1, 'false', [7, 3, 2], 7, 35, 12, 'true']"
p195
(lp196
I21
asS"[-1, 'false', [1, 9, 2], 6, 21, 13, 'false']"
p197
(lp198
I25
asS"[-1, 'false', [2, 2, 8], 12, 31, 13, 'false']"
p199
(lp200
I22
asS"[-1, 'false', [10, 1, 1], 3, 12, 8, 'true']"
p201
(lp202
I28
aI23
aI22
aI23
asS"[-1, 'false', [1, 7, 4], 12, 31, 14, 'false']"
p203
(lp204
I23
asS"[-1, 'false', [9, 2, 1], 13, 37, 10, 'true']"
p205
(lp206
I11
asS"[-1, 'false', [6, 5, 1], 18, 13, 11, 'true']"
p207
(lp208
I18
aI28
aI29
asS"[-1, 'false', [0, 7, 5], 1, 45, 15, 'false']"
p209
(lp210
I28
aI42
aI39
aI33
asS"[-1, 'false', [5, 2, 5], 20, 16, 6, 'true']"
p211
(lp212
I12
asS"[-1, 'false', [9, 1, 2], 8, 30, 13, 'false']"
p213
(lp214
I33
asS"[-1, 'false', [1, 1, 10], 11, 49, 15, 'false']"
p215
(lp216
I16
aI14
aI21
aI28
aI12
aI25
aI25
aI29
aI27
aI13
aI21
asS"[-1, 'false', [9, 2, 1], 12, 6, 15, 'true']"
p217
(lp218
I25
aI23
aI29
aI18
aI22
aI23
aI33
aI27
aI22
asS"[-1, 'false', [6, 4, 2], 12, 8, 8, 'true']"
p219
(lp220
I22
asS"[-1, 'false', [2, 8, 2], 16, 4, 13, 'false']"
p221
(lp222
I23
aI23
asS"[-1, 'false', [3, 6, 3], 12, 44, 8, 'false']"
p223
(lp224
I14
aI18
aI29
aI10
asS"[-1, 'false', [2, 2, 8], 13, 39, 7, 'false']"
p225
(lp226
I10
asS"[-1, 'false', [10, 1, 1], 2, 17, 7, 'true']"
p227
(lp228
I33
asS"[-1, 'false', [2, 6, 4], 14, 34, 10, 'true']"
p229
(lp230
I14
asS"[-1, 'false', [0, 6, 6], 18, 15, 7, 'true']"
p231
(lp232
I11
aI27
aI18
aI9
asS"[-1, 'false', [6, 3, 3], 11, 47, 10, 'false']"
p233
(lp234
I23
asS"[-1, 'false', [7, 3, 2], 5, 42, 14, 'true']"
p235
(lp236
I28
asS"[-1, 'false', [3, 4, 5], 7, 45, 10, 'false']"
p237
(lp238
I33
asS"[-1, 'false', [9, 1, 2], 10, 10, 12, 'true']"
p239
(lp240
I27
aI24
asS"[-1, 'false', [4, 2, 6], 12, 31, 14, 'false']"
p241
(lp242
I21
asS"[-1, 'false', [0, 6, 6], 16, 11, 7, 'false']"
p243
(lp244
I31
asS"[-1, 'false', [3, 6, 3], 12, 12, 8, 'true']"
p245
(lp246
I20
asS"[-1, 'false', [2, 3, 7], 12, 25, 14, 'true']"
p247
(lp248
I34
asS"[-1, 'false', [1, 5, 6], 9, 13, 9, 'true']"
p249
(lp250
I39
asS"[-1, 'false', [3, 1, 8], 7, 29, 13, 'true']"
p251
(lp252
I18
asS"[-1, 'false', [2, 9, 1], 6, 21, 10, 'false']"
p253
(lp254
I21
aI16
aI13
aI30
aI21
aI24
aI33
aI26
aI12
asS"[-1, 'false', [8, 2, 2], 1, 11, 13, 'false']"
p255
(lp256
I35
asS"[-1, 'false', [0, 2, 10], 15, 43, 11, 'false']"
p257
(lp258
I26
asS"[-1, 'false', [0, 6, 6], 18, 32, 7, 'true']"
p259
(lp260
I17
aI24
aI10
aI21
asS"[-1, 'false', [3, 6, 3], 12, 21, 8, 'true']"
p261
(lp262
I35
aI19
asS"[-1, 'false', [3, 4, 5], 12, 31, 10, 'true']"
p263
(lp264
I27
asS"[-1, 'false', [6, 4, 2], 11, 37, 10, 'true']"
p265
(lp266
I26
asS"[-1, 'false', [5, 3, 4], 16, 11, 10, 'false']"
p267
(lp268
I37
asS"[-1, 'false', [9, 2, 1], 10, 10, 10, 'true']"
p269
(lp270
I16
asS"[-1, 'false', [6, 1, 5], 8, 19, 11, 'false']"
p271
(lp272
I24
aI32
aI43
aI23
asS"[-1, 'false', [6, 1, 5], 6, 35, 7, 'false']"
p273
(lp274
I27
asS"[-1, 'false', [3, 6, 3], 12, 8, 8, 'true']"
p275
(lp276
I25
aI20
aI28
aI20
aI26
aI22
aI22
aI19
aI21
aI14
asS"[-1, 'false', [0, 2, 10], 11, 49, 14, 'false']"
p277
(lp278
I6
asS"[-1, 'false', [5, 2, 5], 5, 41, 11, 'false']"
p279
(lp280
I30
asS"[-1, 'false', [3, 6, 3], 14, 37, 14, 'true']"
p281
(lp282
I13
asS"[-1, 'false', [3, 7, 2], 13, 4, 13, 'false']"
p283
(lp284
I20
asS"[-1, 'false', [5, 4, 3], 10, 10, 12, 'true']"
p285
(lp286
I32
asS"[-1, 'false', [6, 2, 4], 12, 18, 15, 'true']"
p287
(lp288
I25
asS"[-1, 'false', [4, 1, 7], 18, 11, 10, 'true']"
p289
(lp290
I23
asS"[-1, 'false', [8, 3, 1], 10, 10, 12, 'true']"
p291
(lp292
I17
asS"[-1, 'false', [7, 3, 2], 17, 16, 17, 'false']"
p293
(lp294
I16
aI24
asS"[-1, 'false', [0, 8, 4], 16, 11, 7, 'false']"
p295
(lp296
I17
aI24
aI19
aI22
aI34
aI15
aI17
aI25
asS"[-1, 'false', [8, 1, 3], 4, 23, 9, 'false']"
p297
(lp298
I23
asS"[-1, 'false', [9, 2, 1], 2, 17, 9, 'true']"
p299
(lp300
I20
aI26
asS"[-1, 'false', [8, 1, 3], 9, 5, 10, 'false']"
p301
(lp302
I28
asS"[-1, 'false', [9, 1, 2], 3, 12, 8, 'true']"
p303
(lp304
I31
asS"[-1, 'false', [4, 4, 4], 19, 12, 6, 'true']"
p305
(lp306
I22
asS"[-1, 'false', [6, 4, 2], 3, 45, 12, 'true']"
p307
(lp308
I24
asS"[-1, 'false', [6, 3, 3], 9, 41, 14, 'true']"
p309
(lp310
I18
aI17
aI14
aI16
asS"[-1, 'false', [6, 3, 3], 10, 19, 12, 'true']"
p311
(lp312
I25
asS"[-1, 'false', [1, 9, 2], 4, 6, 11, 'true']"
p313
(lp314
I19
aI25
aI27
aI34
asS"[-1, 'false', [3, 4, 5], 12, 31, 13, 'true']"
p315
(lp316
I34
aI23
asS"[-1, 'false', [1, 1, 10], 13, 49, 15, 'false']"
p317
(lp318
I44
aI29
asS"[-1, 'false', [9, 2, 1], 6, 37, 10, 'true']"
p319
(lp320
I28
asS"[-1, 'false', [0, 2, 10], 8, 20, 11, 'true']"
p321
(lp322
I32
asS"[-1, 'false', [0, 10, 2], 14, 37, 14, 'true']"
p323
(lp324
I17
aI6
aI13
aI30
aI23
asS"[-1, 'false', [8, 1, 3], 6, 11, 9, 'true']"
p325
(lp326
I24
asS"[-1, 'false', [9, 2, 1], 7, 17, 9, 'true']"
p327
(lp328
I19
asS"[-1, 'false', [5, 4, 3], 9, 23, 11, 'false']"
p329
(lp330
I34
asS"[-1, 'false', [3, 6, 3], 12, 31, 14, 'true']"
p331
(lp332
I29
asS"[-1, 'false', [5, 4, 3], 16, 36, 14, 'true']"
p333
(lp334
I25
asS"[-1, 'false', [3, 7, 2], 14, 37, 14, 'true']"
p335
(lp336
I11
asS"[-1, 'false', [6, 3, 3], 8, 10, 12, 'true']"
p337
(lp338
I25
asS"[-1, 'false', [3, 6, 3], 14, 43, 14, 'true']"
p339
(lp340
I15
asS"[-1, 'false', [3, 3, 6], 18, 11, 10, 'true']"
p341
(lp342
I33
asS"[-1, 'false', [5, 1, 6], 7, 35, 12, 'true']"
p343
(lp344
I32
asS"[-1, 'false', [7, 3, 2], 17, 14, 10, 'false']"
p345
(lp346
I24
asS"[-1, 'false', [1, 5, 6], 9, 12, 9, 'true']"
p347
(lp348
I30
aI31
asS"[-1, 'false', [7, 3, 2], 12, 6, 15, 'true']"
p349
(lp350
I23
aI26
asS"[-1, 'false', [5, 2, 5], 10, 10, 12, 'false']"
p351
(lp352
I29
aI21
asS"[-1, 'false', [3, 5, 4], 5, 25, 7, 'false']"
p353
(lp354
I41
aI25
asS"[-1, 'false', [5, 4, 3], 12, 19, 8, 'true']"
p355
(lp356
I21
asS"[-1, 'false', [2, 6, 4], 13, 34, 10, 'true']"
p357
(lp358
I25
asS"[-1, 'false', [10, 1, 1], 7, 28, 12, 'true']"
p359
(lp360
I26
asS"[-1, 'false', [8, 2, 2], 14, 42, 15, 'false']"
p361
(lp362
I23
asS"[-1, 'false', [4, 5, 3], 16, 11, 7, 'false']"
p363
(lp364
I28
aI21
aI21
asS"[-1, 'false', [8, 1, 3], 16, 35, 14, 'false']"
p365
(lp366
I18
asS"[-1, 'false', [6, 3, 3], 10, 10, 12, 'true']"
p367
(lp368
I21
aI26
aI29
aI28
aI25
aI17
aI28
aI22
aI20
asS"[-1, 'false', [3, 7, 2], 4, 43, 9, 'false']"
p369
(lp370
I22
asS"[-1, 'false', [2, 2, 8], 12, 31, 14, 'false']"
p371
(lp372
I35
aI24
aI27
aI25
aI31
aI33
aI26
aI29
aI26
asS"[-1, 'false', [5, 1, 6], 3, 49, 10, 'true']"
p373
(lp374
I36
aI27
aI32
aI37
asS"[-1, 'false', [1, 4, 7], 12, 31, 14, 'false']"
p375
(lp376
I32
asS"[-1, 'false', [1, 4, 7], 11, 49, 15, 'false']"
p377
(lp378
I14
asS"[-1, 'false', [6, 3, 3], 5, 20, 18, 'true']"
p379
(lp380
I22
aI29
asS"[-1, 'false', [0, 6, 6], 13, 11, 7, 'false']"
p381
(lp382
I25
asS"[-1, 'false', [0, 3, 9], 12, 8, 8, 'true']"
p383
(lp384
I16
asS"[-1, 'false', [2, 2, 8], 12, 31, 11, 'true']"
p385
(lp386
I33
asS"[-1, 'false', [1, 9, 2], 13, 47, 10, 'false']"
p387
(lp388
I19
aI13
asS"[-1, 'false', [4, 4, 4], 16, 11, 7, 'false']"
p389
(lp390
I26
asS"[-1, 'false', [9, 1, 2], 4, 43, 11, 'true']"
p391
(lp392
I28
asS"[-1, 'false', [0, 7, 5], 12, 44, 14, 'false']"
p393
(lp394
I24
asS"[-1, 'false', [6, 3, 3], 18, 15, 7, 'true']"
p395
(lp396
I21
asS"[-1, 'false', [6, 5, 1], 18, 5, 9, 'true']"
p397
(lp398
I21
asS"[-1, 'false', [0, 3, 9], 12, 8, 8, 'false']"
p399
(lp400
I34
aI25
asS"[-1, 'false', [10, 1, 1], 7, 21, 9, 'true']"
p401
(lp402
I37
asS"[-1, 'false', [7, 1, 4], 12, 31, 12, 'false']"
p403
(lp404
I27
aI21
aI23
asS"[-1, 'false', [6, 5, 1], 14, 17, 13, 'false']"
p405
(lp406
I24
asS"[-1, 'false', [3, 2, 7], 18, 50, 11, 'true']"
p407
(lp408
I18
asS"[-1, 'false', [9, 1, 2], 5, 14, 15, 'false']"
p409
(lp410
I19
asS"[-1, 'false', [1, 7, 4], 13, 49, 14, 'false']"
p411
(lp412
I19
asS"[-1, 'false', [2, 8, 2], 3, 29, 11, 'true']"
p413
(lp414
I27
asS"[-1, 'false', [4, 6, 2], 16, 4, 13, 'false']"
p415
(lp416
I19
asS"[-1, 'false', [7, 1, 4], 12, 6, 15, 'true']"
p417
(lp418
I45
asS"[-1, 'false', [12, 0, 0]]"
p419
(lp420
I27
aI27
aI4
aI31
aI21
aI29
aI21
aI22
aI32
aI23
aI25
aI31
aI23
aI30
aI22
aI20
aI11
aI26
aI23
aI38
aI14
asS"[-1, 'false', [0, 10, 2], 15, 29, 14, 'true']"
p421
(lp422
I30
asS"[-1, 'false', [7, 2, 3], 19, 12, 6, 'false']"
p423
(lp424
I26
asS"[-1, 'false', [3, 3, 6], 4, 1, 7, 'true']"
p425
(lp426
I23
aI26
aI31
aI22
asS"[-1, 'false', [4, 4, 4], 2, 32, 12, 'true']"
p427
(lp428
I24
asS"[-1, 'false', [1, 1, 10], 11, 49, 17, 'false']"
p429
(lp430
I26
asS"[-1, 'false', [4, 5, 3], 4, 45, 7, 'true']"
p431
(lp432
I32
asS"[-1, 'false', [1, 6, 5], 12, 31, 13, 'false']"
p433
(lp434
I31
asS"[-1, 'false', [7, 3, 2], 17, 16, 9, 'false']"
p435
(lp436
I16
aI19
asS"[-1, 'false', [5, 4, 3], 17, 17, 10, 'false']"
p437
(lp438
I22
asS"[-1, 'false', [9, 1, 2], 7, 35, 12, 'true']"
p439
(lp440
I25
aI31
aI14
asS"[-1, 'false', [6, 3, 3], 2, 46, 8, 'false']"
p441
(lp442
I30
asS"[-1, 'false', [3, 6, 3], 11, 47, 8, 'false']"
p443
(lp444
I24
aI17
asS"[-1, 'false', [3, 3, 6], 19, 21, 10, 'true']"
p445
(lp446
I16
aI33
asS"[-1, 'false', [1, 5, 6], 9, 17, 9, 'true']"
p447
(lp448
I24
aI27
aI27
aI26
aI15
aI25
aI25
aI26
aI27
aI24
asS"[-1, 'false', [3, 5, 4], 20, 1, 8, 'true']"
p449
(lp450
I28
asS"[-1, 'false', [3, 3, 6], 12, 12, 10, 'true']"
p451
(lp452
I21
asS"[-1, 'false', [3, 7, 2], 16, 4, 13, 'false']"
p453
(lp454
I22
aI19
aI25
aI25
aI32
aI22
aI25
aI19
asS"[-1, 'false', [3, 7, 2], 16, 4, 14, 'false']"
p455
(lp456
I23
asS"[-1, 'false', [4, 6, 2], 8, 36, 6, 'false']"
p457
(lp458
I23
asS"[-1, 'false', [3, 7, 2], 16, 20, 13, 'false']"
p459
(lp460
I23
asS"[-1, 'false', [1, 6, 5], 12, 31, 14, 'false']"
p461
(lp462
I23
asS"[-1, 'false', [3, 7, 2], 16, 4, 4, 'false']"
p463
(lp464
I29
asS"[-1, 'false', [0, 8, 4], 16, 13, 7, 'false']"
p465
(lp466
I25
asS"[-1, 'false', [1, 7, 4], 16, 11, 7, 'false']"
p467
(lp468
I23
asS"[-1, 'false', [3, 5, 4], 18, 5, 11, 'true']"
p469
(lp470
I23
asS"[-1, 'false', [2, 3, 7], 4, 1, 7, 'true']"
p471
(lp472
I29
aI35
aI19
aI27
asS"[-1, 'false', [0, 3, 9], 7, 8, 8, 'false']"
p473
(lp474
I30
asS"[-1, 'false', [4, 3, 5], 16, 3, 13, 'true']"
p475
(lp476
I30
asS"[-1, 'false', [6, 2, 4], 7, 35, 17, 'true']"
p477
(lp478
I24
aI28
asS"[-1, 'false', [3, 2, 7], 18, 9, 13, 'false']"
p479
(lp480
I22
aI24
aI25
aI27
aI26
asS"[-1, 'false', [2, 7, 3], 13, 47, 10, 'false']"
p481
(lp482
I25
asS"[-1, 'false', [7, 1, 4], 7, 20, 10, 'false']"
p483
(lp484
I35
asS"[-1, 'false', [8, 1, 3], 11, 13, 10, 'true']"
p485
(lp486
I29
asS"[-1, 'false', [3, 6, 3], 13, 24, 11, 'true']"
p487
(lp488
I19
asS"[-1, 'false', [8, 3, 1], 15, 40, 15, 'true']"
p489
(lp490
I28
asS"[-1, 'false', [5, 1, 6], 19, 21, 10, 'true']"
p491
(lp492
I20
aI23
asS"[-1, 'false', [10, 1, 1], 7, 35, 12, 'false']"
p493
(lp494
I19
aI33
asS"[-1, 'false', [10, 1, 1], 17, 16, 17, 'false']"
p495
(lp496
I27
asS"[-1, 'false', [7, 1, 4], 12, 32, 14, 'false']"
p497
(lp498
I37
asS"[-1, 'false', [5, 2, 5], 10, 17, 12, 'false']"
p499
(lp500
I24
aI17
aI27
asS"[-1, 'false', [6, 3, 3], 11, 47, 8, 'false']"
p501
(lp502
I15
aI4
aI19
aI25
aI24
aI26
aI25
aI17
aI22
aI21
aI18
asS"[-1, 'false', [8, 3, 1], 2, 39, 14, 'true']"
p503
(lp504
I29
aI18
asS"[-1, 'false', [2, 7, 3], 16, 11, 7, 'false']"
p505
(lp506
I24
asS"[-1, 'false', [1, 8, 3], 3, 4, 13, 'false']"
p507
(lp508
I20
asS"[-1, 'false', [9, 1, 2], 7, 35, 20, 'true']"
p509
(lp510
I36
asS"[-1, 'false', [9, 2, 1], 12, 13, 15, 'true']"
p511
(lp512
I27
asS"[-1, 'false', [1, 1, 10], 16, 4, 13, 'false']"
p513
(lp514
I36
asS"[-1, 'false', [5, 5, 2], 16, 16, 12, 'false']"
p515
(lp516
I16
asS"[-1, 'false', [5, 3, 4], 16, 11, 9, 'false']"
p517
(lp518
I18
asS"[-1, 'false', [1, 10, 1], 9, 6, 7, 'false']"
p519
(lp520
I32
asS"[-1, 'false', [3, 6, 3], 16, 11, 7, 'false']"
p521
(lp522
I24
asS"[-1, 'false', [0, 10, 2], 14, 29, 14, 'true']"
p523
(lp524
I19
asS"[-1, 'false', [2, 2, 8], 12, 31, 12, 'true']"
p525
(lp526
I21
aI18
asS"[-1, 'false', [6, 4, 2], 10, 17, 12, 'true']"
p527
(lp528
I24
asS"[-1, 'false', [8, 2, 2], 7, 35, 12, 'true']"
p529
(lp530
I22
asS"[-1, 'false', [5, 3, 4], 15, 29, 11, 'true']"
p531
(lp532
I20
asS"[-1, 'false', [1, 10, 1], 6, 21, 4, 'false']"
p533
(lp534
I16
asS"[-1, 'false', [10, 1, 1], 12, 35, 12, 'true']"
p535
(lp536
I15
asS"[-1, 'false', [7, 2, 3], 10, 10, 12, 'true']"
p537
(lp538
I30
aI25
asS"[-1, 'false', [3, 4, 5], 12, 18, 13, 'true']"
p539
(lp540
I25
asS"[-1, 'false', [4, 4, 4], 11, 47, 8, 'false']"
p541
(lp542
I10
asS"[-1, 'false', [0, 1, 11], 10, 36, 7, 'true']"
p543
(lp544
I28
asS"[-1, 'false', [6, 4, 2], 18, 5, 11, 'true']"
p545
(lp546
I29
asS"[-1, 'false', [5, 2, 5], 12, 12, 14, 'false']"
p547
(lp548
I30
asS"[-1, 'false', [0, 8, 4], 16, 14, 7, 'false']"
p549
(lp550
I24
asS"[-1, 'false', [9, 2, 1], 13, 6, 15, 'true']"
p551
(lp552
I22
asS"[-1, 'false', [2, 8, 2], 20, 45, 9, 'false']"
p553
(lp554
I6
asS"[-1, 'false', [9, 2, 1], 3, 15, 9, 'true']"
p555
(lp556
I28
aI34
aI28
asS"[-1, 'false', [9, 1, 2], 9, 33, 15, 'true']"
p557
(lp558
I28
asS"[-1, 'false', [2, 4, 6], 16, 40, 13, 'true']"
p559
(lp560
I24
asS"[-1, 'false', [1, 7, 4], 12, 12, 11, 'true']"
p561
(lp562
I30
as.