(dp0
S"[-1, 'false', [3, 7, 2], 16, 4, 14, 'false']"
p1
(lp2
I23
asS"[-1, 'false', [1, 6, 5], 14, 42, 13, 'true']"
p3
(lp4
I17
asS"[-1, 'false', [5, 2, 5], 12, 31, 14, 'false']"
p5
(lp6
I33
aI31
asS"[-1, 'false', [7, 1, 4], 7, 35, 12, 'true']"
p7
(lp8
I24
asS"[-1, 'false', [4, 3, 5], 13, 8, 8, 'false']"
p9
(lp10
I29
asS"[-1, 'false', [9, 2, 1], 11, 37, 10, 'true']"
p11
(lp12
I24
aI26
aI31
aI7
aI19
aI15
aI31
aI14
aI21
aI13
aI26
aI20
aI13
asS"[-1, 'false', [3, 6, 3], 15, 11, 7, 'false']"
p13
(lp14
I21
asS"[-1, 'false', [0, 2, 10], 15, 27, 11, 'false']"
p15
(lp16
I30
asS"[-1, 'false', [8, 2, 2], 18, 34, 11, 'false']"
p17
(lp18
I33
asS"[-1, 'false', [9, 2, 1], 2, 1, 9, 'true']"
p19
(lp20
I28
asS"[-1, 'false', [3, 3, 6], 3, 10, 8, 'false']"
p21
(lp22
I33
asS"[-1, 'false', [4, 2, 6], 12, 49, 15, 'true']"
p23
(lp24
I23
asS"[-1, 'false', [2, 8, 2], 16, 11, 7, 'false']"
p25
(lp26
I34
asS"[-1, 'false', [5, 2, 5], 12, 24, 14, 'false']"
p27
(lp28
I25
asS"[-1, 'false', [4, 4, 4], 18, 14, 11, 'true']"
p29
(lp30
I22
asS"[-1, 'false', [6, 5, 1], 18, 5, 11, 'true']"
p31
(lp32
I21
aI18
aI24
aI20
aI19
aI25
aI27
aI28
aI22
aI20
aI23
aI25
aI20
aI22
asS"[-1, 'false', [7, 3, 2], 8, 42, 14, 'true']"
p33
(lp34
I18
aI26
aI21
aI24
aI14
aI14
aI16
aI16
aI17
aI16
asS"[-1, 'false', [6, 5, 1], 7, 35, 12, 'false']"
p35
(lp36
I25
asS"[-1, 'false', [4, 3, 5], 8, 11, 13, 'false']"
p37
(lp38
I22
asS"[-1, 'false', [6, 2, 4], 11, 6, 10, 'false']"
p39
(lp40
I20
asS"[-1, 'false', [10, 1, 1], 7, 35, 12, 'true']"
p41
(lp42
I23
aI26
aI29
aI20
aI21
aI20
aI33
aI36
aI13
asS"[-1, 'false', [3, 8, 1], 13, 47, 10, 'false']"
p43
(lp44
I7
asS"[-1, 'false', [10, 1, 1], 9, 14, 7, 'false']"
p45
(lp46
I23
asS"[-1, 'false', [4, 1, 7], 19, 29, 10, 'true']"
p47
(lp48
I11
asS"[-1, 'false', [3, 6, 3], 5, 25, 7, 'false']"
p49
(lp50
I21
aI33
asS"[-1, 'false', [7, 3, 2], 10, 10, 12, 'true']"
p51
(lp52
I32
asS"[-1, 'false', [8, 1, 3], 7, 35, 12, 'false']"
p53
(lp54
I29
asS"[-1, 'false', [10, 1, 1], 7, 35, 9, 'true']"
p55
(lp56
I25
asS"[-1, 'false', [6, 2, 4], 12, 6, 15, 'true']"
p57
(lp58
I30
asS"[-1, 'false', [10, 1, 1], 7, 33, 12, 'true']"
p59
(lp60
I19
asS"[-1, 'false', [6, 2, 4], 12, 6, 15, 'false']"
p61
(lp62
I21
asS"[-1, 'false', [4, 6, 2], 6, 21, 10, 'false']"
p63
(lp64
I20
aI21
asS"[-1, 'false', [9, 2, 1], 13, 27, 10, 'true']"
p65
(lp66
I22
asS"[-1, 'false', [3, 6, 3], 11, 12, 8, 'true']"
p67
(lp68
I24
asS"[-1, 'false', [9, 2, 1], 18, 5, 11, 'true']"
p69
(lp70
I18
aI21
asS"[-1, 'false', [0, 8, 4], 16, 11, 13, 'true']"
p71
(lp72
I25
asS"[-1, 'false', [1, 5, 6], 9, 17, 11, 'false']"
p73
(lp74
I20
aI24
asS"[-1, 'false', [0, 10, 2], 14, 37, 14, 'true']"
p75
(lp76
I17
aI6
aI13
aI30
aI23
asS"[-1, 'false', [2, 2, 8], 12, 31, 14, 'false']"
p77
(lp78
I35
aI24
aI27
aI25
aI31
aI33
aI26
aI29
aI26
asS"[-1, 'false', [1, 10, 1], 7, 35, 12, 'true']"
p79
(lp80
I11
asS"[-1, 'false', [1, 2, 9], 11, 49, 17, 'false']"
p81
(lp82
I21
asS"[-1, 'false', [0, 2, 10], 15, 50, 11, 'false']"
p83
(lp84
I20
asS"[-1, 'false', [5, 3, 4], 12, 31, 14, 'false']"
p85
(lp86
I16
asS"[-1, 'false', [1, 7, 4], 16, 14, 7, 'false']"
p87
(lp88
I11
asS"[-1, 'false', [9, 2, 1], 11, 13, 10, 'true']"
p89
(lp90
I26
asS"[-1, 'false', [2, 6, 4], 20, 45, 14, 'true']"
p91
(lp92
I13
asS"[-1, 'false', [1, 7, 4], 13, 11, 7, 'false']"
p93
(lp94
I25
asS"[-1, 'false', [6, 1, 5], 7, 20, 10, 'false']"
p95
(lp96
I32
aI33
asS"[-1, 'false', [2, 7, 3], 11, 47, 8, 'false']"
p97
(lp98
I17
asS"[-1, 'false', [4, 2, 6], 12, 8, 8, 'false']"
p99
(lp100
I35
asS"[-1, 'false', [8, 2, 2], 7, 21, 12, 'true']"
p101
(lp102
I35
asS"[-1, 'false', [4, 4, 4], 19, 12, 9, 'true']"
p103
(lp104
I17
asS"[-1, 'false', [6, 4, 2], 3, 37, 6, 'false']"
p105
(lp106
I22
asS"[-1, 'false', [5, 5, 2], 8, 42, 14, 'true']"
p107
(lp108
I22
asS"[-1, 'false', [5, 1, 6], 12, 35, 12, 'false']"
p109
(lp110
I31
asS"[-1, 'false', [4, 5, 3], 18, 11, 11, 'false']"
p111
(lp112
I27
asS"[-1, 'false', [7, 3, 2], 12, 8, 8, 'true']"
p113
(lp114
I24
aI25
asS"[-1, 'false', [1, 9, 2], 6, 21, 13, 'false']"
p115
(lp116
I25
asS"[-1, 'false', [5, 4, 3], 12, 28, 8, 'true']"
p117
(lp118
I27
asS"[-1, 'false', [7, 1, 4], 12, 31, 14, 'false']"
p119
(lp120
I39
aI21
aI29
asS"[-1, 'false', [10, 1, 1], 2, 14, 7, 'false']"
p121
(lp122
I25
aI34
asS"[-1, 'false', [1, 7, 4], 12, 31, 11, 'true']"
p123
(lp124
I35
asS"[-1, 'false', [9, 1, 2], 10, 10, 10, 'true']"
p125
(lp126
I23
asS"[-1, 'false', [4, 5, 3], 16, 17, 7, 'false']"
p127
(lp128
I29
asS"[-1, 'false', [6, 2, 4], 9, 6, 15, 'false']"
p129
(lp130
I29
asS"[-1, 'false', [8, 3, 1], 18, 5, 11, 'true']"
p131
(lp132
I24
asS"[-1, 'false', [0, 6, 6], 14, 11, 7, 'false']"
p133
(lp134
I19
asS"[-1, 'false', [1, 1, 10], 11, 30, 15, 'false']"
p135
(lp136
I24
asS"[-1, 'false', [3, 6, 3], 12, 21, 8, 'false']"
p137
(lp138
I29
asS"[-1, 'false', [0, 10, 2], 3, 19, 13, 'false']"
p139
(lp140
I30
asS"[-1, 'false', [8, 2, 2], 18, 32, 11, 'false']"
p141
(lp142
I15
asS"[-1, 'false', [9, 2, 1], 7, 35, 12, 'true']"
p143
(lp144
I20
aI21
asS"[-1, 'false', [4, 1, 7], 3, 43, 10, 'true']"
p145
(lp146
I31
asS"[-1, 'false', [1, 1, 10], 10, 10, 12, 'true']"
p147
(lp148
I32
asS"[-1, 'false', [9, 2, 1], 11, 20, 18, 'true']"
p149
(lp150
I20
asS"[-1, 'false', [4, 1, 7], 19, 21, 10, 'true']"
p151
(lp152
I25
aI14
aI12
aI25
aI25
aI32
aI27
aI15
asS"[-1, 'false', [1, 8, 3], 14, 37, 14, 'true']"
p153
(lp154
I20
asS"[-1, 'false', [6, 5, 1], 18, 27, 11, 'true']"
p155
(lp156
I11
asS"[-1, 'false', [8, 1, 3], 7, 5, 10, 'false']"
p157
(lp158
I26
aI29
aI25
aI34
aI23
aI32
aI31
aI25
asS"[-1, 'false', [3, 3, 6], 12, 31, 14, 'true']"
p159
(lp160
I23
asS"[-1, 'false', [1, 10, 1], 4, 43, 9, 'false']"
p161
(lp162
I14
aI33
aI10
asS"[-1, 'false', [6, 5, 1], 4, 43, 9, 'false']"
p163
(lp164
I18
asS"[-1, 'false', [4, 4, 4], 2, 32, 12, 'true']"
p165
(lp166
I24
asS"[-1, 'false', [4, 5, 3], 5, 25, 7, 'false']"
p167
(lp168
I34
asS"[-1, 'false', [5, 3, 4], 15, 12, 8, 'true']"
p169
(lp170
I31
asS"[-1, 'false', [3, 2, 7], 18, 3, 11, 'false']"
p171
(lp172
I32
asS"[-1, 'false', [4, 3, 5], 16, 3, 13, 'true']"
p173
(lp174
I30
asS"[-1, 'false', [0, 9, 3], 3, 17, 8, 'false']"
p175
(lp176
I30
asS"[-1, 'false', [6, 1, 5], 7, 5, 10, 'false']"
p177
(lp178
I27
asS"[-1, 'false', [7, 3, 2], 7, 35, 12, 'true']"
p179
(lp180
I21
asS"[-1, 'false', [2, 2, 8], 12, 31, 13, 'false']"
p181
(lp182
I22
asS"[-1, 'false', [10, 1, 1], 7, 21, 12, 'true']"
p183
(lp184
I35
aI25
asS"[-1, 'false', [1, 7, 4], 12, 31, 14, 'false']"
p185
(lp186
I23
asS"[-1, 'false', [9, 2, 1], 13, 37, 10, 'true']"
p187
(lp188
I11
asS"[-1, 'false', [6, 5, 1], 18, 13, 11, 'true']"
p189
(lp190
I18
aI28
aI29
asS"[-1, 'false', [5, 2, 5], 20, 16, 6, 'true']"
p191
(lp192
I12
asS"[-1, 'false', [3, 7, 2], 16, 4, 13, 'true']"
p193
(lp194
I30
asS"[-1, 'false', [1, 1, 10], 11, 49, 15, 'false']"
p195
(lp196
I16
aI14
aI21
aI28
aI12
aI25
aI25
aI29
aI27
aI13
aI21
asS"[-1, 'false', [9, 2, 1], 12, 6, 15, 'true']"
p197
(lp198
I25
aI23
aI29
aI18
aI22
aI23
aI33
aI27
aI22
asS"[-1, 'false', [6, 4, 2], 12, 8, 8, 'true']"
p199
(lp200
I22
asS"[-1, 'false', [2, 8, 2], 16, 4, 13, 'false']"
p201
(lp202
I23
aI23
asS"[-1, 'false', [8, 3, 1], 2, 39, 14, 'true']"
p203
(lp204
I29
aI18
asS"[-1, 'false', [2, 2, 8], 13, 39, 7, 'false']"
p205
(lp206
I10
asS"[-1, 'false', [10, 1, 1], 2, 17, 7, 'true']"
p207
(lp208
I33
asS"[-1, 'false', [0, 9, 3], 5, 47, 8, 'false']"
p209
(lp210
I29
asS"[-1, 'false', [2, 6, 4], 14, 34, 10, 'true']"
p211
(lp212
I14
asS"[-1, 'false', [6, 3, 3], 11, 47, 10, 'false']"
p213
(lp214
I23
asS"[-1, 'false', [7, 3, 2], 5, 42, 14, 'true']"
p215
(lp216
I28
asS"[-1, 'false', [9, 1, 2], 10, 13, 12, 'true']"
p217
(lp218
I29
asS"[-1, 'false', [3, 4, 5], 7, 45, 10, 'false']"
p219
(lp220
I33
asS"[-1, 'false', [9, 1, 2], 10, 10, 12, 'true']"
p221
(lp222
I27
aI24
asS"[-1, 'false', [4, 2, 6], 12, 31, 14, 'false']"
p223
(lp224
I21
asS"[-1, 'false', [0, 6, 6], 16, 11, 7, 'false']"
p225
(lp226
I31
asS"[-1, 'false', [3, 6, 3], 12, 12, 8, 'true']"
p227
(lp228
I20
asS"[-1, 'false', [2, 3, 7], 12, 25, 14, 'true']"
p229
(lp230
I34
asS"[-1, 'false', [1, 5, 6], 9, 13, 9, 'true']"
p231
(lp232
I39
asS"[-1, 'false', [3, 1, 8], 7, 29, 13, 'true']"
p233
(lp234
I18
asS"[-1, 'false', [2, 9, 1], 6, 21, 10, 'false']"
p235
(lp236
I21
aI16
aI13
aI30
aI21
aI24
aI33
aI26
aI12
asS"[-1, 'false', [8, 2, 2], 1, 11, 13, 'false']"
p237
(lp238
I35
asS"[-1, 'false', [0, 2, 10], 15, 43, 11, 'false']"
p239
(lp240
I26
asS"[-1, 'false', [3, 4, 5], 12, 31, 10, 'true']"
p241
(lp242
I27
asS"[-1, 'false', [6, 4, 2], 11, 37, 10, 'true']"
p243
(lp244
I26
asS"[-1, 'false', [5, 3, 4], 16, 11, 10, 'false']"
p245
(lp246
I37
asS"[-1, 'false', [9, 2, 1], 10, 10, 10, 'true']"
p247
(lp248
I16
asS"[-1, 'false', [4, 6, 2], 16, 4, 13, 'false']"
p249
(lp250
I19
asS"[-1, 'false', [6, 1, 5], 6, 35, 7, 'false']"
p251
(lp252
I27
asS"[-1, 'false', [3, 6, 3], 12, 8, 8, 'true']"
p253
(lp254
I25
aI20
aI28
aI20
aI26
aI22
aI22
aI19
aI21
aI14
asS"[-1, 'false', [0, 2, 10], 11, 49, 14, 'false']"
p255
(lp256
I6
asS"[-1, 'false', [5, 2, 5], 5, 41, 11, 'false']"
p257
(lp258
I30
asS"[-1, 'false', [3, 6, 3], 14, 37, 14, 'true']"
p259
(lp260
I13
asS"[-1, 'false', [3, 7, 2], 13, 4, 13, 'false']"
p261
(lp262
I20
asS"[-1, 'false', [5, 4, 3], 10, 10, 12, 'true']"
p263
(lp264
I32
asS"[-1, 'false', [6, 2, 4], 12, 18, 15, 'true']"
p265
(lp266
I25
asS"[-1, 'false', [4, 1, 7], 18, 11, 10, 'true']"
p267
(lp268
I23
asS"[-1, 'false', [8, 3, 1], 10, 10, 12, 'true']"
p269
(lp270
I17
asS"[-1, 'false', [7, 3, 2], 17, 16, 17, 'false']"
p271
(lp272
I16
aI24
asS"[-1, 'false', [0, 8, 4], 16, 11, 7, 'false']"
p273
(lp274
I17
aI24
aI19
aI22
aI34
aI15
aI17
aI25
asS"[-1, 'false', [8, 1, 3], 4, 23, 9, 'false']"
p275
(lp276
I23
asS"[-1, 'false', [9, 2, 1], 2, 17, 9, 'true']"
p277
(lp278
I20
aI26
asS"[-1, 'false', [8, 1, 3], 9, 5, 10, 'false']"
p279
(lp280
I28
asS"[-1, 'false', [2, 2, 8], 12, 31, 11, 'true']"
p281
(lp282
I33
asS"[-1, 'false', [6, 4, 2], 3, 45, 12, 'true']"
p283
(lp284
I24
asS"[-1, 'false', [6, 3, 3], 9, 41, 14, 'true']"
p285
(lp286
I18
asS"[-1, 'false', [6, 3, 3], 10, 19, 12, 'true']"
p287
(lp288
I25
asS"[-1, 'false', [3, 4, 5], 12, 31, 13, 'true']"
p289
(lp290
I34
aI23
asS"[-1, 'false', [1, 1, 10], 13, 49, 15, 'false']"
p291
(lp292
I44
aI29
asS"[-1, 'false', [0, 2, 10], 8, 20, 11, 'true']"
p293
(lp294
I32
asS"[-1, 'false', [0, 6, 6], 13, 11, 7, 'false']"
p295
(lp296
I25
asS"[-1, 'false', [8, 1, 3], 6, 11, 9, 'true']"
p297
(lp298
I24
asS"[-1, 'false', [9, 2, 1], 7, 17, 9, 'true']"
p299
(lp300
I19
asS"[-1, 'false', [5, 4, 3], 9, 23, 11, 'false']"
p301
(lp302
I34
asS"[-1, 'false', [3, 6, 3], 12, 31, 14, 'true']"
p303
(lp304
I29
asS"[-1, 'false', [5, 4, 3], 16, 36, 14, 'true']"
p305
(lp306
I25
asS"[-1, 'false', [3, 7, 2], 14, 37, 14, 'true']"
p307
(lp308
I11
asS"[-1, 'false', [6, 3, 3], 8, 10, 12, 'true']"
p309
(lp310
I25
asS"[-1, 'false', [3, 6, 3], 14, 43, 14, 'true']"
p311
(lp312
I15
asS"[-1, 'false', [3, 3, 6], 18, 11, 10, 'true']"
p313
(lp314
I33
asS"[-1, 'false', [5, 1, 6], 7, 35, 12, 'true']"
p315
(lp316
I32
asS"[-1, 'false', [6, 3, 3], 10, 14, 12, 'true']"
p317
(lp318
I28
asS"[-1, 'false', [7, 3, 2], 17, 14, 10, 'false']"
p319
(lp320
I24
asS"[-1, 'false', [1, 5, 6], 9, 12, 9, 'true']"
p321
(lp322
I30
aI31
asS"[-1, 'false', [7, 3, 2], 12, 6, 15, 'true']"
p323
(lp324
I23
aI26
asS"[-1, 'false', [4, 4, 4], 16, 11, 7, 'false']"
p325
(lp326
I26
asS"[-1, 'false', [3, 5, 4], 5, 25, 7, 'false']"
p327
(lp328
I41
aI25
asS"[-1, 'false', [5, 4, 3], 17, 17, 10, 'false']"
p329
(lp330
I22
asS"[-1, 'false', [2, 6, 4], 13, 34, 10, 'true']"
p331
(lp332
I25
asS"[-1, 'false', [10, 1, 1], 7, 28, 12, 'true']"
p333
(lp334
I26
asS"[-1, 'false', [8, 2, 2], 14, 42, 15, 'false']"
p335
(lp336
I23
asS"[-1, 'false', [4, 5, 3], 16, 11, 7, 'false']"
p337
(lp338
I28
aI21
aI21
asS"[-1, 'false', [8, 2, 2], 10, 13, 12, 'true']"
p339
(lp340
I35
asS"[-1, 'false', [6, 1, 5], 11, 49, 15, 'false']"
p341
(lp342
I13
asS"[-1, 'false', [6, 3, 3], 10, 10, 12, 'true']"
p343
(lp344
I21
aI26
aI29
aI28
aI25
aI17
aI28
aI22
aI20
asS"[-1, 'false', [3, 7, 2], 4, 43, 9, 'false']"
p345
(lp346
I22
asS"[-1, 'false', [4, 4, 4], 11, 47, 8, 'false']"
p347
(lp348
I10
asS"[-1, 'false', [5, 1, 6], 3, 49, 10, 'true']"
p349
(lp350
I36
asS"[-1, 'false', [1, 4, 7], 12, 31, 14, 'false']"
p351
(lp352
I32
asS"[-1, 'false', [1, 4, 7], 11, 49, 15, 'false']"
p353
(lp354
I14
asS"[-1, 'false', [6, 3, 3], 5, 20, 18, 'true']"
p355
(lp356
I22
aI29
asS"[-1, 'false', [10, 1, 1], 4, 43, 11, 'false']"
p357
(lp358
I16
asS"[-1, 'false', [4, 4, 4], 19, 12, 6, 'true']"
p359
(lp360
I22
asS"[-1, 'false', [2, 9, 1], 9, 21, 10, 'false']"
p361
(lp362
I22
asS"[-1, 'false', [0, 3, 9], 12, 8, 8, 'true']"
p363
(lp364
I16
asS"[-1, 'false', [3, 4, 5], 10, 10, 12, 'true']"
p365
(lp366
I20
aI25
asS"[-1, 'false', [1, 9, 2], 13, 47, 10, 'false']"
p367
(lp368
I19
aI13
asS"[-1, 'false', [6, 3, 3], 2, 46, 8, 'false']"
p369
(lp370
I30
asS"[-1, 'false', [0, 1, 11], 9, 9, 10, 'false']"
p371
(lp372
I32
asS"[-1, 'false', [9, 1, 2], 4, 43, 11, 'true']"
p373
(lp374
I28
asS"[-1, 'false', [0, 7, 5], 12, 44, 14, 'false']"
p375
(lp376
I24
asS"[-1, 'false', [6, 5, 1], 18, 5, 9, 'true']"
p377
(lp378
I21
asS"[-1, 'false', [0, 3, 9], 12, 8, 8, 'false']"
p379
(lp380
I34
aI25
asS"[-1, 'false', [10, 1, 1], 7, 21, 9, 'true']"
p381
(lp382
I37
asS"[-1, 'false', [7, 1, 4], 12, 31, 12, 'false']"
p383
(lp384
I27
aI21
aI23
asS"[-1, 'false', [6, 5, 1], 14, 17, 13, 'false']"
p385
(lp386
I24
asS"[-1, 'false', [3, 2, 7], 18, 50, 11, 'true']"
p387
(lp388
I18
asS"[-1, 'false', [9, 1, 2], 5, 14, 15, 'false']"
p389
(lp390
I19
asS"[-1, 'false', [1, 7, 4], 13, 49, 14, 'false']"
p391
(lp392
I19
asS"[-1, 'false', [2, 8, 2], 3, 29, 11, 'true']"
p393
(lp394
I27
asS"[-1, 'false', [5, 6, 1], 17, 16, 17, 'false']"
p395
(lp396
I21
asS"[-1, 'false', [7, 4, 1], 6, 21, 10, 'false']"
p397
(lp398
I15
asS"[-1, 'false', [7, 1, 4], 12, 6, 15, 'true']"
p399
(lp400
I45
asS"[-1, 'false', [4, 6, 2], 8, 36, 6, 'false']"
p401
(lp402
I23
asS"[-1, 'false', [12, 0, 0]]"
p403
(lp404
I27
aI27
aI4
aI31
aI21
aI29
aI21
aI22
aI32
aI23
aI25
aI31
aI23
aI30
aI22
aI20
aI11
aI26
aI23
aI38
aI14
asS"[-1, 'false', [0, 10, 2], 15, 29, 14, 'true']"
p405
(lp406
I30
asS"[-1, 'false', [7, 2, 3], 19, 12, 6, 'false']"
p407
(lp408
I26
asS"[-1, 'false', [1, 1, 10], 9, 49, 15, 'false']"
p409
(lp410
I31
asS"[-1, 'false', [1, 1, 10], 11, 49, 17, 'false']"
p411
(lp412
I26
asS"[-1, 'false', [4, 5, 3], 4, 45, 7, 'true']"
p413
(lp414
I32
asS"[-1, 'false', [1, 6, 5], 12, 31, 13, 'false']"
p415
(lp416
I31
asS"[-1, 'false', [8, 3, 1], 4, 43, 11, 'false']"
p417
(lp418
I28
asS"[-1, 'false', [7, 3, 2], 17, 16, 9, 'false']"
p419
(lp420
I16
aI19
asS"[-1, 'false', [9, 1, 2], 7, 35, 12, 'true']"
p421
(lp422
I25
aI31
aI14
asS"[-1, 'false', [0, 9, 3], 11, 47, 8, 'false']"
p423
(lp424
I25
aI18
asS"[-1, 'false', [3, 6, 3], 11, 47, 8, 'false']"
p425
(lp426
I24
aI17
asS"[-1, 'false', [3, 3, 6], 19, 21, 10, 'true']"
p427
(lp428
I16
aI33
asS"[-1, 'false', [1, 5, 6], 9, 17, 9, 'true']"
p429
(lp430
I24
aI27
aI27
aI26
aI15
aI25
aI25
aI26
aI27
aI24
asS"[-1, 'false', [3, 5, 4], 20, 1, 8, 'true']"
p431
(lp432
I28
asS"[-1, 'false', [3, 3, 6], 12, 12, 10, 'true']"
p433
(lp434
I21
asS"[-1, 'false', [3, 7, 2], 16, 4, 13, 'false']"
p435
(lp436
I22
aI19
aI25
aI25
aI32
aI22
aI25
aI19
asS"[-1, 'false', [3, 6, 3], 12, 21, 8, 'true']"
p437
(lp438
I35
aI19
asS"[-1, 'false', [5, 2, 5], 10, 10, 12, 'false']"
p439
(lp440
I29
aI21
asS"[-1, 'false', [2, 2, 8], 12, 33, 14, 'false']"
p441
(lp442
I19
asS"[-1, 'false', [3, 7, 2], 16, 20, 13, 'false']"
p443
(lp444
I23
asS"[-1, 'false', [1, 7, 4], 16, 11, 7, 'false']"
p445
(lp446
I23
asS"[-1, 'false', [1, 6, 5], 12, 31, 14, 'false']"
p447
(lp448
I23
asS"[-1, 'false', [3, 7, 2], 16, 4, 4, 'false']"
p449
(lp450
I29
asS"[-1, 'false', [0, 8, 4], 16, 13, 7, 'false']"
p451
(lp452
I25
asS"[-1, 'false', [4, 3, 5], 12, 8, 8, 'false']"
p453
(lp454
I25
aI25
aI35
asS"[-1, 'false', [3, 5, 4], 18, 5, 11, 'true']"
p455
(lp456
I23
asS"[-1, 'false', [0, 3, 9], 7, 8, 8, 'false']"
p457
(lp458
I30
asS"[-1, 'false', [6, 2, 4], 7, 35, 17, 'true']"
p459
(lp460
I24
aI28
asS"[-1, 'false', [3, 2, 7], 18, 9, 13, 'false']"
p461
(lp462
I22
aI24
aI25
aI27
aI26
asS"[-1, 'false', [2, 7, 3], 13, 47, 10, 'false']"
p463
(lp464
I25
asS"[-1, 'false', [7, 1, 4], 7, 20, 10, 'false']"
p465
(lp466
I35
asS"[-1, 'false', [8, 1, 3], 11, 13, 10, 'true']"
p467
(lp468
I29
asS"[-1, 'false', [5, 4, 3], 12, 19, 8, 'true']"
p469
(lp470
I21
asS"[-1, 'false', [8, 3, 1], 15, 40, 15, 'true']"
p471
(lp472
I28
asS"[-1, 'false', [5, 1, 6], 19, 21, 10, 'true']"
p473
(lp474
I20
aI23
asS"[-1, 'false', [10, 1, 1], 7, 35, 12, 'false']"
p475
(lp476
I19
aI33
asS"[-1, 'false', [10, 1, 1], 17, 16, 17, 'false']"
p477
(lp478
I27
asS"[-1, 'false', [7, 1, 4], 12, 32, 14, 'false']"
p479
(lp480
I37
asS"[-1, 'false', [5, 2, 5], 10, 17, 12, 'false']"
p481
(lp482
I24
aI17
aI27
asS"[-1, 'false', [6, 3, 3], 11, 47, 8, 'false']"
p483
(lp484
I15
aI4
aI19
aI25
aI24
aI26
aI25
aI17
aI22
aI21
aI18
asS"[-1, 'false', [8, 1, 3], 16, 35, 14, 'false']"
p485
(lp486
I18
asS"[-1, 'false', [2, 7, 3], 16, 11, 7, 'false']"
p487
(lp488
I24
asS"[-1, 'false', [1, 8, 3], 3, 4, 13, 'false']"
p489
(lp490
I20
asS"[-1, 'false', [9, 1, 2], 7, 35, 20, 'true']"
p491
(lp492
I36
asS"[-1, 'false', [9, 2, 1], 12, 13, 15, 'true']"
p493
(lp494
I27
asS"[-1, 'false', [9, 2, 1], 6, 37, 10, 'true']"
p495
(lp496
I28
asS"[-1, 'false', [5, 5, 2], 16, 16, 12, 'false']"
p497
(lp498
I16
asS"[-1, 'false', [5, 3, 4], 16, 11, 9, 'false']"
p499
(lp500
I18
asS"[-1, 'false', [1, 10, 1], 9, 6, 7, 'false']"
p501
(lp502
I32
asS"[-1, 'false', [3, 6, 3], 16, 11, 7, 'false']"
p503
(lp504
I24
asS"[-1, 'false', [0, 10, 2], 14, 29, 14, 'true']"
p505
(lp506
I19
asS"[-1, 'false', [9, 1, 2], 8, 30, 13, 'false']"
p507
(lp508
I33
asS"[-1, 'false', [2, 2, 8], 12, 31, 12, 'true']"
p509
(lp510
I21
aI18
asS"[-1, 'false', [6, 4, 2], 10, 17, 12, 'true']"
p511
(lp512
I24
asS"[-1, 'false', [8, 2, 2], 7, 35, 12, 'true']"
p513
(lp514
I22
asS"[-1, 'false', [5, 3, 4], 15, 29, 11, 'true']"
p515
(lp516
I20
asS"[-1, 'false', [1, 10, 1], 6, 21, 4, 'false']"
p517
(lp518
I16
asS"[-1, 'false', [10, 1, 1], 12, 35, 12, 'true']"
p519
(lp520
I15
asS"[-1, 'false', [7, 2, 3], 10, 10, 12, 'true']"
p521
(lp522
I30
aI25
asS"[-1, 'false', [3, 4, 5], 12, 18, 13, 'true']"
p523
(lp524
I25
asS"[-1, 'false', [0, 1, 11], 10, 36, 7, 'true']"
p525
(lp526
I28
asS"[-1, 'false', [6, 4, 2], 18, 5, 11, 'true']"
p527
(lp528
I29
asS"[-1, 'false', [5, 2, 5], 12, 12, 14, 'false']"
p529
(lp530
I30
asS"[-1, 'false', [0, 8, 4], 16, 14, 7, 'false']"
p531
(lp532
I24
asS"[-1, 'false', [9, 2, 1], 13, 6, 15, 'true']"
p533
(lp534
I22
asS"[-1, 'false', [1, 1, 10], 16, 4, 13, 'false']"
p535
(lp536
I36
asS"[-1, 'false', [2, 8, 2], 20, 45, 9, 'false']"
p537
(lp538
I6
asS"[-1, 'false', [6, 3, 3], 10, 13, 12, 'true']"
p539
(lp540
I26
aI37
asS"[-1, 'false', [9, 1, 2], 9, 33, 15, 'true']"
p541
(lp542
I28
asS"[-1, 'false', [2, 4, 6], 16, 40, 13, 'true']"
p543
(lp544
I24
asS"[-1, 'false', [1, 7, 4], 12, 12, 11, 'true']"
p545
(lp546
I30
as.