(dp0
S"[-1, 10, [3, 0, 9], 'false', 300, 2000, 50]"
p1
I90
sS"[-1, 10, [2, 5, 5], 'false', 300, 2000, 50]"
p2
I101
sS"[-1, 10, [1, 8, 3], 'false', 300, 2000, 50]"
p3
I108
sS"[-1, 11, [1, 6, 5], 'false', 300, 2000, 50]"
p4
I96
sS"[-1, 10, [6, 4, 2], 'false', 300, 2000, 50]"
p5
I100
sS"[-1, 10, [7, 4, 1], 'false', 300, 2000, 50]"
p6
I83
sS"[-1, 10, [8, 1, 3], 'false', 300, 2000, 50]"
p7
I92
sS"[-1, 11, [11, 1, 0], 'false', 300, 2000, 50]"
p8
I93
sS"[-1, 10, [11, 0, 1], 'false', 300, 2000, 50]"
p9
I90
sS"[-1, 11, [2, 4, 6], 'false', 300, 2000, 50]"
p10
I108
sS"[-1, 10, [1, 6, 5], 'false', 300, 2000, 50]"
p11
I109
sS"[-1, 11, [8, 0, 4], 'false', 300, 2000, 50]"
p12
I87
sS"[-1, 11, [2, 9, 1], 'false', 300, 2000, 50]"
p13
I84
sS"[-1, 11, [3, 8, 1], 'false', 300, 2000, 50]"
p14
I89
sS"[-1, 11, [9, 3, 0], 'false', 300, 2000, 50]"
p15
I93
sS"[-1, 10, [0, 6, 6], 'false', 300, 2000, 50]"
p16
I104
sS"[-1, 11, [0, 8, 4], 'false', 300, 2000, 50]"
p17
I105
sS"[-1, 11, [3, 5, 4], 'false', 300, 2000, 50]"
p18
I79
sS"[-1, 10, [8, 0, 4], 'false', 300, 2000, 50]"
p19
I90
sS"[-1, 10, [3, 1, 8], 'false', 300, 2000, 50]"
p20
I95
sS"[-1, 11, [0, 6, 6], 'false', 300, 2000, 50]"
p21
I120
sS"[-1, 10, [4, 6, 2], 'false', 300, 2000, 50]"
p22
I98
sS"[-1, 11, [3, 6, 3], 'false', 300, 2000, 50]"
p23
I92
sS"[-1, 10, [2, 4, 6], 'false', 300, 2000, 50]"
p24
I104
sS"[-1, 10, [3, 7, 2], 'false', 300, 2000, 50]"
p25
I98
sS"[-1, 11, [2, 7, 3], 'false', 300, 2000, 50]"
p26
I112
sS"[-1, 10, [1, 7, 4], 'false', 300, 2000, 50]"
p27
I109
sS"[-1, 10, [1, 11, 0], 'false', 300, 2000, 50]"
p28
I90
sS"[-1, 11, [2, 2, 8], 'false', 300, 2000, 50]"
p29
I105
sS"[-1, 10, [0, 4, 8], 'false', 300, 2000, 50]"
p30
I102
sS"[-1, 10, [4, 4, 4], 'false', 300, 2000, 50]"
p31
I107
sS"[-1, 10, [2, 3, 7], 'false', 300, 2000, 50]"
p32
I107
sS"[-1, 11, [2, 10, 0], 'false', 300, 2000, 50]"
p33
I100
sS"[-1, 11, [0, 7, 5], 'false', 300, 2000, 50]"
p34
I97
sS"[-1, 10, [4, 3, 5], 'false', 300, 2000, 50]"
p35
I87
sS"[-1, 11, [9, 0, 3], 'false', 300, 2000, 50]"
p36
I87
sS"[-1, 11, [1, 3, 8], 'false', 300, 2000, 50]"
p37
I107
sS"[-1, 10, [3, 2, 7], 'false', 300, 2000, 50]"
p38
I92
sS"[-1, 10, [8, 4, 0], 'false', 300, 2000, 50]"
p39
I89
sS"[-1, 10, [0, 5, 7], 'false', 300, 2000, 50]"
p40
I99
sS"[-1, 10, [7, 0, 5], 'false', 300, 2000, 50]"
p41
I90
sS"[-1, 11, [1, 9, 2], 'false', 300, 2000, 50]"
p42
I108
sS"[-1, 11, [1, 2, 9], 'false', 300, 2000, 50]"
p43
I100
sS"[-1, 11, [0, 4, 8], 'false', 300, 2000, 50]"
p44
I112
sS"[-1, 11, [5, 2, 5], 'false', 300, 2000, 50]"
p45
I97
sS"[-1, 10, [2, 6, 4], 'false', 300, 2000, 50]"
p46
I91
sS"[-1, 11, [11, 0, 1], 'false', 300, 2000, 50]"
p47
I87
sS"[-1, 10, [2, 0, 10], 'false', 300, 2000, 50]"
p48
I90
sS"[-1, 10, [0, 9, 3], 'false', 300, 2000, 50]"
p49
I98
sS"[-1, 10, [6, 3, 3], 'false', 300, 2000, 50]"
p50
I89
sS"[-1, 11, [3, 4, 5], 'false', 300, 2000, 50]"
p51
I104
sS"[-1, 10, [6, 6, 0], 'false', 300, 2000, 50]"
p52
I89
sS"[-1, 10, [9, 3, 0], 'false', 300, 2000, 50]"
p53
I89
sS"[-1, 11, [6, 3, 3], 'false', 300, 2000, 50]"
p54
I96
sS"[-1, 11, [0, 10, 2], 'false', 300, 2000, 50]"
p55
I106
sS"[-1, 10, [9, 1, 2], 'false', 300, 2000, 50]"
p56
I86
sS"[-1, 11, [3, 0, 9], 'false', 300, 2000, 50]"
p57
I87
sS"[-1, 10, [0, 0, 12], 'false', 300, 2000, 50]"
p58
I90
sS"[-1, 11, [1, 5, 6], 'false', 300, 2000, 50]"
p59
I120
sS"[-1, 10, [5, 3, 4], 'false', 300, 2000, 50]"
p60
I96
sS"[-1, 11, [5, 6, 1], 'false', 300, 2000, 50]"
p61
I99
sS"[-1, 11, [6, 5, 1], 'false', 300, 2000, 50]"
p62
I94
sS"[-1, 10, [5, 1, 6], 'false', 300, 2000, 50]"
p63
I98
sS"[-1, 10, [6, 0, 6], 'false', 300, 2000, 50]"
p64
I90
sS"[-1, 11, [1, 1, 10], 'false', 300, 2000, 50]"
p65
I82
sS"[-1, 11, [5, 5, 2], 'false', 300, 2000, 50]"
p66
I100
sS"[-1, 10, [6, 1, 5], 'false', 300, 2000, 50]"
p67
I89
sS"[-1, 11, [3, 9, 0], 'false', 300, 2000, 50]"
p68
I81
sS"[-1, 10, [1, 5, 6], 'false', 300, 2000, 50]"
p69
I98
sS"[-1, 11, [0, 2, 10], 'false', 300, 2000, 50]"
p70
I74
sS"[-1, 10, [7, 3, 2], 'false', 300, 2000, 50]"
p71
I87
sS"[-1, 11, [7, 5, 0], 'false', 300, 2000, 50]"
p72
I92
sS"[-1, 10, [6, 2, 4], 'false', 300, 2000, 50]"
p73
I93
sS"[-1, 10, [0, 12, 0], 'false', 300, 2000, 50]"
p74
I86
sS"[-1, 11, [5, 1, 6], 'false', 300, 2000, 50]"
p75
I90
sS"[-1, 10, [4, 7, 1], 'false', 300, 2000, 50]"
p76
I86
sS"[-1, 11, [6, 6, 0], 'false', 300, 2000, 50]"
p77
I94
sS"[-1, 10, [10, 0, 2], 'false', 300, 2000, 50]"
p78
I90
sS"[-1, 11, [4, 8, 0], 'false', 300, 2000, 50]"
p79
I89
sS"[-1, 11, [2, 8, 2], 'false', 300, 2000, 50]"
p80
I106
sS"[-1, 11, [7, 0, 5], 'false', 300, 2000, 50]"
p81
I87
sS"[-1, 10, [4, 0, 8], 'false', 300, 2000, 50]"
p82
I90
sS"[-1, 10, [5, 0, 7], 'false', 300, 2000, 50]"
p83
I90
sS"[-1, 10, [0, 3, 9], 'false', 300, 2000, 50]"
p84
I96
sS"[-1, 11, [4, 2, 6], 'false', 300, 2000, 50]"
p85
I103
sS"[-1, 10, [0, 10, 2], 'false', 300, 2000, 50]"
p86
I89
sS"[-1, 11, [4, 6, 2], 'false', 300, 2000, 50]"
p87
I94
sS"[-1, 10, [12, 0, 0], 'false', 300, 2000, 50]"
p88
I90
sS"[-1, 11, [1, 7, 4], 'false', 300, 2000, 50]"
p89
I112
sS"[-1, 10, [0, 2, 10], 'false', 300, 2000, 50]"
p90
I106
sS"[-1, 11, [6, 4, 2], 'false', 300, 2000, 50]"
p91
I87
sS"[-1, 10, [4, 1, 7], 'false', 300, 2000, 50]"
p92
I100
sS"[-1, 11, [2, 3, 7], 'false', 300, 2000, 50]"
p93
I120
sS"[-1, 11, [4, 7, 1], 'false', 300, 2000, 50]"
p94
I97
sS"[-1, 10, [4, 5, 3], 'false', 300, 2000, 50]"
p95
I93
sS"[-1, 10, [2, 1, 9], 'false', 300, 2000, 50]"
p96
I90
sS"[-1, 11, [10, 1, 1], 'false', 300, 2000, 50]"
p97
I94
sS"[-1, 11, [6, 0, 6], 'false', 300, 2000, 50]"
p98
I87
sS"[-1, 10, [10, 2, 0], 'false', 300, 2000, 50]"
p99
I95
sS"[-1, 10, [5, 6, 1], 'false', 300, 2000, 50]"
p100
I93
sS"[-1, 11, [3, 3, 6], 'false', 300, 2000, 50]"
p101
I118
sS"[-1, 10, [2, 9, 1], 'false', 300, 2000, 50]"
p102
I101
sS"[-1, 11, [2, 6, 4], 'false', 300, 2000, 50]"
p103
I98
sS"[-1, 11, [0, 11, 1], 'false', 300, 2000, 50]"
p104
I102
sS"[-1, 10, [0, 8, 4], 'false', 300, 2000, 50]"
p105
I99
sS"[-1, 11, [7, 4, 1], 'false', 300, 2000, 50]"
p106
I111
sS"[-1, 11, [8, 1, 3], 'false', 300, 2000, 50]"
p107
I99
sS"[-1, 10, [8, 2, 2], 'false', 300, 2000, 50]"
p108
I84
sS"[-1, 11, [12, 0, 0], 'false', 300, 2000, 50]"
p109
I87
sS"[-1, 11, [1, 10, 1], 'false', 300, 2000, 50]"
p110
I97
sS"[-1, 11, [6, 1, 5], 'false', 300, 2000, 50]"
p111
I92
sS"[-1, 10, [6, 5, 1], 'false', 300, 2000, 50]"
p112
I94
sS"[-1, 10, [9, 2, 1], 'false', 300, 2000, 50]"
p113
I91
sS"[-1, 10, [2, 8, 2], 'false', 300, 2000, 50]"
p114
I95
sS"[-1, 10, [10, 1, 1], 'false', 300, 2000, 50]"
p115
I88
sS"[-1, 11, [9, 1, 2], 'false', 300, 2000, 50]"
p116
I102
sS"[-1, 11, [8, 4, 0], 'false', 300, 2000, 50]"
p117
I94
sS"[-1, 10, [7, 5, 0], 'false', 300, 2000, 50]"
p118
I93
sS"[-1, 10, [1, 0, 11], 'false', 300, 2000, 50]"
p119
I90
sS"[-1, 11, [7, 2, 3], 'false', 300, 2000, 50]"
p120
I93
sS"[-1, 11, [0, 5, 7], 'false', 300, 2000, 50]"
p121
I129
sS"[-1, 10, [2, 2, 8], 'false', 300, 2000, 50]"
p122
I86
sS"[-1, 11, [5, 3, 4], 'false', 300, 2000, 50]"
p123
I96
sS"[-1, 10, [5, 5, 2], 'false', 300, 2000, 50]"
p124
I90
sS"[-1, 11, [1, 4, 7], 'false', 300, 2000, 50]"
p125
I108
sS"[-1, 11, [4, 0, 8], 'false', 300, 2000, 50]"
p126
I87
sS"[-1, 11, [0, 1, 11], 'false', 300, 2000, 50]"
p127
I96
sS"[-1, 10, [9, 0, 3], 'false', 300, 2000, 50]"
p128
I90
sS"[-1, 11, [1, 0, 11], 'false', 300, 2000, 50]"
p129
I87
sS"[-1, 10, [1, 2, 9], 'false', 300, 2000, 50]"
p130
I109
sS"[-1, 10, [3, 8, 1], 'false', 300, 2000, 50]"
p131
I94
sS"[-1, 11, [3, 7, 2], 'false', 300, 2000, 50]"
p132
I98
sS"[-1, 11, [6, 2, 4], 'false', 300, 2000, 50]"
p133
I97
sS"[-1, 11, [10, 0, 2], 'false', 300, 2000, 50]"
p134
I87
sS"[-1, 10, [5, 4, 3], 'false', 300, 2000, 50]"
p135
I95
sS"[-1, 11, [4, 4, 4], 'false', 300, 2000, 50]"
p136
I103
sS"[-1, 11, [1, 11, 0], 'false', 300, 2000, 50]"
p137
I91
sS"[-1, 10, [3, 6, 3], 'false', 300, 2000, 50]"
p138
I97
sS"[-1, 10, [1, 10, 1], 'false', 300, 2000, 50]"
p139
I106
sS"[-1, 10, [5, 2, 5], 'false', 300, 2000, 50]"
p140
I100
sS"[-1, 10, [3, 5, 4], 'false', 300, 2000, 50]"
p141
I109
sS"[-1, 11, [2, 5, 5], 'false', 300, 2000, 50]"
p142
I104
sS"[-1, 10, [0, 11, 1], 'false', 300, 2000, 50]"
p143
I99
sS"[-1, 11, [8, 2, 2], 'false', 300, 2000, 50]"
p144
I97
sS"[-1, 11, [9, 2, 1], 'false', 300, 2000, 50]"
p145
I86
sS"[-1, 10, [0, 7, 5], 'false', 300, 2000, 50]"
p146
I100
sS"[-1, 11, [4, 3, 5], 'false', 300, 2000, 50]"
p147
I101
sS"[-1, 11, [5, 7, 0], 'false', 300, 2000, 50]"
p148
I90
sS"[-1, 11, [2, 0, 10], 'false', 300, 2000, 50]"
p149
I87
sS"[-1, 10, [3, 3, 6], 'false', 300, 2000, 50]"
p150
I78
sS"[-1, 11, [0, 3, 9], 'false', 300, 2000, 50]"
p151
I109
sS"[-1, 10, [3, 9, 0], 'false', 300, 2000, 50]"
p152
I86
sS"[-1, 11, [1, 8, 3], 'false', 300, 2000, 50]"
p153
I106
sS"[-1, 10, [4, 8, 0], 'false', 300, 2000, 50]"
p154
I83
sS"[-1, 11, [4, 1, 7], 'false', 300, 2000, 50]"
p155
I99
sS"[-1, 10, [11, 1, 0], 'false', 300, 2000, 50]"
p156
I82
sS"[-1, 10, [1, 4, 7], 'false', 300, 2000, 50]"
p157
I101
sS"[-1, 10, [2, 10, 0], 'false', 300, 2000, 50]"
p158
I94
sS"[-1, 11, [0, 9, 3], 'false', 300, 2000, 50]"
p159
I103
sS"[-1, 10, [7, 1, 4], 'false', 300, 2000, 50]"
p160
I95
sS"[-1, 11, [0, 0, 12], 'false', 300, 2000, 50]"
p161
I87
sS"[-1, 10, [1, 3, 8], 'false', 300, 2000, 50]"
p162
I114
sS"[-1, 11, [10, 2, 0], 'false', 300, 2000, 50]"
p163
I87
sS"[-1, 10, [0, 1, 11], 'false', 300, 2000, 50]"
p164
I111
sS"[-1, 11, [3, 1, 8], 'false', 300, 2000, 50]"
p165
I95
sS"[-1, 11, [0, 12, 0], 'false', 300, 2000, 50]"
p166
I98
sS"[-1, 10, [2, 7, 3], 'false', 300, 2000, 50]"
p167
I98
sS"[-1, 10, [1, 1, 10], 'false', 300, 2000, 50]"
p168
I108
sS"[-1, 11, [3, 2, 7], 'false', 300, 2000, 50]"
p169
I116
sS"[-1, 10, [3, 4, 5], 'false', 300, 2000, 50]"
p170
I99
sS"[-1, 11, [2, 1, 9], 'false', 300, 2000, 50]"
p171
I104
sS"[-1, 10, [8, 3, 1], 'false', 300, 2000, 50]"
p172
I90
sS"[-1, 11, [7, 3, 2], 'false', 300, 2000, 50]"
p173
I84
sS"[-1, 11, [8, 3, 1], 'false', 300, 2000, 50]"
p174
I96
sS"[-1, 10, [5, 7, 0], 'false', 300, 2000, 50]"
p175
I88
sS"[-1, 11, [7, 1, 4], 'false', 300, 2000, 50]"
p176
I94
sS"[-1, 11, [5, 0, 7], 'false', 300, 2000, 50]"
p177
I87
sS"[-1, 10, [4, 2, 6], 'false', 300, 2000, 50]"
p178
I85
sS"[-1, 10, [7, 2, 3], 'false', 300, 2000, 50]"
p179
I89
sS"[-1, 11, [5, 4, 3], 'false', 300, 2000, 50]"
p180
I88
sS"[-1, 11, [4, 5, 3], 'false', 300, 2000, 50]"
p181
I101
sS"[-1, 10, [1, 9, 2], 'false', 300, 2000, 50]"
p182
I89
s.