(dp0
S"[-1, 'false', [7, 5, 0], 17, 4, 15, 'false']"
p1
I58
sS"[-1, 'false', [6, 3, 3], 20, 4, 15, 'false']"
p2
I73
sS"[-1, 'false', [12, 0, 0], 7, 16, 9, 'false']"
p3
I51
sS"[-1, 'false', [10, 1, 1], 9, 10, 6, 'true']"
p4
I54
sS"[-1, 'false', [10, 1, 1], 2, 10, 6, 'true']"
p5
I54
sS"[-1, 'false', [6, 3, 3], 14, 4, 15, 'false']"
p6
I55
sS"[-1, 'false', [4, 0, 8], 11, 7, 18, 'true']"
p7
I68
sS"[-1, 'false', [7, 5, 0], 17, 4, 16, 'false']"
p8
I67
sS"[-1, 'false', [7, 5, 0], 17, 4, 15, 'true']"
p9
I57
sS"[-1, 'false', [6, 3, 3], 18, 4, 15, 'false']"
p10
I71
sS"[-1, 'false', [5, 5, 2], 12, 7, 17, 'false']"
p11
I51
sS"[-1, 'false', [6, 3, 3], 17, 4, 15, 'false']"
p12
I56
sS"[-1, 'false', [6, 3, 3], 17, 19, 4, 'false']"
p13
I65
sS"[-1, 'false', [6, 3, 3], 14, 4, 4, 'false']"
p14
I74
sS"[-1, 'false', [7, 5, 0], 18, 4, 16, 'false']"
p15
I56
sS"[-1, 'false', [6, 5, 1], 13, 18, 15, 'false']"
p16
I42
sS"[-1, 'false', [4, 5, 3], 11, 7, 18, 'false']"
p17
I60
sS"[-1, 'false', [1, 5, 6], 16, 15, 16, 'false']"
p18
I49
sS"[-1, 'false', [7, 5, 0], 20, 4, 1, 'false']"
p19
I67
sS"[-1, 'false', [6, 3, 3], 17, 4, 6, 'false']"
p20
I69
sS"[-1, 'false', [5, 3, 4], 19, 19, 9, 'false']"
p21
I54
sS"[-1, 'false', [5, 5, 2], 11, 7, 18, 'false']"
p22
I57
sS"[-1, 'false', [4, 0, 8], 11, 7, 16, 'false']"
p23
I75
sS"[-1, 'false', [5, 5, 2], 11, 7, 17, 'false']"
p24
I59
sS"[-1, 'false', [7, 5, 0], 13, 15, 17, 'true']"
p25
I52
sS"[-1, 'false', [5, 5, 2], 17, 4, 15, 'false']"
p26
I66
sS"[-1, 'false', [5, 3, 4], 18, 4, 15, 'false']"
p27
I71
sS"[-1, 'false', [6, 3, 3], 19, 1, 15, 'false']"
p28
I75
sS"[-1, 'false', [6, 3, 3], 20, 2, 15, 'false']"
p29
I65
sS"[-1, 'false', [6, 3, 3], 17, 4, 4, 'false']"
p30
I74
sS"[-1, 'false', [5, 4, 3], 17, 4, 15, 'false']"
p31
I66
sS"[-1, 'false', [6, 6, 0], 17, 4, 16, 'false']"
p32
I67
sS"[-1, 'false', [6, 3, 3], 18, 3, 15, 'false']"
p33
I63
sS"[-1, 'false', [4, 0, 8], 11, 5, 16, 'false']"
p34
I64
sS"[-1, 'false', [7, 3, 2], 17, 4, 15, 'false']"
p35
I67
sS"[-1, 'false', [7, 5, 0], 5, 4, 16, 'false']"
p36
I60
sS"[-1, 'false', [2, 5, 5], 16, 12, 8, 'true']"
p37
I51
sS"[-1, 'false', [6, 3, 3], 20, 1, 15, 'false']"
p38
I80
sS"[-1, 'false', [3, 5, 4], 11, 7, 18, 'false']"
p39
I57
sS"[-1, 'false', [6, 1, 5], 11, 7, 16, 'false']"
p40
I70
sS"[-1, 'false', [4, 0, 8], 11, 7, 18, 'false']"
p41
I68
sS"[-1, 'false', [6, 1, 5], 17, 4, 15, 'false']"
p42
I70
sS"[-1, 'false', [6, 5, 1], 17, 18, 15, 'false']"
p43
I48
sS"[-1, 'false', [3, 4, 5], 8, 7, 18, 'false']"
p44
I56
sS"[-1, 'false', [7, 5, 0], 20, 4, 16, 'false']"
p45
I58
sS"[-1, 'false', [4, 0, 8], 11, 4, 16, 'false']"
p46
I68
sS"[-1, 'false', [5, 3, 4], 19, 19, 15, 'false']"
p47
I64
sS"[-1, 'false', [7, 5, 0], 9, 4, 16, 'false']"
p48
I66
sS"[-1, 'false', [0, 5, 7], 16, 12, 8, 'true']"
p49
I54
sS"[-1, 'false', [2, 6, 4], 11, 7, 18, 'false']"
p50
I52
sS"[-1, 'false', [4, 0, 8], 11, 7, 15, 'false']"
p51
I61
sS"[-1, 'false', [2, 3, 7], 13, 20, 9, 'true']"
p52
I45
sS"[-1, 'false', [6, 4, 2], 11, 7, 18, 'false']"
p53
I60
sS"[-1, 'false', [11, 0, 1], 9, 13, 19, 'false']"
p54
I53
sS"[-1, 'false', [1, 5, 6], 16, 15, 15, 'false']"
p55
I49
sS"[-1, 'false', [6, 5, 1], 11, 7, 17, 'false']"
p56
I59
sS"[-1, 'false', [6, 4, 2], 17, 4, 15, 'false']"
p57
I66
sS"[-1, 'false', [6, 3, 3], 17, 4, 18, 'false']"
p58
I63
sS"[-1, 'false', [7, 5, 0], 17, 15, 15, 'false']"
p59
I54
s.