(dp0
S"[-1, 'false', [12, 0, 0]]"
p1
(lp2
I29
aI21
aI22
aI32
aI23
aI25
asS"[-1, 'false', [9, 2, 1], 11, 37, 10, 'true']"
p3
(lp4
I7
aI19
aI15
asS"[-1, 'false', [4, 1, 7], 3, 43, 10, 'true']"
p5
(lp6
I31
asS"[-1, 'false', [6, 3, 3], 8, 10, 12, 'true']"
p7
(lp8
I25
asS"[-1, 'false', [4, 1, 7], 19, 21, 10, 'true']"
p9
(lp10
I12
aI25
asS"[-1, 'false', [0, 6, 6], 14, 11, 7, 'false']"
p11
(lp12
I19
asS"[-1, 'false', [3, 3, 6], 3, 10, 8, 'false']"
p13
(lp14
I33
asS"[-1, 'false', [8, 1, 3], 9, 5, 10, 'false']"
p15
(lp16
I28
asS"[-1, 'false', [0, 6, 6], 16, 11, 7, 'false']"
p17
(lp18
I31
asS"[-1, 'false', [8, 1, 3], 7, 5, 10, 'false']"
p19
(lp20
I29
aI25
aI34
asS"[-1, 'false', [6, 5, 1], 18, 5, 11, 'true']"
p21
(lp22
I20
aI19
aI25
asS"[-1, 'false', [1, 5, 6], 9, 17, 9, 'true']"
p23
(lp24
I15
aI25
asS"[-1, 'false', [0, 6, 6], 13, 11, 7, 'false']"
p25
(lp26
I25
asS"[-1, 'false', [3, 5, 4], 20, 1, 8, 'true']"
p27
(lp28
I28
asS"[-1, 'false', [6, 2, 4], 11, 6, 10, 'false']"
p29
(lp30
I20
asS"[-1, 'false', [10, 1, 1], 7, 35, 12, 'true']"
p31
(lp32
I29
aI20
asS"[-1, 'false', [8, 1, 3], 11, 13, 10, 'true']"
p33
(lp34
I29
asS"[-1, 'false', [3, 7, 2], 16, 4, 13, 'false']"
p35
(lp36
I25
aI25
asS"[-1, 'false', [4, 3, 5], 16, 3, 13, 'true']"
p37
(lp38
I30
asS"[-1, 'false', [7, 3, 2], 17, 16, 17, 'false']"
p39
(lp40
I16
aI24
asS"[-1, 'false', [6, 1, 5], 7, 5, 10, 'false']"
p41
(lp42
I27
asS"[-1, 'false', [9, 2, 1], 13, 27, 10, 'true']"
p43
(lp44
I22
asS"[-1, 'false', [3, 4, 5], 12, 31, 13, 'true']"
p45
(lp46
I34
aI23
asS"[-1, 'false', [6, 2, 4], 12, 6, 15, 'true']"
p47
(lp48
I30
asS"[-1, 'false', [0, 8, 4], 16, 11, 7, 'false']"
p49
(lp50
I19
aI22
asS"[-1, 'false', [6, 2, 4], 12, 6, 15, 'false']"
p51
(lp52
I21
asS"[-1, 'false', [6, 2, 4], 12, 18, 15, 'true']"
p53
(lp54
I25
asS"[-1, 'false', [3, 6, 3], 12, 31, 14, 'true']"
p55
(lp56
I29
asS"[-1, 'false', [9, 2, 1], 13, 37, 10, 'true']"
p57
(lp58
I11
asS"[-1, 'false', [5, 1, 6], 19, 21, 10, 'true']"
p59
(lp60
I20
aI23
asS"[-1, 'false', [1, 10, 1], 4, 43, 9, 'false']"
p61
(lp62
I14
asS"[-1, 'false', [5, 1, 6], 12, 35, 12, 'false']"
p63
(lp64
I31
asS"[-1, 'false', [1, 1, 10], 11, 49, 15, 'false']"
p65
(lp66
I21
aI28
aI12
asS"[-1, 'false', [9, 2, 1], 12, 6, 15, 'true']"
p67
(lp68
I23
aI29
aI18
asS"[-1, 'false', [7, 1, 4], 7, 20, 10, 'false']"
p69
(lp70
I35
asS"[-1, 'false', [1, 10, 1], 9, 6, 7, 'false']"
p71
(lp72
I32
asS"[-1, 'false', [5, 4, 3], 17, 17, 10, 'false']"
p73
(lp74
I22
asS"[-1, 'false', [3, 3, 6], 12, 31, 14, 'true']"
p75
(lp76
I23
asS"[-1, 'false', [10, 1, 1], 17, 16, 17, 'false']"
p77
(lp78
I27
asS"[-1, 'false', [2, 2, 8], 13, 39, 7, 'false']"
p79
(lp80
I10
asS"[-1, 'false', [3, 7, 2], 13, 4, 13, 'false']"
p81
(lp82
I20
asS"[-1, 'false', [9, 2, 1], 11, 13, 10, 'true']"
p83
(lp84
I26
asS"[-1, 'false', [6, 3, 3], 11, 47, 8, 'false']"
p85
(lp86
I25
aI24
aI26
asS"[-1, 'false', [6, 3, 3], 10, 10, 12, 'true']"
p87
(lp88
I29
aI28
asS"[-1, 'false', [8, 3, 1], 2, 39, 14, 'true']"
p89
(lp90
I29
aI18
asS"[-1, 'false', [6, 3, 3], 11, 47, 10, 'false']"
p91
(lp92
I23
asS"[-1, 'false', [6, 1, 5], 7, 20, 10, 'false']"
p93
(lp94
I32
aI33
asS"[-1, 'false', [2, 7, 3], 11, 47, 8, 'false']"
p95
(lp96
I17
asS"[-1, 'false', [7, 3, 2], 17, 16, 9, 'false']"
p97
(lp98
I16
asS"[-1, 'false', [1, 4, 7], 11, 49, 15, 'false']"
p99
(lp100
I14
asS"[-1, 'false', [7, 3, 2], 8, 42, 14, 'true']"
p101
(lp102
I24
aI14
asS"[-1, 'false', [9, 2, 1], 6, 37, 10, 'true']"
p103
(lp104
I28
asS"[-1, 'false', [0, 10, 2], 14, 37, 14, 'true']"
p105
(lp106
I6
asS"[-1, 'false', [2, 9, 1], 6, 21, 10, 'false']"
p107
(lp108
I13
aI30
aI21
asS"[-1, 'false', [1, 9, 2], 13, 47, 10, 'false']"
p109
(lp110
I19
asS"[-1, 'false', [3, 4, 5], 12, 31, 10, 'true']"
p111
(lp112
I27
asS"[-1, 'false', [2, 2, 8], 12, 31, 14, 'false']"
p113
(lp114
I27
aI25
asS"[-1, 'false', [3, 2, 7], 18, 9, 13, 'false']"
p115
(lp116
I24
aI25
asS"[-1, 'false', [0, 7, 5], 12, 44, 14, 'false']"
p117
(lp118
I24
asS"[-1, 'false', [4, 4, 4], 11, 47, 8, 'false']"
p119
(lp120
I10
asS"[-1, 'false', [10, 1, 1], 2, 14, 7, 'false']"
p121
(lp122
I25
asS"[-1, 'false', [7, 3, 2], 12, 8, 8, 'true']"
p123
(lp124
I24
asS"[-1, 'false', [3, 4, 5], 12, 18, 13, 'true']"
p125
(lp126
I25
asS"[-1, 'false', [6, 1, 5], 6, 35, 7, 'false']"
p127
(lp128
I27
asS"[-1, 'false', [3, 2, 7], 18, 50, 11, 'true']"
p129
(lp130
I18
asS"[-1, 'false', [3, 6, 3], 12, 8, 8, 'true']"
p131
(lp132
I20
aI26
aI22
asS"[-1, 'false', [9, 2, 1], 13, 6, 15, 'true']"
p133
(lp134
I22
asS"[-1, 'false', [6, 2, 4], 9, 6, 15, 'false']"
p135
(lp136
I29
asS"[-1, 'false', [3, 5, 4], 5, 25, 7, 'false']"
p137
(lp138
I41
asS"[-1, 'false', [2, 4, 6], 16, 40, 13, 'true']"
p139
(lp140
I24
asS"[-1, 'false', [7, 1, 4], 12, 6, 15, 'true']"
p141
(lp142
I45
as.