(dp0
S"[-1, 'false', [1, 6, 5], 14, 42, 13, 'true']"
p1
(lp2
I17
asS"[-1, 'false', [12, 0, 0]]"
p3
(lp4
I31
aI23
aI30
aI22
aI20
asS"[-1, 'false', [7, 2, 3], 19, 12, 6, 'false']"
p5
(lp6
I26
asS"[-1, 'false', [8, 2, 2], 18, 32, 11, 'false']"
p7
(lp8
I15
asS"[-1, 'false', [9, 2, 1], 11, 37, 10, 'true']"
p9
(lp10
I31
aI14
aI21
aI13
asS"[-1, 'false', [3, 6, 3], 15, 11, 7, 'false']"
p11
(lp12
I21
asS"[-1, 'false', [7, 1, 4], 12, 32, 14, 'false']"
p13
(lp14
I37
asS"[-1, 'false', [9, 2, 1], 11, 20, 18, 'true']"
p15
(lp16
I20
asS"[-1, 'false', [4, 1, 7], 19, 21, 10, 'true']"
p17
(lp18
I25
aI32
asS"[-1, 'false', [4, 5, 3], 16, 11, 7, 'false']"
p19
(lp20
I28
aI21
aI21
asS"[-1, 'false', [7, 1, 4], 12, 31, 14, 'false']"
p21
(lp22
I39
aI21
aI29
asS"[-1, 'false', [9, 1, 2], 7, 35, 12, 'true']"
p23
(lp24
I25
asS"[-1, 'false', [3, 4, 5], 7, 45, 10, 'false']"
p25
(lp26
I33
asS"[-1, 'false', [8, 1, 3], 7, 5, 10, 'false']"
p27
(lp28
I23
aI32
asS"[-1, 'false', [6, 5, 1], 18, 5, 11, 'true']"
p29
(lp30
I27
aI28
aI22
asS"[-1, 'false', [4, 4, 4], 2, 32, 12, 'true']"
p31
(lp32
I24
asS"[-1, 'false', [2, 2, 8], 12, 31, 12, 'true']"
p33
(lp34
I21
aI18
asS"[-1, 'false', [0, 10, 2], 14, 29, 14, 'true']"
p35
(lp36
I19
asS"[-1, 'false', [1, 5, 6], 9, 17, 9, 'true']"
p37
(lp38
I25
aI26
asS"[-1, 'false', [3, 7, 2], 16, 20, 13, 'false']"
p39
(lp40
I23
asS"[-1, 'false', [1, 1, 10], 13, 49, 15, 'false']"
p41
(lp42
I44
asS"[-1, 'false', [10, 1, 1], 7, 35, 12, 'true']"
p43
(lp44
I21
aI20
asS"[-1, 'false', [3, 7, 2], 16, 4, 14, 'false']"
p45
(lp46
I23
asS"[-1, 'false', [3, 7, 2], 16, 4, 13, 'false']"
p47
(lp48
I32
aI22
asS"[-1, 'false', [4, 5, 3], 16, 17, 7, 'false']"
p49
(lp50
I29
asS"[-1, 'false', [4, 1, 7], 19, 29, 10, 'true']"
p51
(lp52
I11
asS"[-1, 'false', [0, 9, 3], 3, 17, 8, 'false']"
p53
(lp54
I30
asS"[-1, 'false', [5, 3, 4], 16, 11, 9, 'false']"
p55
(lp56
I18
asS"[-1, 'false', [5, 4, 3], 9, 23, 11, 'false']"
p57
(lp58
I34
asS"[-1, 'false', [0, 2, 10], 11, 49, 14, 'false']"
p59
(lp60
I6
asS"[-1, 'false', [0, 8, 4], 16, 11, 7, 'false']"
p61
(lp62
I34
aI15
asS"[-1, 'false', [1, 7, 4], 16, 11, 7, 'false']"
p63
(lp64
I23
asS"[-1, 'false', [0, 8, 4], 16, 11, 13, 'true']"
p65
(lp66
I25
asS"[-1, 'false', [1, 5, 6], 9, 17, 11, 'false']"
p67
(lp68
I20
aI24
asS"[-1, 'false', [0, 10, 2], 15, 29, 14, 'true']"
p69
(lp70
I30
asS"[-1, 'false', [3, 2, 7], 18, 9, 13, 'false']"
p71
(lp72
I27
asS"[-1, 'false', [9, 2, 1], 12, 6, 15, 'true']"
p73
(lp74
I22
asS"[-1, 'false', [2, 8, 2], 16, 4, 13, 'false']"
p75
(lp76
I23
asS"[-1, 'false', [6, 5, 1], 18, 5, 9, 'true']"
p77
(lp78
I21
asS"[-1, 'false', [3, 5, 4], 18, 5, 11, 'true']"
p79
(lp80
I23
asS"[-1, 'false', [5, 3, 4], 12, 31, 14, 'false']"
p81
(lp82
I16
asS"[-1, 'false', [10, 1, 1], 2, 17, 7, 'true']"
p83
(lp84
I33
asS"[-1, 'false', [6, 3, 3], 11, 47, 8, 'false']"
p85
(lp86
I25
aI17
aI22
asS"[-1, 'false', [6, 3, 3], 10, 10, 12, 'true']"
p87
(lp88
I25
aI17
aI28
asS"[-1, 'false', [1, 7, 4], 13, 11, 7, 'false']"
p89
(lp90
I25
asS"[-1, 'false', [2, 7, 3], 16, 11, 7, 'false']"
p91
(lp92
I24
asS"[-1, 'false', [2, 2, 8], 12, 31, 14, 'false']"
p93
(lp94
I31
aI33
asS"[-1, 'false', [8, 2, 2], 18, 34, 11, 'false']"
p95
(lp96
I33
asS"[-1, 'false', [7, 3, 2], 8, 42, 14, 'true']"
p97
(lp98
I14
aI16
asS"[-1, 'false', [1, 1, 10], 11, 30, 15, 'false']"
p99
(lp100
I24
asS"[-1, 'false', [5, 5, 2], 16, 16, 12, 'false']"
p101
(lp102
I16
asS"[-1, 'false', [0, 10, 2], 14, 37, 14, 'true']"
p103
(lp104
I13
aI30
asS"[-1, 'false', [2, 9, 1], 6, 21, 10, 'false']"
p105
(lp106
I24
aI33
asS"[-1, 'false', [2, 2, 8], 12, 31, 11, 'true']"
p107
(lp108
I33
asS"[-1, 'false', [3, 6, 3], 16, 11, 7, 'false']"
p109
(lp110
I24
asS"[-1, 'false', [4, 5, 3], 18, 11, 11, 'false']"
p111
(lp112
I27
asS"[-1, 'false', [4, 6, 2], 8, 36, 6, 'false']"
p113
(lp114
I23
asS"[-1, 'false', [2, 8, 2], 16, 11, 7, 'false']"
p115
(lp116
I34
asS"[-1, 'false', [6, 3, 3], 2, 46, 8, 'false']"
p117
(lp118
I30
asS"[-1, 'false', [4, 4, 4], 16, 11, 7, 'false']"
p119
(lp120
I26
asS"[-1, 'false', [1, 10, 1], 6, 21, 4, 'false']"
p121
(lp122
I16
asS"[-1, 'false', [1, 9, 2], 6, 21, 13, 'false']"
p123
(lp124
I25
asS"[-1, 'false', [1, 1, 10], 11, 49, 17, 'false']"
p125
(lp126
I26
asS"[-1, 'false', [1, 7, 4], 12, 31, 11, 'true']"
p127
(lp128
I35
asS"[-1, 'false', [7, 1, 4], 12, 31, 12, 'false']"
p129
(lp130
I27
aI21
aI23
asS"[-1, 'false', [6, 5, 1], 14, 17, 13, 'false']"
p131
(lp132
I24
asS"[-1, 'false', [3, 6, 3], 12, 8, 8, 'true']"
p133
(lp134
I22
aI19
asS"[-1, 'false', [5, 5, 2], 8, 42, 14, 'true']"
p135
(lp136
I22
asS"[-1, 'false', [4, 6, 2], 16, 4, 13, 'false']"
p137
(lp138
I19
asS"[-1, 'false', [5, 2, 5], 5, 41, 11, 'false']"
p139
(lp140
I30
asS"[-1, 'false', [6, 4, 2], 11, 37, 10, 'true']"
p141
(lp142
I26
asS"[-1, 'false', [1, 1, 10], 11, 49, 15, 'false']"
p143
(lp144
I25
aI25
aI29
asS"[-1, 'false', [1, 7, 4], 12, 12, 11, 'true']"
p145
(lp146
I30
as.