(dp0
S"[-1, 'false', [7, 3, 2], 7, 35, 12, 'true']"
p1
(lp2
I21
asS"[-1, 'false', [12, 0, 0]]"
p3
(lp4
I11
aI26
aI23
aI38
aI14
asS"[-1, 'false', [4, 1, 7], 18, 11, 10, 'true']"
p5
(lp6
I23
asS"[-1, 'false', [6, 5, 1], 7, 35, 12, 'false']"
p7
(lp8
I25
asS"[-1, 'false', [9, 1, 2], 10, 10, 12, 'true']"
p9
(lp10
I27
aI24
asS"[-1, 'false', [9, 2, 1], 11, 37, 10, 'true']"
p11
(lp12
I26
aI20
aI13
asS"[-1, 'false', [3, 7, 2], 14, 37, 14, 'true']"
p13
(lp14
I11
asS"[-1, 'false', [3, 7, 2], 16, 4, 4, 'false']"
p15
(lp16
I29
asS"[-1, 'false', [4, 1, 7], 19, 21, 10, 'true']"
p17
(lp18
I27
aI15
asS"[-1, 'false', [7, 3, 2], 17, 16, 9, 'false']"
p19
(lp20
I19
asS"[-1, 'false', [3, 6, 3], 14, 37, 14, 'true']"
p21
(lp22
I13
asS"[-1, 'false', [2, 6, 4], 20, 45, 14, 'true']"
p23
(lp24
I13
asS"[-1, 'false', [9, 1, 2], 7, 35, 12, 'true']"
p25
(lp26
I31
asS"[-1, 'false', [6, 5, 1], 18, 27, 11, 'true']"
p27
(lp28
I11
asS"[-1, 'false', [8, 1, 3], 7, 5, 10, 'false']"
p29
(lp30
I31
aI25
asS"[-1, 'false', [6, 5, 1], 18, 5, 11, 'true']"
p31
(lp32
I20
aI23
aI25
aI20
aI22
asS"[-1, 'false', [6, 5, 1], 4, 43, 9, 'false']"
p33
(lp34
I18
asS"[-1, 'false', [1, 5, 6], 9, 17, 9, 'true']"
p35
(lp36
I27
aI24
asS"[-1, 'false', [4, 3, 5], 8, 11, 13, 'false']"
p37
(lp38
I22
asS"[-1, 'false', [9, 1, 2], 4, 43, 11, 'true']"
p39
(lp40
I28
asS"[-1, 'false', [10, 1, 1], 7, 35, 12, 'true']"
p41
(lp42
I33
aI36
aI13
asS"[-1, 'false', [3, 2, 7], 18, 3, 11, 'false']"
p43
(lp44
I32
asS"[-1, 'false', [3, 7, 2], 16, 4, 13, 'false']"
p45
(lp46
I25
aI19
asS"[-1, 'false', [1, 1, 10], 11, 49, 15, 'false']"
p47
(lp48
I27
aI13
aI21
asS"[-1, 'false', [7, 3, 2], 10, 10, 12, 'true']"
p49
(lp50
I32
asS"[-1, 'false', [10, 1, 1], 7, 35, 9, 'true']"
p51
(lp52
I25
asS"[-1, 'false', [4, 4, 4], 19, 12, 6, 'true']"
p53
(lp54
I22
asS"[-1, 'false', [0, 8, 4], 16, 11, 7, 'false']"
p55
(lp56
I17
aI25
asS"[-1, 'false', [3, 6, 3], 14, 43, 14, 'true']"
p57
(lp58
I15
asS"[-1, 'false', [3, 3, 6], 18, 11, 10, 'true']"
p59
(lp60
I33
asS"[-1, 'false', [0, 3, 9], 12, 8, 8, 'true']"
p61
(lp62
I16
asS"[-1, 'false', [7, 3, 2], 17, 14, 10, 'false']"
p63
(lp64
I24
asS"[-1, 'false', [9, 2, 1], 7, 35, 12, 'true']"
p65
(lp66
I21
asS"[-1, 'false', [6, 5, 1], 18, 13, 11, 'true']"
p67
(lp68
I18
aI28
aI29
asS"[-1, 'false', [1, 10, 1], 4, 43, 9, 'false']"
p69
(lp70
I33
aI10
asS"[-1, 'false', [9, 1, 2], 8, 30, 13, 'false']"
p71
(lp72
I33
asS"[-1, 'false', [0, 1, 11], 9, 9, 10, 'false']"
p73
(lp74
I32
asS"[-1, 'false', [9, 2, 1], 12, 6, 15, 'true']"
p75
(lp76
I23
aI33
aI27
aI22
asS"[-1, 'false', [6, 4, 2], 12, 8, 8, 'true']"
p77
(lp78
I22
asS"[-1, 'false', [3, 3, 6], 12, 12, 10, 'true']"
p79
(lp80
I21
asS"[-1, 'false', [8, 1, 3], 4, 23, 9, 'false']"
p81
(lp82
I23
asS"[-1, 'false', [0, 2, 10], 15, 50, 11, 'false']"
p83
(lp84
I20
asS"[-1, 'false', [9, 2, 1], 2, 17, 9, 'true']"
p85
(lp86
I20
asS"[-1, 'false', [8, 1, 3], 16, 35, 14, 'false']"
p87
(lp88
I18
asS"[-1, 'false', [6, 3, 3], 10, 10, 12, 'true']"
p89
(lp90
I22
aI20
asS"[-1, 'false', [6, 3, 3], 11, 47, 8, 'false']"
p91
(lp92
I21
aI18
asS"[-1, 'false', [2, 2, 8], 12, 31, 14, 'false']"
p93
(lp94
I26
aI29
aI26
asS"[-1, 'false', [7, 3, 2], 5, 42, 14, 'true']"
p95
(lp96
I28
asS"[-1, 'false', [1, 8, 3], 3, 4, 13, 'false']"
p97
(lp98
I20
asS"[-1, 'false', [8, 3, 1], 10, 10, 12, 'true']"
p99
(lp100
I17
asS"[-1, 'false', [10, 1, 1], 7, 35, 12, 'false']"
p101
(lp102
I19
asS"[-1, 'false', [7, 3, 2], 8, 42, 14, 'true']"
p103
(lp104
I16
aI17
aI16
asS"[-1, 'false', [4, 4, 4], 19, 12, 9, 'true']"
p105
(lp106
I17
asS"[-1, 'false', [0, 10, 2], 14, 37, 14, 'true']"
p107
(lp108
I23
asS"[-1, 'false', [2, 9, 1], 6, 21, 10, 'false']"
p109
(lp110
I26
aI12
asS"[-1, 'false', [0, 2, 10], 15, 43, 11, 'false']"
p111
(lp112
I26
asS"[-1, 'false', [7, 3, 2], 12, 6, 15, 'true']"
p113
(lp114
I23
aI26
asS"[-1, 'false', [0, 2, 10], 15, 27, 11, 'false']"
p115
(lp116
I30
asS"[-1, 'false', [6, 4, 2], 10, 17, 12, 'true']"
p117
(lp118
I24
asS"[-1, 'false', [8, 2, 2], 7, 35, 12, 'true']"
p119
(lp120
I22
asS"[-1, 'false', [3, 2, 7], 18, 9, 13, 'false']"
p121
(lp122
I26
asS"[-1, 'false', [0, 10, 2], 3, 19, 13, 'false']"
p123
(lp124
I30
asS"[-1, 'false', [10, 1, 1], 12, 35, 12, 'true']"
p125
(lp126
I15
asS"[-1, 'false', [2, 2, 8], 12, 31, 13, 'false']"
p127
(lp128
I22
asS"[-1, 'false', [0, 1, 11], 10, 36, 7, 'true']"
p129
(lp130
I28
asS"[-1, 'false', [9, 1, 2], 10, 10, 10, 'true']"
p131
(lp132
I23
asS"[-1, 'false', [6, 4, 2], 18, 5, 11, 'true']"
p133
(lp134
I29
asS"[-1, 'false', [3, 6, 3], 12, 8, 8, 'true']"
p135
(lp136
I21
aI14
asS"[-1, 'false', [1, 7, 4], 13, 49, 14, 'false']"
p137
(lp138
I19
asS"[-1, 'false', [5, 3, 4], 15, 29, 11, 'true']"
p139
(lp140
I20
asS"[-1, 'false', [9, 1, 2], 9, 33, 15, 'true']"
p141
(lp142
I28
asS"[-1, 'false', [2, 3, 7], 12, 25, 14, 'true']"
p143
(lp144
I34
as.