(dp0
S"[-1, 'false', [3, 2, 7], 20, 37, 8, 'false']"
p1
(lp2
I12
asS"[-1, 'false', [0, 1, 11], 15, 34, 12, 'false']"
p3
(lp4
I18
asS"[-1, 'false', [0, 5, 7], 16, 16, 6, 'true']"
p5
(lp6
I20
asS"[-1, 'false', [6, 3, 3], 2, 23, 6, 'true']"
p7
(lp8
I23
asS"[-1, 'false', [1, 2, 9], 14, 37, 8, 'false']"
p9
(lp10
I30
asS"[-1, 'false', [1, 2, 9], 13, 37, 8, 'false']"
p11
(lp12
I30
asS"[-1, 'false', [8, 3, 1], 14, 12, 7, 'false']"
p13
(lp14
I26
asS"[-1, 'false', [2, 3, 7], 13, 8, 7, 'true']"
p15
(lp16
I21
asS"[-1, 'false', [3, 5, 4], 11, 7, 10, 'false']"
p17
(lp18
I24
asS"[-1, 'false', [1, 2, 9], 11, 8, 18, 'false']"
p19
(lp20
I20
asS"[-1, 'false', [6, 5, 1], 14, 45, 12, 'false']"
p21
(lp22
I15
asS"[-1, 'false', [2, 3, 7], 13, 49, 10, 'true']"
p23
(lp24
I20
asS"[-1, 'false', [2, 3, 7], 11, 20, 7, 'true']"
p25
(lp26
I34
asS"[-1, 'false', [8, 3, 1], 15, 14, 8, 'false']"
p27
(lp28
I18
asS"[-1, 'false', [3, 2, 7], 10, 20, 7, 'true']"
p29
(lp30
I42
asS"[-1, 'false', [2, 3, 7], 13, 20, 6, 'false']"
p31
(lp32
I38
asS"[-1, 'false', [4, 4, 4], 16, 8, 13, 'false']"
p33
(lp34
I28
asS"[-1, 'false', [7, 2, 3], 15, 31, 12, 'false']"
p35
(lp36
I19
asS"[-1, 'false', [1, 2, 9], 11, 38, 8, 'false']"
p37
(lp38
I29
asS"[-1, 'false', [8, 3, 1], 10, 11, 9, 'false']"
p39
(lp40
I36
asS"[-1, 'false', [2, 5, 5], 13, 20, 7, 'true']"
p41
(lp42
I27
asS"[-1, 'false', [1, 2, 9], 5, 37, 8, 'false']"
p43
(lp44
I33
asS"[-1, 'false', [3, 2, 7], 11, 17, 7, 'false']"
p45
(lp46
I38
asS"[-1, 'false', [1, 5, 6], 16, 36, 10, 'false']"
p47
(lp48
I12
asS"[-1, 'false', [10, 1, 1], 2, 10, 6, 'true']"
p49
(lp50
I22
asS"[-1, 'false', [1, 5, 6], 16, 15, 9, 'false']"
p51
(lp52
I20
asS"[-1, 'false', [1, 1, 10], 13, 5, 11, 'true']"
p53
(lp54
I28
asS"[-1, 'false', [0, 6, 6], 20, 39, 12, 'false']"
p55
(lp56
I30
asS"[-1, 'false', [2, 3, 7], 7, 40, 8, 'true']"
p57
(lp58
I24
asS"[-1, 'false', [1, 2, 9], 11, 37, 8, 'false']"
p59
(lp60
I30
asS"[-1, 'false', [1, 2, 9], 11, 34, 8, 'false']"
p61
(lp62
I34
asS"[-1, 'false', [5, 2, 5], 14, 37, 8, 'false']"
p63
(lp64
I25
asS"[-1, 'false', [7, 1, 4], 2, 23, 6, 'true']"
p65
(lp66
I30
asS"[-1, 'false', [2, 3, 7], 13, 20, 6, 'true']"
p67
(lp68
I38
asS"[-1, 'false', [1, 2, 9], 14, 37, 18, 'false']"
p69
(lp70
I14
asS"[-1, 'false', [1, 5, 6], 16, 36, 13, 'false']"
p71
(lp72
I20
asS"[-1, 'false', [6, 3, 3], 7, 23, 6, 'true']"
p73
(lp74
I16
asS"[-1, 'false', [10, 1, 1], 2, 23, 6, 'true']"
p75
(lp76
I29
asS"[-1, 'false', [2, 3, 7], 10, 20, 6, 'true']"
p77
(lp78
I34
asS"[-1, 'false', [5, 3, 4], 10, 20, 7, 'true']"
p79
(lp80
I35
asS"[-1, 'false', [2, 3, 7], 13, 20, 7, 'true']"
p81
(lp82
I31
asS"[-1, 'false', [1, 2, 9], 11, 40, 8, 'false']"
p83
(lp84
I28
asS"[-1, 'false', [0, 5, 7], 16, 29, 7, 'true']"
p85
(lp86
I15
asS"[-1, 'false', [2, 3, 7], 7, 43, 8, 'true']"
p87
(lp88
I25
asS"[-1, 'false', [8, 3, 1], 15, 29, 9, 'false']"
p89
(lp90
I17
asS"[-1, 'false', [2, 3, 7], 13, 2, 12, 'false']"
p91
(lp92
I25
asS"[-1, 'false', [2, 3, 7], 11, 15, 7, 'false']"
p93
(lp94
I27
asS"[-1, 'false', [3, 4, 5], 20, 8, 7, 'true']"
p95
(lp96
I23
asS"[-1, 'false', [5, 2, 5], 14, 12, 7, 'false']"
p97
(lp98
I29
asS"[-1, 'false', [1, 4, 7], 16, 16, 6, 'true']"
p99
(lp100
I20
asS"[-1, 'false', [6, 5, 1], 17, 45, 12, 'false']"
p101
(lp102
I13
asS"[-1, 'false', [1, 7, 4], 3, 2, 10, 'false']"
p103
(lp104
I24
asS"[-1, 'false', [0, 6, 6], 11, 5, 6, 'true']"
p105
(lp106
I32
asS"[-1, 'false', [2, 2, 8], 10, 17, 6, 'true']"
p107
(lp108
I34
asS"[-1, 'false', [2, 3, 7], 14, 20, 7, 'true']"
p109
(lp110
I15
asS"[-1, 'false', [3, 2, 7], 11, 17, 6, 'false']"
p111
(lp112
I37
asS"[-1, 'false', [2, 3, 7], 16, 2, 12, 'false']"
p113
(lp114
I25
asS"[-1, 'false', [2, 2, 8], 11, 15, 7, 'false']"
p115
(lp116
I24
asS"[-1, 'false', [2, 3, 7], 13, 43, 8, 'true']"
p117
(lp118
I25
asS"[-1, 'false', [2, 3, 7], 13, 49, 8, 'true']"
p119
(lp120
I27
asS"[-1, 'false', [4, 4, 4], 16, 36, 13, 'false']"
p121
(lp122
I25
asS"[-1, 'false', [4, 4, 4], 16, 36, 12, 'false']"
p123
(lp124
I17
asS"[-1, 'false', [4, 4, 4], 16, 2, 12, 'false']"
p125
(lp126
I16
asS"[-1, 'false', [10, 1, 1], 2, 23, 7, 'true']"
p127
(lp128
I30
asS"[-1, 'false', [10, 1, 1], 9, 1, 10, 'false']"
p129
(lp130
I19
asS"[-1, 'false', [7, 5, 0], 13, 15, 9, 'true']"
p131
(lp132
I14
asS"[-1, 'false', [1, 2, 9], 11, 8, 8, 'false']"
p133
(lp134
I33
asS"[-1, 'false', [6, 5, 1], 14, 2, 9, 'true']"
p135
(lp136
I17
asS"[-1, 'false', [3, 2, 7], 11, 15, 7, 'true']"
p137
(lp138
I40
asS"[-1, 'false', [7, 1, 4], 20, 1, 8, 'true']"
p139
(lp140
I25
asS"[-1, 'false', [11, 0, 1], 9, 13, 10, 'false']"
p141
(lp142
I26
asS"[-1, 'false', [0, 5, 7], 16, 12, 6, 'true']"
p143
(lp144
I25
asS"[-1, 'false', [1, 2, 9], 11, 15, 6, 'false']"
p145
(lp146
I23
asS"[-1, 'false', [9, 2, 1], 4, 48, 13, 'false']"
p147
(lp148
I24
asS"[-1, 'false', [10, 1, 1], 2, 15, 6, 'true']"
p149
(lp150
I30
asS"[-1, 'false', [12, 0, 0]]"
p151
(lp152
I26
aI26
aI30
aI29
aI29
aI29
aI13
aI15
aI29
asS"[-1, 'false', [7, 5, 0], 17, 4, 9, 'false']"
p153
(lp154
I18
asS"[-1, 'false', [10, 1, 1], 4, 23, 6, 'true']"
p155
(lp156
I28
asS"[-1, 'false', [0, 1, 11], 15, 31, 12, 'false']"
p157
(lp158
I18
asS"[-1, 'false', [2, 3, 7], 10, 20, 7, 'true']"
p159
(lp160
I43
asS"[-1, 'false', [2, 2, 8], 10, 20, 7, 'true']"
p161
(lp162
I43
asS"[-1, 'false', [8, 2, 2], 20, 1, 8, 'false']"
p163
(lp164
I29
asS"[-1, 'false', [2, 2, 8], 10, 20, 6, 'true']"
p165
(lp166
I41
asS"[-1, 'false', [3, 2, 7], 11, 15, 7, 'false']"
p167
(lp168
I40
asS"[-1, 'false', [2, 2, 8], 11, 37, 8, 'false']"
p169
(lp170
I30
asS"[-1, 'false', [2, 3, 7], 11, 20, 6, 'false']"
p171
(lp172
I33
asS"[-1, 'false', [8, 3, 1], 15, 17, 8, 'false']"
p173
(lp174
I21
asS"[-1, 'false', [8, 3, 1], 15, 12, 7, 'false']"
p175
(lp176
I13
asS"[-1, 'false', [3, 5, 4], 11, 18, 14, 'false']"
p177
(lp178
I22
asS"[-1, 'false', [6, 5, 1], 17, 18, 9, 'false']"
p179
(lp180
I17
asS"[-1, 'false', [6, 2, 4], 11, 36, 8, 'false']"
p181
(lp182
I32
asS"[-1, 'false', [1, 4, 7], 10, 20, 7, 'false']"
p183
(lp184
I38
asS"[-1, 'false', [1, 2, 9], 11, 15, 7, 'false']"
p185
(lp186
I17
as.