(dp0
S"[-1, 'false', [0, 1, 11], 16, 46, 6, 'false']"
p1
(lp2
I25
asS"[-1, 'false', [5, 6, 1], 5, 1, 13, 'true']"
p3
(lp4
I33
asS"[-1, 'false', [1, 9, 2], 17, 25, 7, 'false']"
p5
(lp6
I8
asS"[-1, 'false', [3, 6, 3], 15, 13, 9, 'true']"
p7
(lp8
I31
aI27
asS"[-1, 'false', [0, 1, 11], 7, 46, 6, 'true']"
p9
(lp10
I41
asS"[-1, 'false', [1, 2, 9], 13, 37, 8, 'false']"
p11
(lp12
I30
asS"[-1, 'false', [8, 3, 1], 14, 12, 7, 'false']"
p13
(lp14
I26
asS"[-1, 'false', [4, 7, 1], 4, 18, 10, 'false']"
p15
(lp16
I12
asS"[-1, 'false', [1, 4, 7], 18, 42, 6, 'false']"
p17
(lp18
I8
asS"[-1, 'false', [3, 1, 8], 5, 10, 9, 'true']"
p19
(lp20
I23
asS"[-1, 'false', [9, 2, 1], 1, 29, 14, 'true']"
p21
(lp22
I27
aI33
asS"[-1, 'false', [2, 2, 8], 18, 23, 6, 'false']"
p23
(lp24
I15
asS"[-1, 'false', [9, 2, 1], 17, 32, 6, 'true']"
p25
(lp26
I14
asS"[-1, 'false', [9, 2, 1], 8, 30, 14, 'true']"
p27
(lp28
I25
asS"[-1, 'false', [1, 2, 9], 13, 21, 18, 'false']"
p29
(lp30
I28
asS"[-1, 'false', [6, 4, 2], 2, 14, 8, 'true']"
p31
(lp32
I23
asS"[-1, 'false', [4, 3, 5], 11, 11, 7, 'true']"
p33
(lp34
I26
aI28
aI29
asS"[-1, 'false', [8, 2, 2], 17, 8, 11, 'false']"
p35
(lp36
I21
asS"[-1, 'false', [1, 2, 9], 11, 8, 18, 'false']"
p37
(lp38
I20
asS"[-1, 'false', [8, 2, 2], 20, 11, 13, 'false']"
p39
(lp40
I25
aI26
asS"[-1, 'false', [6, 5, 1], 14, 45, 12, 'false']"
p41
(lp42
I15
asS"[-1, 'false', [0, 3, 9], 20, 5, 14, 'false']"
p43
(lp44
I25
asS"[-1, 'false', [2, 3, 7], 13, 49, 10, 'true']"
p45
(lp46
I20
asS"[-1, 'false', [5, 3, 4], 5, 5, 9, 'true']"
p47
(lp48
I21
asS"[-1, 'false', [0, 3, 9], 15, 41, 11, 'true']"
p49
(lp50
I19
aI18
asS"[-1, 'false', [7, 2, 3], 3, 25, 7, 'true']"
p51
(lp52
I22
asS"[-1, 'false', [1, 4, 7], 18, 42, 10, 'false']"
p53
(lp54
I20
asS"[-1, 'false', [2, 7, 3], 17, 47, 7, 'false']"
p55
(lp56
I6
aI24
asS"[-1, 'false', [4, 4, 4], 10, 45, 10, 'false']"
p57
(lp58
I25
asS"[-1, 'false', [3, 4, 5], 12, 41, 7, 'false']"
p59
(lp60
I18
asS"[-1, 'false', [3, 2, 7], 2, 12, 10, 'true']"
p61
(lp62
I36
asS"[-1, 'false', [1, 5, 6], 7, 20, 9, 'false']"
p63
(lp64
I43
asS"[-1, 'false', [2, 2, 8], 15, 50, 11, 'false']"
p65
(lp66
I24
asS"[-1, 'false', [3, 3, 6], 7, 35, 10, 'false']"
p67
(lp68
I51
asS"[-1, 'false', [2, 3, 7], 13, 20, 6, 'false']"
p69
(lp70
I38
asS"[-1, 'false', [8, 2, 2], 5, 30, 14, 'false']"
p71
(lp72
I27
aI23
asS"[-1, 'false', [6, 5, 1], 4, 37, 9, 'false']"
p73
(lp74
I24
asS"[-1, 'false', [7, 1, 4], 17, 7, 8, 'true']"
p75
(lp76
I25
asS"[-1, 'false', [3, 6, 3], 4, 12, 8, 'false']"
p77
(lp78
I26
asS"[-1, 'false', [3, 4, 5], 15, 7, 9, 'true']"
p79
(lp80
I29
asS"[-1, 'false', [1, 5, 6], 14, 41, 9, 'false']"
p81
(lp82
I14
asS"[-1, 'false', [1, 5, 6], 11, 4, 11, 'true']"
p83
(lp84
I32
asS"[-1, 'false', [2, 4, 6], 2, 48, 14, 'false']"
p85
(lp86
I26
asS"[-1, 'false', [1, 6, 5], 14, 2, 11, 'false']"
p87
(lp88
I31
asS"[-1, 'false', [1, 2, 9], 11, 37, 4, 'false']"
p89
(lp90
I21
asS"[-1, 'false', [2, 5, 5], 13, 20, 7, 'true']"
p91
(lp92
I27
asS"[-1, 'false', [3, 3, 6], 3, 38, 8, 'false']"
p93
(lp94
I33
aI29
aI18
asS"[-1, 'false', [8, 1, 3], 8, 44, 7, 'true']"
p95
(lp96
I29
asS"[-1, 'false', [3, 2, 7], 11, 17, 7, 'false']"
p97
(lp98
I38
asS"[-1, 'false', [1, 5, 6], 16, 36, 10, 'false']"
p99
(lp100
I12
aI33
aI33
asS"[-1, 'false', [3, 1, 8], 14, 35, 6, 'true']"
p101
(lp102
I19
aI26
asS"[-1, 'false', [10, 1, 1], 2, 10, 6, 'true']"
p103
(lp104
I22
asS"[-1, 'false', [2, 7, 3], 7, 29, 11, 'false']"
p105
(lp106
I35
asS"[-1, 'false', [1, 5, 6], 16, 15, 9, 'false']"
p107
(lp108
I20
asS"[-1, 'false', [6, 4, 2], 1, 19, 6, 'true']"
p109
(lp110
I31
asS"[-1, 'false', [3, 7, 2], 11, 4, 12, 'false']"
p111
(lp112
I23
asS"[-1, 'false', [2, 8, 2], 7, 18, 7, 'false']"
p113
(lp114
I22
asS"[-1, 'false', [3, 2, 7], 11, 11, 7, 'true']"
p115
(lp116
I26
asS"[-1, 'false', [10, 1, 1], 12, 49, 9, 'true']"
p117
(lp118
I7
asS"[-1, 'false', [5, 4, 3], 14, 39, 12, 'true']"
p119
(lp120
I24
asS"[-1, 'false', [9, 2, 1], 15, 24, 10, 'true']"
p121
(lp122
I29
asS"[-1, 'false', [11, 0, 1], 9, 13, 10, 'false']"
p123
(lp124
I26
asS"[-1, 'false', [2, 3, 7], 9, 39, 13, 'false']"
p125
(lp126
I18
asS"[-1, 'false', [1, 2, 9], 11, 37, 8, 'false']"
p127
(lp128
I30
aI28
asS"[-1, 'false', [2, 3, 7], 10, 7, 15, 'true']"
p129
(lp130
I27
asS"[-1, 'false', [7, 4, 1], 8, 7, 12, 'true']"
p131
(lp132
I25
asS"[-1, 'false', [1, 2, 9], 11, 34, 8, 'false']"
p133
(lp134
I34
asS"[-1, 'false', [5, 2, 5], 14, 37, 8, 'false']"
p135
(lp136
I25
asS"[-1, 'false', [2, 3, 7], 9, 2, 12, 'false']"
p137
(lp138
I28
asS"[-1, 'false', [1, 7, 4], 4, 7, 8, 'true']"
p139
(lp140
I33
asS"[-1, 'false', [7, 4, 1], 5, 26, 13, 'true']"
p141
(lp142
I27
aI19
aI22
asS"[-1, 'false', [3, 3, 6], 5, 5, 9, 'true']"
p143
(lp144
I31
asS"[-1, 'false', [4, 4, 4], 15, 21, 14, 'true']"
p145
(lp146
I22
asS"[-1, 'false', [3, 1, 8], 9, 21, 6, 'false']"
p147
(lp148
I17
asS"[-1, 'false', [7, 3, 2], 17, 35, 15, 'true']"
p149
(lp150
I35
asS"[-1, 'false', [2, 8, 2], 6, 18, 12, 'false']"
p151
(lp152
I21
asS"[-1, 'false', [4, 2, 6], 7, 35, 10, 'true']"
p153
(lp154
I39
asS"[-1, 'false', [8, 2, 2], 12, 19, 9, 'true']"
p155
(lp156
I24
asS"[-1, 'false', [7, 1, 4], 4, 34, 10, 'false']"
p157
(lp158
I34
asS"[-1, 'false', [2, 5, 5], 8, 3, 9, 'false']"
p159
(lp160
I20
asS"[-1, 'false', [8, 3, 1], 17, 25, 15, 'false']"
p161
(lp162
I21
asS"[-1, 'false', [5, 5, 2], 5, 30, 14, 'false']"
p163
(lp164
I37
aI17
asS"[-1, 'false', [1, 2, 9], 11, 40, 8, 'false']"
p165
(lp166
I28
asS"[-1, 'false', [3, 7, 2], 5, 16, 9, 'false']"
p167
(lp168
I33
asS"[-1, 'false', [8, 3, 1], 7, 1, 7, 'true']"
p169
(lp170
I1480047028
asS"[-1, 'false', [10, 1, 1], 7, 7, 13, 'true']"
p171
(lp172
I18
asS"[-1, 'false', [2, 3, 7], 7, 43, 8, 'true']"
p173
(lp174
I25
asS"[-1, 'false', [8, 2, 2], 20, 1, 8, 'false']"
p175
(lp176
I29
asS"[-1, 'false', [1, 5, 6], 1, 10, 9, 'true']"
p177
(lp178
I34
aI38
asS"[-1, 'false', [3, 3, 6], 14, 2, 11, 'false']"
p179
(lp180
I26
asS"[-1, 'false', [3, 5, 4], 4, 25, 12, 'true']"
p181
(lp182
I25
asS"[-1, 'false', [6, 4, 2], 5, 26, 13, 'true']"
p183
(lp184
I27
asS"[-1, 'false', [0, 7, 5], 8, 11, 6, 'false']"
p185
(lp186
I26
asS"[-1, 'false', [2, 2, 8], 10, 17, 6, 'true']"
p187
(lp188
I34
asS"[-1, 'false', [2, 3, 7], 14, 20, 7, 'true']"
p189
(lp190
I15
asS"[-1, 'false', [1, 7, 4], 5, 19, 12, 'true']"
p191
(lp192
I25
asS"[-1, 'false', [5, 4, 3], 20, 35, 8, 'true']"
p193
(lp194
I10
asS"[-1, 'false', [2, 1, 9], 11, 13, 11, 'true']"
p195
(lp196
I43
asS"[-1, 'false', [1, 1, 10], 16, 36, 10, 'true']"
p197
(lp198
I23
asS"[-1, 'false', [8, 1, 3], 1, 26, 8, 'true']"
p199
(lp200
I33
asS"[-1, 'false', [2, 3, 7], 13, 43, 8, 'true']"
p201
(lp202
I25
asS"[-1, 'false', [2, 3, 7], 13, 49, 8, 'true']"
p203
(lp204
I27
aI30
aI30
asS"[-1, 'false', [3, 4, 5], 13, 7, 15, 'false']"
p205
(lp206
I21
asS"[-1, 'false', [5, 1, 6], 11, 6, 7, 'true']"
p207
(lp208
I26
asS"[-1, 'false', [3, 3, 6], 9, 45, 6, 'false']"
p209
(lp210
I14
asS"[-1, 'false', [6, 3, 3], 16, 36, 7, 'true']"
p211
(lp212
I28
aI38
aI15
asS"[-1, 'false', [4, 4, 4], 16, 2, 12, 'false']"
p213
(lp214
I16
asS"[-1, 'false', [2, 7, 3], 17, 46, 15, 'false']"
p215
(lp216
I18
asS"[-1, 'false', [0, 5, 7], 12, 2, 11, 'false']"
p217
(lp218
I27
asS"[-1, 'false', [10, 1, 1], 9, 1, 10, 'false']"
p219
(lp220
I19
asS"[-1, 'false', [5, 6, 1], 16, 9, 11, 'false']"
p221
(lp222
I25
asS"[-1, 'false', [4, 3, 5], 10, 5, 8, 'true']"
p223
(lp224
I28
asS"[-1, 'false', [3, 2, 7], 7, 11, 10, 'true']"
p225
(lp226
I27
asS"[-1, 'false', [7, 5, 0], 13, 15, 9, 'true']"
p227
(lp228
I14
asS"[-1, 'false', [6, 3, 3], 18, 4, 6, 'false']"
p229
(lp230
I20
asS"[-1, 'false', [7, 1, 4], 4, 40, 12, 'true']"
p231
(lp232
I25
asS"[-1, 'false', [0, 8, 4], 17, 47, 7, 'false']"
p233
(lp234
I1
asS"[-1, 'false', [5, 3, 4], 9, 9, 9, 'true']"
p235
(lp236
I27
asS"[-1, 'false', [6, 1, 5], 17, 26, 7, 'true']"
p237
(lp238
I14
asS"[-1, 'false', [0, 5, 7], 16, 12, 6, 'true']"
p239
(lp240
I25
asS"[-1, 'false', [2, 7, 3], 19, 46, 13, 'false']"
p241
(lp242
I10
asS"[-1, 'false', [10, 1, 1], 2, 15, 6, 'true']"
p243
(lp244
I30
asS"[-1, 'false', [7, 2, 3], 14, 40, 10, 'false']"
p245
(lp246
I24
asS"[-1, 'false', [6, 2, 4], 13, 40, 6, 'false']"
p247
(lp248
I8
asS"[-1, 'false', [2, 1, 9], 16, 4, 11, 'true']"
p249
(lp250
I27
asS"[-1, 'false', [5, 3, 4], 16, 15, 15, 'false']"
p251
(lp252
I31
asS"[-1, 'false', [5, 4, 3], 3, 1, 11, 'true']"
p253
(lp254
I24
asS"[-1, 'false', [7, 2, 3], 3, 25, 9, 'true']"
p255
(lp256
I36
asS"[-1, 'false', [6, 5, 1], 9, 45, 12, 'false']"
p257
(lp258
I13
asS"[-1, 'false', [0, 5, 7], 16, 29, 7, 'true']"
p259
(lp260
I15
aI18
asS"[-1, 'false', [8, 1, 3], 13, 11, 15, 'true']"
p261
(lp262
I20
asS"[-1, 'false', [6, 2, 4], 8, 16, 11, 'true']"
p263
(lp264
I33
asS"[-1, 'false', [2, 1, 9], 16, 27, 20, 'false']"
p265
(lp266
I20
aI21
asS"[-1, 'false', [1, 5, 6], 19, 43, 8, 'false']"
p267
(lp268
I11
asS"[-1, 'false', [8, 3, 1], 1, 7, 13, 'true']"
p269
(lp270
I32
asS"[-1, 'false', [2, 4, 6], 9, 10, 11, 'false']"
p271
(lp272
I28
asS"[-1, 'false', [7, 3, 2], 9, 30, 14, 'false']"
p273
(lp274
I33
asS"[-1, 'false', [8, 2, 2], 10, 8, 11, 'false']"
p275
(lp276
I23
asS"[-1, 'false', [2, 5, 5], 8, 29, 7, 'true']"
p277
(lp278
I23
asS"[-1, 'false', [5, 3, 4], 8, 16, 13, 'true']"
p279
(lp280
I24
asS"[-1, 'false', [8, 1, 3], 9, 28, 10, 'true']"
p281
(lp282
I28
asS"[-1, 'false', [5, 2, 5], 12, 18, 10, 'true']"
p283
(lp284
I28
asS"[-1, 'false', [1, 5, 6], 9, 8, 13, 'false']"
p285
(lp286
I40
aI40
asS"[-1, 'false', [3, 2, 7], 11, 15, 7, 'false']"
p287
(lp288
I40
asS"[-1, 'false', [8, 3, 1], 20, 43, 11, 'false']"
p289
(lp290
I8
asS"[-1, 'false', [3, 2, 7], 8, 43, 14, 'false']"
p291
(lp292
I21
asS"[-1, 'false', [2, 2, 8], 11, 37, 8, 'false']"
p293
(lp294
I30
asS"[-1, 'false', [9, 1, 2], 14, 31, 13, 'false']"
p295
(lp296
I24
asS"[-1, 'false', [1, 6, 5], 14, 24, 11, 'false']"
p297
(lp298
I20
asS"[-1, 'false', [6, 2, 4], 8, 28, 8, 'false']"
p299
(lp300
I26
asS"[-1, 'false', [8, 3, 1], 11, 7, 12, 'true']"
p301
(lp302
I24
asS"[-1, 'false', [4, 3, 5], 15, 13, 11, 'true']"
p303
(lp304
I29
asS"[-1, 'false', [1, 2, 9], 13, 2, 1, 'false']"
p305
(lp306
I35
asS"[-1, 'false', [5, 3, 4], 2, 40, 14, 'false']"
p307
(lp308
I32
aI31
asS"[-1, 'false', [9, 1, 2], 5, 46, 12, 'true']"
p309
(lp310
I16
aI36
asS"[-1, 'false', [2, 1, 9], 11, 4, 11, 'true']"
p311
(lp312
I32
aI26
aI18
asS"[-1, 'false', [6, 5, 1], 19, 8, 12, 'false']"
p313
(lp314
I15
aI19
asS"[-1, 'false', [6, 2, 4], 11, 36, 8, 'false']"
p315
(lp316
I32
asS"[-1, 'false', [3, 4, 5], 7, 29, 11, 'false']"
p317
(lp318
I37
aI36
asS"[-1, 'false', [9, 1, 2], 2, 33, 9, 'false']"
p319
(lp320
I32
aI33
asS"[-1, 'false', [1, 1, 10], 7, 43, 9, 'false']"
p321
(lp322
I40
asS"[-1, 'false', [4, 2, 6], 15, 7, 15, 'true']"
p323
(lp324
I38
asS"[-1, 'false', [3, 2, 7], 10, 20, 7, 'true']"
p325
(lp326
I42
asS"[-1, 'false', [8, 3, 1], 13, 49, 14, 'false']"
p327
(lp328
I21
asS"[-1, 'false', [8, 2, 2], 2, 24, 14, 'true']"
p329
(lp330
I34
asS"[-1, 'false', [0, 1, 11], 11, 4, 11, 'true']"
p331
(lp332
I39
asS"[-1, 'false', [6, 4, 2], 6, 13, 6, 'true']"
p333
(lp334
I22
asS"[-1, 'false', [1, 6, 5], 5, 29, 12, 'true']"
p335
(lp336
I33
asS"[-1, 'false', [8, 1, 3], 5, 39, 8, 'true']"
p337
(lp338
I30
asS"[-1, 'false', [6, 4, 2], 7, 29, 11, 'false']"
p339
(lp340
I21
asS"[-1, 'false', [2, 1, 9], 5, 5, 9, 'true']"
p341
(lp342
I29
asS"[-1, 'false', [3, 2, 7], 7, 27, 10, 'true']"
p343
(lp344
I40
asS"[-1, 'false', [1, 5, 6], 3, 40, 11, 'true']"
p345
(lp346
I28
asS"[-1, 'false', [3, 3, 6], 10, 35, 6, 'false']"
p347
(lp348
I39
aI23
asS"[-1, 'false', [9, 2, 1], 11, 41, 7, 'true']"
p349
(lp350
I15
asS"[-1, 'false', [5, 6, 1], 4, 1, 13, 'true']"
p351
(lp352
I25
asS"[-1, 'false', [0, 4, 8], 6, 19, 12, 'false']"
p353
(lp354
I27
asS"[-1, 'false', [4, 5, 3], 12, 38, 9, 'true']"
p355
(lp356
I26
asS"[-1, 'false', [0, 4, 8], 7, 19, 12, 'false']"
p357
(lp358
I30
asS"[-1, 'false', [3, 5, 4], 1, 41, 10, 'false']"
p359
(lp360
I26
asS"[-1, 'false', [3, 2, 7], 7, 35, 12, 'false']"
p361
(lp362
I17
asS"[-1, 'false', [6, 2, 4], 15, 27, 7, 'true']"
p363
(lp364
I25
asS"[-1, 'false', [3, 4, 5], 13, 9, 15, 'false']"
p365
(lp366
I25
asS"[-1, 'false', [9, 1, 2], 9, 23, 13, 'true']"
p367
(lp368
I18
asS"[-1, 'false', [3, 4, 5], 17, 28, 15, 'false']"
p369
(lp370
I27
asS"[-1, 'false', [5, 2, 5], 14, 12, 7, 'false']"
p371
(lp372
I29
asS"[-1, 'false', [6, 3, 3], 17, 26, 14, 'true']"
p373
(lp374
I20
asS"[-1, 'false', [2, 2, 8], 16, 1, 10, 'true']"
p375
(lp376
I26
asS"[-1, 'false', [3, 2, 7], 10, 12, 12, 'true']"
p377
(lp378
I18
asS"[-1, 'false', [7, 4, 1], 1, 1, 11, 'true']"
p379
(lp380
I24
asS"[-1, 'false', [7, 4, 1], 9, 26, 13, 'true']"
p381
(lp382
I14
asS"[-1, 'false', [3, 2, 7], 7, 35, 10, 'true']"
p383
(lp384
I46
asS"[-1, 'false', [8, 3, 1], 15, 14, 8, 'false']"
p385
(lp386
I18
asS"[-1, 'false', [4, 2, 6], 8, 17, 6, 'false']"
p387
(lp388
I26
asS"[-1, 'false', [1, 2, 9], 2, 49, 9, 'true']"
p389
(lp390
I35
asS"[-1, 'false', [10, 1, 1], 8, 21, 14, 'false']"
p391
(lp392
I25
asS"[-1, 'false', [4, 2, 6], 18, 14, 8, 'false']"
p393
(lp394
I24
asS"[-1, 'false', [10, 1, 1], 1, 40, 7, 'true']"
p395
(lp396
I26
asS"[-1, 'false', [6, 5, 1], 17, 45, 12, 'false']"
p397
(lp398
I13
aI18
asS"[-1, 'false', [1, 5, 6], 11, 8, 11, 'true']"
p399
(lp400
I32
asS"[-1, 'false', [0, 2, 10], 3, 35, 15, 'true']"
p401
(lp402
I31
aI33
aI36
asS"[-1, 'false', [1, 8, 3], 14, 25, 12, 'false']"
p403
(lp404
I28
asS"[-1, 'false', [4, 4, 4], 16, 8, 13, 'false']"
p405
(lp406
I28
asS"[-1, 'false', [2, 5, 5], 20, 47, 12, 'false']"
p407
(lp408
I13
asS"[-1, 'false', [2, 5, 5], 12, 2, 11, 'false']"
p409
(lp410
I25
aI26
asS"[-1, 'false', [1, 6, 5], 8, 41, 9, 'false']"
p411
(lp412
I32
asS"[-1, 'false', [4, 4, 4], 7, 29, 11, 'false']"
p413
(lp414
I24
asS"[-1, 'false', [9, 2, 1], 15, 27, 10, 'false']"
p415
(lp416
I17
asS"[-1, 'false', [3, 3, 6], 5, 5, 10, 'true']"
p417
(lp418
I20
asS"[-1, 'false', [1, 2, 9], 11, 38, 8, 'false']"
p419
(lp420
I29
asS"[-1, 'false', [7, 3, 2], 5, 30, 14, 'false']"
p421
(lp422
I39
asS"[-1, 'false', [5, 4, 3], 4, 40, 12, 'true']"
p423
(lp424
I20
asS"[-1, 'false', [1, 2, 9], 2, 28, 9, 'true']"
p425
(lp426
I32
asS"[-1, 'false', [3, 1, 8], 18, 19, 15, 'true']"
p427
(lp428
I15
asS"[-1, 'false', [2, 3, 7], 15, 17, 13, 'false']"
p429
(lp430
I37
aI30
asS"[-1, 'false', [6, 2, 4], 16, 27, 7, 'true']"
p431
(lp432
I11
asS"[-1, 'false', [2, 6, 4], 19, 4, 11, 'true']"
p433
(lp434
I22
asS"[-1, 'false', [3, 3, 6], 5, 8, 11, 'true']"
p435
(lp436
I11
asS"[-1, 'false', [7, 1, 4], 11, 43, 12, 'false']"
p437
(lp438
I27
asS"[-1, 'false', [5, 6, 1], 6, 30, 6, 'false']"
p439
(lp440
I18
asS"[-1, 'false', [7, 1, 4], 1, 34, 13, 'false']"
p441
(lp442
I34
asS"[-1, 'false', [3, 4, 5], 12, 29, 11, 'false']"
p443
(lp444
I13
asS"[-1, 'false', [9, 2, 1], 19, 17, 9, 'false']"
p445
(lp446
I23
asS"[-1, 'false', [0, 6, 6], 20, 39, 12, 'false']"
p447
(lp448
I30
asS"[-1, 'false', [10, 1, 1], 1, 40, 11, 'true']"
p449
(lp450
I27
aI21
asS"[-1, 'false', [7, 2, 3], 3, 25, 11, 'true']"
p451
(lp452
I25
asS"[-1, 'false', [1, 1, 10], 6, 36, 9, 'true']"
p453
(lp454
I19
asS"[-1, 'false', [1, 10, 1], 5, 46, 10, 'false']"
p455
(lp456
I11
aI22
asS"[-1, 'false', [1, 6, 5], 6, 29, 12, 'true']"
p457
(lp458
I36
asS"[-1, 'false', [4, 6, 2], 20, 7, 15, 'true']"
p459
(lp460
I32
asS"[-1, 'false', [2, 2, 8], 3, 35, 15, 'true']"
p461
(lp462
I34
asS"[-1, 'false', [7, 1, 4], 2, 23, 6, 'true']"
p463
(lp464
I30
asS"[-1, 'false', [1, 4, 7], 9, 34, 13, 'false']"
p465
(lp466
I30
asS"[-1, 'false', [1, 3, 8], 18, 46, 13, 'true']"
p467
(lp468
I31
asS"[-1, 'false', [3, 2, 7], 2, 15, 12, 'true']"
p469
(lp470
I30
aI35
asS"[-1, 'false', [1, 1, 10], 16, 36, 9, 'true']"
p471
(lp472
I37
aI1331000
asS"[-1, 'false', [3, 2, 7], 11, 47, 14, 'true']"
p473
(lp474
I27
asS"[-1, 'false', [4, 1, 7], 13, 41, 13, 'true']"
p475
(lp476
I39
asS"[-1, 'false', [0, 9, 3], 5, 19, 12, 'true']"
p477
(lp478
I25
asS"[-1, 'false', [10, 1, 1], 2, 23, 6, 'true']"
p479
(lp480
I29
aI36
aI36
asS"[-1, 'false', [2, 3, 7], 10, 20, 6, 'true']"
p481
(lp482
I34
asS"[-1, 'false', [5, 3, 4], 14, 39, 12, 'true']"
p483
(lp484
I23
asS"[-1, 'false', [0, 11, 1], 1, 40, 7, 'true']"
p485
(lp486
I19
asS"[-1, 'false', [5, 1, 6], 4, 20, 6, 'false']"
p487
(lp488
I37
asS"[-1, 'false', [7, 1, 4], 14, 9, 6, 'true']"
p489
(lp490
I33
asS"[-1, 'false', [2, 3, 7], 18, 23, 6, 'false']"
p491
(lp492
I17
asS"[-1, 'false', [1, 5, 6], 11, 19, 11, 'true']"
p493
(lp494
I26
asS"[-1, 'false', [8, 3, 1], 15, 29, 9, 'false']"
p495
(lp496
I17
aI15
asS"[-1, 'false', [2, 3, 7], 13, 2, 12, 'false']"
p497
(lp498
I25
asS"[-1, 'false', [2, 1, 9], 11, 8, 11, 'true']"
p499
(lp500
I34
asS"[-1, 'false', [7, 1, 4], 9, 5, 7, 'false']"
p501
(lp502
I21
asS"[-1, 'false', [2, 3, 7], 14, 45, 14, 'false']"
p503
(lp504
I16
asS"[-1, 'false', [10, 1, 1], 4, 40, 12, 'true']"
p505
(lp506
I32
asS"[-1, 'false', [5, 1, 6], 17, 36, 9, 'true']"
p507
(lp508
I14
asS"[-1, 'false', [8, 2, 2], 2, 24, 14, 'false']"
p509
(lp510
I21
aI35
asS"[-1, 'false', [3, 5, 4], 4, 3, 13, 'true']"
p511
(lp512
I23
asS"[-1, 'false', [3, 4, 5], 20, 8, 7, 'true']"
p513
(lp514
I23
asS"[-1, 'false', [1, 5, 6], 3, 42, 11, 'false']"
p515
(lp516
I24
asS"[-1, 'false', [1, 1, 10], 14, 27, 13, 'false']"
p517
(lp518
I33
asS"[-1, 'false', [7, 4, 1], 6, 42, 11, 'true']"
p519
(lp520
I11
asS"[-1, 'false', [2, 9, 1], 9, 48, 11, 'true']"
p521
(lp522
I16
asS"[-1, 'false', [3, 4, 5], 2, 47, 9, 'false']"
p523
(lp524
I32
asS"[-1, 'false', [0, 6, 6], 11, 5, 6, 'true']"
p525
(lp526
I32
asS"[-1, 'false', [6, 4, 2], 6, 10, 13, 'false']"
p527
(lp528
I33
aI26
asS"[-1, 'false', [9, 2, 1], 10, 7, 8, 'false']"
p529
(lp530
I19
asS"[-1, 'false', [5, 2, 5], 15, 7, 15, 'true']"
p531
(lp532
I21
asS"[-1, 'false', [9, 2, 1], 15, 27, 11, 'true']"
p533
(lp534
I22
asS"[-1, 'false', [2, 7, 3], 12, 2, 11, 'false']"
p535
(lp536
I32
asS"[-1, 'false', [3, 4, 5], 4, 26, 14, 'false']"
p537
(lp538
I41
asS"[-1, 'false', [0, 11, 1], 6, 28, 8, 'true']"
p539
(lp540
I20
asS"[-1, 'false', [2, 2, 8], 16, 50, 11, 'false']"
p541
(lp542
I16
aI30
aI25
aI29
asS"[-1, 'false', [1, 6, 5], 9, 29, 12, 'true']"
p543
(lp544
I32
asS"[-1, 'false', [2, 7, 3], 17, 46, 12, 'false']"
p545
(lp546
I10
asS"[-1, 'false', [2, 8, 2], 4, 1, 11, 'false']"
p547
(lp548
I28
asS"[-1, 'false', [7, 4, 1], 9, 26, 9, 'true']"
p549
(lp550
I18
asS"[-1, 'false', [10, 1, 1], 2, 23, 7, 'true']"
p551
(lp552
I30
asS"[-1, 'false', [2, 3, 7], 13, 2, 1, 'false']"
p553
(lp554
I31
asS"[-1, 'false', [4, 1, 7], 7, 7, 9, 'false']"
p555
(lp556
I31
aI28
asS"[-1, 'false', [5, 3, 4], 12, 40, 8, 'false']"
p557
(lp558
I26
asS"[-1, 'false', [8, 2, 2], 12, 22, 11, 'false']"
p559
(lp560
I16
asS"[-1, 'false', [2, 4, 6], 14, 27, 12, 'true']"
p561
(lp562
I28
asS"[-1, 'false', [3, 3, 6], 10, 7, 10, 'true']"
p563
(lp564
I19
asS"[-1, 'false', [5, 5, 2], 5, 30, 12, 'false']"
p565
(lp566
I31
asS"[-1, 'false', [9, 1, 2], 13, 23, 10, 'true']"
p567
(lp568
I21
aI23
aI28
asS"[-1, 'false', [2, 8, 2], 13, 27, 15, 'true']"
p569
(lp570
I18
aI17
asS"[-1, 'false', [1, 9, 2], 15, 13, 9, 'true']"
p571
(lp572
I27
asS"[-1, 'false', [9, 2, 1], 8, 6, 11, 'false']"
p573
(lp574
I27
asS"[-1, 'false', [1, 2, 9], 8, 38, 14, 'false']"
p575
(lp576
I31
asS"[-1, 'false', [5, 2, 5], 10, 35, 6, 'false']"
p577
(lp578
I23
asS"[-1, 'false', [9, 1, 2], 7, 17, 7, 'false']"
p579
(lp580
I25
asS"[-1, 'false', [9, 2, 1], 4, 48, 13, 'false']"
p581
(lp582
I24
asS"[-1, 'false', [12, 0, 0]]"
p583
(lp584
I26
aI26
aI30
aI29
aI29
aI29
aI13
aI15
aI29
aI30
aI24
aI30
aI25
aI25
aI24
aI26
aI31
aI35
aI24
aI42
asS"[-1, 'false', [6, 2, 4], 2, 33, 9, 'false']"
p585
(lp586
I35
asS"[-1, 'false', [3, 7, 2], 13, 12, 10, 'false']"
p587
(lp588
I21
asS"[-1, 'false', [2, 2, 8], 18, 31, 6, 'false']"
p589
(lp590
I10
asS"[-1, 'false', [7, 2, 3], 2, 30, 7, 'true']"
p591
(lp592
I33
asS"[-1, 'false', [4, 3, 5], 10, 5, 13, 'true']"
p593
(lp594
I28
asS"[-1, 'false', [10, 1, 1], 4, 23, 6, 'true']"
p595
(lp596
I28
asS"[-1, 'false', [0, 1, 11], 15, 31, 12, 'false']"
p597
(lp598
I18
asS"[-1, 'false', [2, 3, 7], 10, 20, 7, 'true']"
p599
(lp600
I43
asS"[-1, 'false', [5, 2, 5], 15, 11, 15, 'true']"
p601
(lp602
I28
asS"[-1, 'false', [2, 2, 8], 10, 20, 7, 'true']"
p603
(lp604
I43
asS"[-1, 'false', [0, 3, 9], 5, 49, 8, 'false']"
p605
(lp606
I22
asS"[-1, 'false', [2, 4, 6], 19, 28, 8, 'true']"
p607
(lp608
I27
asS"[-1, 'false', [4, 4, 4], 15, 2, 14, 'true']"
p609
(lp610
I25
asS"[-1, 'false', [3, 2, 7], 2, 8, 12, 'true']"
p611
(lp612
I26
asS"[-1, 'false', [3, 4, 5], 4, 26, 15, 'false']"
p613
(lp614
I32
asS"[-1, 'false', [1, 2, 9], 20, 34, 8, 'false']"
p615
(lp616
I15
asS"[-1, 'false', [2, 5, 5], 20, 37, 14, 'true']"
p617
(lp618
I16
asS"[-1, 'false', [1, 7, 4], 5, 23, 12, 'true']"
p619
(lp620
I43
asS"[-1, 'false', [6, 2, 4], 6, 10, 13, 'false']"
p621
(lp622
I34
asS"[-1, 'false', [2, 4, 6], 15, 48, 10, 'false']"
p623
(lp624
I7
asS"[-1, 'false', [3, 2, 7], 7, 35, 12, 'true']"
p625
(lp626
I32
aI25
aI29
asS"[-1, 'false', [2, 3, 7], 11, 20, 6, 'false']"
p627
(lp628
I33
asS"[-1, 'false', [8, 3, 1], 9, 22, 15, 'false']"
p629
(lp630
I20
asS"[-1, 'false', [1, 4, 7], 12, 42, 6, 'false']"
p631
(lp632
I30
asS"[-1, 'false', [2, 1, 9], 17, 7, 8, 'true']"
p633
(lp634
I32
asS"[-1, 'false', [0, 6, 6], 13, 32, 15, 'true']"
p635
(lp636
I34
asS"[-1, 'false', [4, 5, 3], 6, 8, 12, 'false']"
p637
(lp638
I18
asS"[-1, 'false', [1, 10, 1], 1, 47, 10, 'false']"
p639
(lp640
I31
asS"[-1, 'false', [5, 3, 4], 14, 24, 13, 'false']"
p641
(lp642
I28
asS"[-1, 'false', [0, 5, 7], 16, 16, 15, 'true']"
p643
(lp644
I49047005
asS"[-1, 'false', [7, 4, 1], 10, 3, 9, 'false']"
p645
(lp646
I21
asS"[-1, 'false', [5, 5, 2], 16, 50, 7, 'false']"
p647
(lp648
I14
asS"[-1, 'false', [1, 2, 9], 11, 15, 7, 'false']"
p649
(lp650
I17
asS"[-1, 'false', [4, 7, 1], 13, 23, 7, 'true']"
p651
(lp652
I18
asS"[-1, 'false', [6, 4, 2], 6, 39, 14, 'true']"
p653
(lp654
I17
asS"[-1, 'false', [2, 9, 1], 12, 4, 14, 'false']"
p655
(lp656
I27
asS"[-1, 'false', [0, 1, 11], 15, 34, 12, 'false']"
p657
(lp658
I18
asS"[-1, 'false', [9, 2, 1], 15, 6, 10, 'true']"
p659
(lp660
I14
asS"[-1, 'false', [1, 2, 9], 2, 38, 14, 'false']"
p661
(lp662
I26
asS"[-1, 'false', [6, 1, 5], 16, 20, 9, 'true']"
p663
(lp664
I24
aI29
asS"[-1, 'false', [1, 1, 10], 13, 36, 9, 'true']"
p665
(lp666
I26
aI39
asS"[-1, 'false', [5, 5, 2], 1, 41, 12, 'true']"
p667
(lp668
I25
asS"[-1, 'false', [3, 3, 6], 10, 7, 15, 'true']"
p669
(lp670
I24
aI35
asS"[-1, 'false', [5, 2, 5], 1, 50, 6, 'true']"
p671
(lp672
I250007
asS"[-1, 'false', [8, 2, 2], 12, 37, 12, 'false']"
p673
(lp674
I17
asS"[-1, 'false', [6, 3, 3], 6, 11, 12, 'false']"
p675
(lp676
I32
asS"[-1, 'false', [9, 2, 1], 14, 9, 6, 'true']"
p677
(lp678
I14
asS"[-1, 'false', [10, 1, 1], 11, 16, 15, 'false']"
p679
(lp680
I18
asS"[-1, 'false', [1, 7, 4], 5, 29, 12, 'true']"
p681
(lp682
I26
asS"[-1, 'false', [2, 4, 6], 14, 19, 8, 'true']"
p683
(lp684
I23
asS"[-1, 'false', [2, 3, 7], 10, 35, 6, 'false']"
p685
(lp686
I18
asS"[-1, 'false', [4, 1, 7], 5, 5, 9, 'true']"
p687
(lp688
I15
aI21
asS"[-1, 'false', [8, 2, 2], 20, 32, 15, 'true']"
p689
(lp690
I28
asS"[-1, 'false', [7, 2, 3], 2, 24, 4, 'false']"
p691
(lp692
I32
asS"[-1, 'false', [2, 1, 9], 12, 45, 15, 'true']"
p693
(lp694
I24
asS"[-1, 'false', [2, 4, 6], 3, 13, 9, 'true']"
p695
(lp696
I41
asS"[-1, 'false', [3, 3, 6], 12, 38, 8, 'false']"
p697
(lp698
I32
asS"[-1, 'false', [3, 8, 1], 14, 17, 15, 'false']"
p699
(lp700
I20
asS"[-1, 'false', [8, 1, 3], 14, 12, 14, 'false']"
p701
(lp702
I23
asS"[-1, 'false', [2, 6, 4], 8, 39, 9, 'false']"
p703
(lp704
I29
asS"[-1, 'false', [0, 5, 7], 14, 2, 11, 'false']"
p705
(lp706
I15
aI24
asS"[-1, 'false', [7, 1, 4], 16, 15, 15, 'false']"
p707
(lp708
I31
aI36
asS"[-1, 'false', [3, 3, 6], 15, 7, 15, 'true']"
p709
(lp710
I27
asS"[-1, 'false', [6, 3, 3], 19, 4, 11, 'false']"
p711
(lp712
I25
asS"[-1, 'false', [8, 1, 3], 20, 49, 8, 'true']"
p713
(lp714
I9
asS"[-1, 'false', [2, 3, 7], 15, 17, 11, 'false']"
p715
(lp716
I25
asS"[-1, 'false', [9, 2, 1], 1, 35, 14, 'true']"
p717
(lp718
I15
asS"[-1, 'false', [6, 1, 5], 14, 13, 9, 'true']"
p719
(lp720
I17
asS"[-1, 'false', [4, 6, 2], 11, 8, 8, 'true']"
p721
(lp722
I25
asS"[-1, 'false', [3, 2, 7], 11, 15, 7, 'true']"
p723
(lp724
I40
asS"[-1, 'false', [1, 2, 9], 5, 37, 8, 'false']"
p725
(lp726
I33
asS"[-1, 'false', [2, 5, 5], 15, 3, 9, 'false']"
p727
(lp728
I28
asS"[-1, 'false', [10, 1, 1], 11, 24, 9, 'true']"
p729
(lp730
I20
asS"[-1, 'false', [6, 2, 4], 15, 31, 7, 'true']"
p731
(lp732
I16
asS"[-1, 'false', [0, 3, 9], 20, 5, 13, 'true']"
p733
(lp734
I31
aI32
asS"[-1, 'false', [1, 2, 9], 12, 34, 8, 'false']"
p735
(lp736
I27
asS"[-1, 'false', [8, 1, 3], 15, 27, 7, 'true']"
p737
(lp738
I15
asS"[-1, 'false', [2, 2, 8], 11, 4, 11, 'true']"
p739
(lp740
I31
aI30
asS"[-1, 'false', [2, 2, 8], 13, 20, 13, 'true']"
p741
(lp742
I33
asS"[-1, 'false', [7, 4, 1], 3, 1, 11, 'true']"
p743
(lp744
I25
asS"[-1, 'false', [4, 1, 7], 9, 23, 13, 'true']"
p745
(lp746
I12447011
asS"[-1, 'false', [0, 1, 11], 11, 19, 11, 'true']"
p747
(lp748
I32
asS"[-1, 'false', [2, 4, 6], 9, 39, 3, 'false']"
p749
(lp750
I26
asS"[-1, 'false', [8, 3, 1], 5, 24, 14, 'true']"
p751
(lp752
I28
asS"[-1, 'false', [4, 2, 6], 2, 42, 15, 'false']"
p753
(lp754
I28
asS"[-1, 'false', [3, 1, 8], 5, 5, 9, 'true']"
p755
(lp756
I26
aI32
asS"[-1, 'false', [10, 1, 1], 7, 27, 13, 'false']"
p757
(lp758
I25
asS"[-1, 'false', [8, 2, 2], 20, 16, 8, 'false']"
p759
(lp760
I20
asS"[-1, 'false', [4, 7, 1], 12, 12, 6, 'true']"
p761
(lp762
I23
asS"[-1, 'false', [2, 6, 4], 19, 4, 9, 'true']"
p763
(lp764
I17
asS"[-1, 'false', [2, 4, 6], 19, 14, 6, 'true']"
p765
(lp766
I28
asS"[-1, 'false', [3, 3, 6], 8, 45, 6, 'false']"
p767
(lp768
I15
asS"[-1, 'false', [8, 1, 3], 10, 25, 13, 'true']"
p769
(lp770
I16
asS"[-1, 'false', [2, 3, 7], 13, 20, 6, 'true']"
p771
(lp772
I38
asS"[-1, 'false', [8, 3, 1], 20, 15, 10, 'true']"
p773
(lp774
I15
asS"[-1, 'false', [1, 5, 6], 16, 36, 13, 'false']"
p775
(lp776
I20
aI27
asS"[-1, 'false', [3, 3, 6], 19, 26, 7, 'false']"
p777
(lp778
I18
asS"[-1, 'false', [9, 2, 1], 6, 21, 11, 'true']"
p779
(lp780
I30
asS"[-1, 'false', [6, 3, 3], 7, 23, 6, 'true']"
p781
(lp782
I16
asS"[-1, 'false', [8, 3, 1], 10, 35, 10, 'false']"
p783
(lp784
I22
asS"[-1, 'false', [9, 1, 2], 5, 16, 6, 'true']"
p785
(lp786
I35
aI25
aI26
asS"[-1, 'false', [0, 3, 9], 18, 2, 13, 'true']"
p787
(lp788
I24
asS"[-1, 'false', [7, 2, 3], 14, 41, 10, 'false']"
p789
(lp790
I25
asS"[-1, 'false', [5, 4, 3], 11, 8, 8, 'true']"
p791
(lp792
I26
asS"[-1, 'false', [3, 5, 4], 11, 7, 10, 'false']"
p793
(lp794
I24
asS"[-1, 'false', [8, 1, 3], 9, 11, 10, 'true']"
p795
(lp796
I35
asS"[-1, 'false', [7, 3, 2], 15, 15, 9, 'false']"
p797
(lp798
I23
asS"[-1, 'false', [8, 1, 3], 2, 24, 14, 'false']"
p799
(lp800
I29
asS"[-1, 'false', [8, 2, 2], 19, 8, 11, 'false']"
p801
(lp802
I21
asS"[-1, 'false', [2, 1, 9], 16, 27, 14, 'false']"
p803
(lp804
I1440044012
asS"[-1, 'false', [4, 3, 5], 9, 11, 10, 'true']"
p805
(lp806
I32
asS"[-1, 'false', [3, 8, 1], 12, 9, 8, 'false']"
p807
(lp808
I24
asS"[-1, 'false', [1, 5, 6], 19, 14, 9, 'true']"
p809
(lp810
I12
asS"[-1, 'false', [3, 3, 6], 2, 15, 12, 'true']"
p811
(lp812
I32
asS"[-1, 'false', [3, 5, 4], 3, 47, 8, 'true']"
p813
(lp814
I41
asS"[-1, 'false', [5, 6, 1], 7, 32, 8, 'true']"
p815
(lp816
I10
asS"[-1, 'false', [1, 4, 7], 16, 16, 6, 'true']"
p817
(lp818
I20
asS"[-1, 'false', [2, 5, 5], 10, 40, 7, 'false']"
p819
(lp820
I25
asS"[-1, 'false', [1, 7, 4], 3, 2, 10, 'false']"
p821
(lp822
I24
asS"[-1, 'false', [3, 4, 5], 17, 20, 8, 'true']"
p823
(lp824
I18
asS"[-1, 'false', [5, 2, 5], 19, 7, 12, 'false']"
p825
(lp826
I29
asS"[-1, 'false', [6, 1, 5], 2, 12, 12, 'true']"
p827
(lp828
I26
asS"[-1, 'false', [9, 1, 2], 15, 35, 14, 'true']"
p829
(lp830
I18
aI32
asS"[-1, 'false', [2, 3, 7], 16, 2, 12, 'false']"
p831
(lp832
I25
asS"[-1, 'false', [0, 2, 10], 16, 36, 10, 'true']"
p833
(lp834
I27
asS"[-1, 'false', [3, 7, 2], 4, 1, 11, 'false']"
p835
(lp836
I32
aI33
asS"[-1, 'false', [1, 9, 2], 10, 25, 13, 'false']"
p837
(lp838
I16
aI33
asS"[-1, 'false', [3, 3, 6], 6, 40, 8, 'false']"
p839
(lp840
I38
aI27
asS"[-1, 'false', [4, 2, 6], 2, 12, 12, 'true']"
p841
(lp842
I31
asS"[-1, 'false', [2, 2, 8], 11, 15, 7, 'false']"
p843
(lp844
I24
asS"[-1, 'false', [5, 3, 4], 12, 42, 8, 'false']"
p845
(lp846
I24
asS"[-1, 'false', [3, 4, 5], 9, 9, 11, 'false']"
p847
(lp848
I20
asS"[-1, 'false', [4, 4, 4], 16, 36, 13, 'false']"
p849
(lp850
I25
asS"[-1, 'false', [5, 3, 4], 2, 9, 14, 'true']"
p851
(lp852
I26
asS"[-1, 'false', [4, 4, 4], 16, 36, 12, 'false']"
p853
(lp854
I17
asS"[-1, 'false', [8, 1, 3], 13, 28, 10, 'true']"
p855
(lp856
I33
asS"[-1, 'false', [3, 2, 7], 7, 40, 10, 'true']"
p857
(lp858
I42
asS"[-1, 'false', [3, 6, 3], 10, 15, 11, 'false']"
p859
(lp860
I37
asS"[-1, 'false', [6, 4, 2], 2, 46, 14, 'false']"
p861
(lp862
I19
asS"[-1, 'false', [5, 1, 6], 20, 22, 13, 'false']"
p863
(lp864
I20
asS"[-1, 'false', [9, 2, 1], 15, 27, 12, 'true']"
p865
(lp866
I15
asS"[-1, 'false', [5, 4, 3], 11, 32, 15, 'false']"
p867
(lp868
I24949010
asS"[-1, 'false', [2, 4, 6], 11, 8, 11, 'true']"
p869
(lp870
I20
asS"[-1, 'false', [4, 1, 7], 5, 26, 13, 'true']"
p871
(lp872
I32
asS"[-1, 'false', [1, 10, 1], 15, 10, 12, 'true']"
p873
(lp874
I23
asS"[-1, 'false', [9, 1, 2], 9, 23, 6, 'true']"
p875
(lp876
I23
asS"[-1, 'false', [6, 5, 1], 14, 2, 9, 'true']"
p877
(lp878
I17
asS"[-1, 'false', [4, 1, 7], 16, 4, 11, 'true']"
p879
(lp880
I23
asS"[-1, 'false', [2, 4, 6], 9, 31, 13, 'false']"
p881
(lp882
I18
asS"[-1, 'false', [3, 2, 7], 9, 39, 13, 'false']"
p883
(lp884
I29
asS"[-1, 'false', [1, 9, 2], 9, 24, 7, 'false']"
p885
(lp886
I17
asS"[-1, 'false', [2, 3, 7], 7, 40, 8, 'true']"
p887
(lp888
I24
asS"[-1, 'false', [2, 3, 7], 2, 24, 10, 'false']"
p889
(lp890
I29
asS"[-1, 'false', [2, 7, 3], 12, 2, 12, 'false']"
p891
(lp892
I24
asS"[-1, 'false', [6, 2, 4], 14, 41, 9, 'false']"
p893
(lp894
I25
aI18
asS"[-1, 'false', [1, 2, 9], 11, 15, 6, 'false']"
p895
(lp896
I23
asS"[-1, 'false', [2, 3, 7], 7, 21, 13, 'true']"
p897
(lp898
I31
asS"[-1, 'false', [2, 6, 4], 17, 17, 15, 'true']"
p899
(lp900
I22
asS"[-1, 'false', [3, 1, 8], 7, 35, 12, 'true']"
p901
(lp902
I25
asS"[-1, 'false', [2, 7, 3], 8, 31, 8, 'false']"
p903
(lp904
I31
asS"[-1, 'false', [9, 2, 1], 12, 42, 11, 'false']"
p905
(lp906
I13
asS"[-1, 'false', [2, 8, 2], 2, 26, 9, 'true']"
p907
(lp908
I22
asS"[-1, 'false', [8, 2, 2], 2, 9, 14, 'true']"
p909
(lp910
I26
aI24
asS"[-1, 'false', [9, 1, 2], 9, 16, 13, 'true']"
p911
(lp912
I21
asS"[-1, 'false', [6, 5, 1], 9, 24, 11, 'true']"
p913
(lp914
I20
asS"[-1, 'false', [10, 1, 1], 4, 22, 12, 'true']"
p915
(lp916
I28
asS"[-1, 'false', [6, 1, 5], 16, 36, 9, 'true']"
p917
(lp918
I16
asS"[-1, 'false', [6, 2, 4], 13, 45, 6, 'false']"
p919
(lp920
I18
asS"[-1, 'false', [3, 4, 5], 17, 7, 15, 'false']"
p921
(lp922
I23
asS"[-1, 'false', [8, 1, 3], 19, 28, 8, 'false']"
p923
(lp924
I17
asS"[-1, 'false', [1, 3, 8], 13, 5, 13, 'true']"
p925
(lp926
I31
asS"[-1, 'false', [7, 4, 1], 12, 44, 10, 'false']"
p927
(lp928
I9
asS"[-1, 'false', [7, 4, 1], 11, 33, 12, 'true']"
p929
(lp930
I11
asS"[-1, 'false', [10, 1, 1], 1, 10, 12, 'true']"
p931
(lp932
I27
asS"[-1, 'false', [0, 7, 5], 18, 48, 11, 'false']"
p933
(lp934
I7
asS"[-1, 'false', [9, 2, 1], 6, 33, 6, 'true']"
p935
(lp936
I30
asS"[-1, 'false', [10, 1, 1], 9, 23, 6, 'true']"
p937
(lp938
I23
aI23
aI23
asS"[-1, 'false', [4, 4, 4], 17, 19, 12, 'false']"
p939
(lp940
I21
asS"[-1, 'false', [6, 3, 3], 18, 43, 13, 'false']"
p941
(lp942
I24
asS"[-1, 'false', [7, 4, 1], 13, 35, 6, 'true']"
p943
(lp944
I10
asS"[-1, 'false', [3, 5, 4], 5, 40, 1, 'true']"
p945
(lp946
I35
asS"[-1, 'false', [3, 5, 4], 11, 18, 14, 'false']"
p947
(lp948
I22
aI27
asS"[-1, 'false', [6, 5, 1], 17, 18, 9, 'false']"
p949
(lp950
I17
asS"[-1, 'false', [4, 5, 3], 20, 19, 15, 'false']"
p951
(lp952
I14
asS"[-1, 'false', [0, 4, 8], 17, 9, 7, 'true']"
p953
(lp954
I21
asS"[-1, 'false', [3, 3, 6], 5, 30, 12, 'false']"
p955
(lp956
I32
asS"[-1, 'false', [10, 1, 1], 7, 26, 13, 'true']"
p957
(lp958
I15
asS"[-1, 'false', [5, 2, 5], 13, 45, 6, 'false']"
p959
(lp960
I23
asS"[-1, 'false', [8, 1, 3], 9, 23, 10, 'true']"
p961
(lp962
I21
asS"[-1, 'false', [2, 7, 3], 9, 14, 12, 'true']"
p963
(lp964
I21
asS"[-1, 'false', [2, 2, 8], 7, 27, 10, 'true']"
p965
(lp966
I19
asS"[-1, 'false', [0, 7, 5], 8, 24, 12, 'true']"
p967
(lp968
I30
asS"[-1, 'false', [6, 3, 3], 6, 27, 14, 'false']"
p969
(lp970
I31
aI32
asS"[-1, 'false', [1, 6, 5], 9, 2, 11, 'false']"
p971
(lp972
I35
asS"[-1, 'false', [4, 4, 4], 12, 38, 8, 'false']"
p973
(lp974
I22
asS"[-1, 'false', [1, 2, 9], 13, 8, 18, 'false']"
p975
(lp976
I26
asS"[-1, 'false', [4, 3, 5], 10, 5, 11, 'true']"
p977
(lp978
I30
asS"[-1, 'false', [3, 2, 7], 20, 37, 8, 'false']"
p979
(lp980
I12
asS"[-1, 'false', [4, 6, 2], 13, 48, 13, 'true']"
p981
(lp982
I15
asS"[-1, 'false', [0, 5, 7], 16, 16, 6, 'true']"
p983
(lp984
I20
asS"[-1, 'false', [6, 3, 3], 2, 23, 6, 'true']"
p985
(lp986
I23
asS"[-1, 'false', [4, 3, 5], 8, 2, 11, 'true']"
p987
(lp988
I20
asS"[-1, 'false', [1, 2, 9], 14, 37, 8, 'false']"
p989
(lp990
I30
asS"[-1, 'false', [0, 1, 11], 19, 24, 10, 'false']"
p991
(lp992
I29
asS"[-1, 'false', [3, 1, 8], 10, 5, 13, 'true']"
p993
(lp994
I24
aI35
aI29
asS"[-1, 'false', [8, 1, 3], 4, 40, 12, 'true']"
p995
(lp996
I21
asS"[-1, 'false', [2, 3, 7], 13, 8, 7, 'true']"
p997
(lp998
I21
asS"[-1, 'false', [5, 5, 2], 13, 12, 10, 'false']"
p999
(lp1000
I17
asS"[-1, 'false', [3, 5, 4], 12, 2, 11, 'false']"
p1001
(lp1002
I36
aI20
aI32
asS"[-1, 'false', [2, 2, 8], 19, 45, 7, 'true']"
p1003
(lp1004
I8
asS"[-1, 'false', [1, 9, 2], 12, 47, 7, 'false']"
p1005
(lp1006
I9
asS"[-1, 'false', [3, 7, 2], 11, 48, 13, 'true']"
p1007
(lp1008
I17
asS"[-1, 'false', [2, 9, 1], 2, 29, 14, 'false']"
p1009
(lp1010
I21
asS"[-1, 'false', [3, 5, 4], 4, 25, 13, 'true']"
p1011
(lp1012
I22
aI24
asS"[-1, 'false', [1, 1, 10], 13, 23, 15, 'true']"
p1013
(lp1014
I37
aI29
asS"[-1, 'false', [2, 3, 7], 11, 20, 7, 'true']"
p1015
(lp1016
I34
asS"[-1, 'false', [1, 2, 9], 12, 8, 18, 'false']"
p1017
(lp1018
I17
asS"[-1, 'false', [10, 1, 1], 6, 46, 13, 'false']"
p1019
(lp1020
I26
asS"[-1, 'false', [1, 4, 7], 14, 27, 9, 'false']"
p1021
(lp1022
I34
asS"[-1, 'false', [5, 4, 3], 14, 36, 12, 'true']"
p1023
(lp1024
I25
asS"[-1, 'false', [3, 2, 7], 16, 50, 11, 'false']"
p1025
(lp1026
I28
asS"[-1, 'false', [4, 6, 2], 17, 12, 15, 'true']"
p1027
(lp1028
I19
asS"[-1, 'false', [7, 2, 3], 15, 31, 12, 'false']"
p1029
(lp1030
I19
asS"[-1, 'false', [7, 1, 4], 6, 10, 9, 'false']"
p1031
(lp1032
I34
aI30
aI40
asS"[-1, 'false', [8, 1, 3], 14, 12, 15, 'false']"
p1033
(lp1034
I26
asS"[-1, 'false', [7, 4, 1], 3, 1, 12, 'true']"
p1035
(lp1036
I24
asS"[-1, 'false', [1, 7, 4], 8, 36, 13, 'false']"
p1037
(lp1038
I27
asS"[-1, 'false', [8, 3, 1], 10, 11, 9, 'false']"
p1039
(lp1040
I36
asS"[-1, 'false', [1, 7, 4], 5, 13, 12, 'true']"
p1041
(lp1042
I35
asS"[-1, 'false', [6, 4, 2], 7, 24, 13, 'false']"
p1043
(lp1044
I20
asS"[-1, 'false', [10, 1, 1], 15, 10, 6, 'true']"
p1045
(lp1046
I20
asS"[-1, 'false', [1, 1, 10], 13, 5, 11, 'true']"
p1047
(lp1048
I28
asS"[-1, 'false', [9, 2, 1], 15, 35, 14, 'true']"
p1049
(lp1050
I33
aI22
aI28
asS"[-1, 'false', [8, 2, 2], 10, 35, 6, 'false']"
p1051
(lp1052
I31
asS"[-1, 'false', [3, 5, 4], 18, 21, 9, 'true']"
p1053
(lp1054
I15
asS"[-1, 'false', [1, 5, 6], 19, 49, 6, 'true']"
p1055
(lp1056
I7
asS"[-1, 'false', [3, 4, 5], 10, 35, 6, 'false']"
p1057
(lp1058
I26
aI34
aI22
aI22
asS"[-1, 'false', [3, 2, 7], 2, 37, 15, 'false']"
p1059
(lp1060
I34
asS"[-1, 'false', [9, 1, 2], 6, 10, 9, 'false']"
p1061
(lp1062
I29
asS"[-1, 'false', [1, 6, 5], 8, 18, 11, 'true']"
p1063
(lp1064
I32
asS"[-1, 'false', [3, 2, 7], 7, 19, 10, 'true']"
p1065
(lp1066
I30
asS"[-1, 'false', [0, 3, 9], 14, 49, 10, 'true']"
p1067
(lp1068
I460047014
asS"[-1, 'false', [0, 4, 8], 19, 27, 13, 'true']"
p1069
(lp1070
I12
asS"[-1, 'false', [1, 2, 9], 14, 37, 18, 'false']"
p1071
(lp1072
I14
asS"[-1, 'false', [1, 5, 6], 14, 27, 12, 'true']"
p1073
(lp1074
I34
asS"[-1, 'false', [3, 5, 4], 5, 40, 13, 'true']"
p1075
(lp1076
I25
asS"[-1, 'false', [9, 2, 1], 17, 27, 10, 'true']"
p1077
(lp1078
I14
asS"[-1, 'false', [6, 3, 3], 16, 17, 14, 'true']"
p1079
(lp1080
I29
asS"[-1, 'false', [4, 1, 7], 7, 35, 10, 'true']"
p1081
(lp1082
I31
aI24
asS"[-1, 'false', [3, 2, 7], 2, 12, 12, 'true']"
p1083
(lp1084
I35
aI28
aI33
asS"[-1, 'false', [8, 1, 3], 13, 23, 10, 'false']"
p1085
(lp1086
I17
asS"[-1, 'false', [4, 5, 3], 9, 30, 7, 'false']"
p1087
(lp1088
I17
asS"[-1, 'false', [3, 1, 8], 10, 22, 13, 'true']"
p1089
(lp1090
I18
asS"[-1, 'false', [3, 4, 5], 14, 4, 7, 'false']"
p1091
(lp1092
I21
asS"[-1, 'false', [2, 6, 4], 17, 47, 7, 'false']"
p1093
(lp1094
I11
asS"[-1, 'false', [4, 6, 2], 6, 39, 14, 'true']"
p1095
(lp1096
I15
asS"[-1, 'false', [2, 4, 6], 9, 39, 13, 'false']"
p1097
(lp1098
I12
aI22
asS"[-1, 'false', [5, 3, 4], 10, 20, 7, 'true']"
p1099
(lp1100
I35
asS"[-1, 'false', [1, 9, 2], 17, 47, 7, 'false']"
p1101
(lp1102
I35
aI10
asS"[-1, 'false', [5, 2, 5], 18, 7, 13, 'true']"
p1103
(lp1104
I20
asS"[-1, 'false', [10, 1, 1], 14, 29, 10, 'false']"
p1105
(lp1106
I28
asS"[-1, 'false', [6, 4, 2], 3, 46, 14, 'false']"
p1107
(lp1108
I27
asS"[-1, 'false', [4, 3, 5], 17, 17, 15, 'true']"
p1109
(lp1110
I22
aI19
asS"[-1, 'false', [3, 3, 6], 4, 29, 12, 'false']"
p1111
(lp1112
I28
asS"[-1, 'false', [2, 3, 7], 11, 15, 7, 'false']"
p1113
(lp1114
I27
asS"[-1, 'false', [4, 3, 5], 8, 6, 12, 'false']"
p1115
(lp1116
I28
asS"[-1, 'false', [0, 9, 3], 1, 27, 8, 'true']"
p1117
(lp1118
I38
asS"[-1, 'false', [0, 1, 11], 17, 15, 9, 'false']"
p1119
(lp1120
I24
asS"[-1, 'false', [8, 3, 1], 5, 2, 15, 'true']"
p1121
(lp1122
I27
asS"[-1, 'false', [5, 4, 3], 14, 27, 12, 'true']"
p1123
(lp1124
I25
asS"[-1, 'false', [5, 1, 6], 16, 36, 9, 'true']"
p1125
(lp1126
I21
aI31
aI24
asS"[-1, 'false', [2, 6, 4], 5, 26, 7, 'false']"
p1127
(lp1128
I16
asS"[-1, 'false', [6, 4, 2], 14, 29, 11, 'true']"
p1129
(lp1130
I11
asS"[-1, 'false', [6, 5, 1], 14, 5, 13, 'true']"
p1131
(lp1132
I28
asS"[-1, 'false', [1, 1, 10], 16, 16, 9, 'true']"
p1133
(lp1134
I23
asS"[-1, 'false', [3, 2, 7], 11, 17, 6, 'false']"
p1135
(lp1136
I37
asS"[-1, 'false', [1, 1, 10], 16, 36, 9, 'false']"
p1137
(lp1138
I19
asS"[-1, 'false', [8, 2, 2], 15, 41, 11, 'true']"
p1139
(lp1140
I26
asS"[-1, 'false', [4, 5, 3], 15, 26, 12, 'true']"
p1141
(lp1142
I25
asS"[-1, 'false', [0, 2, 10], 7, 37, 7, 'true']"
p1143
(lp1144
I46
asS"[-1, 'false', [6, 3, 3], 20, 46, 11, 'true']"
p1145
(lp1146
I470049014
asS"[-1, 'false', [3, 3, 6], 10, 38, 8, 'false']"
p1147
(lp1148
I28
asS"[-1, 'false', [2, 8, 2], 17, 47, 7, 'false']"
p1149
(lp1150
I6
asS"[-1, 'false', [9, 2, 1], 15, 6, 14, 'true']"
p1151
(lp1152
I28
asS"[-1, 'false', [1, 3, 8], 13, 8, 18, 'false']"
p1153
(lp1154
I29
asS"[-1, 'false', [4, 3, 5], 13, 45, 6, 'false']"
p1155
(lp1156
I11
asS"[-1, 'false', [6, 2, 4], 13, 49, 8, 'true']"
p1157
(lp1158
I25
asS"[-1, 'false', [6, 4, 2], 2, 46, 12, 'false']"
p1159
(lp1160
I20
asS"[-1, 'false', [4, 6, 2], 10, 15, 11, 'false']"
p1161
(lp1162
I28
asS"[-1, 'false', [10, 1, 1], 8, 13, 14, 'false']"
p1163
(lp1164
I19
aI28
aI35
aI19
asS"[-1, 'false', [9, 2, 1], 15, 27, 10, 'true']"
p1165
(lp1166
I34
aI12
asS"[-1, 'false', [7, 1, 4], 10, 10, 9, 'false']"
p1167
(lp1168
I19
asS"[-1, 'false', [0, 3, 9], 7, 20, 15, 'false']"
p1169
(lp1170
I16
asS"[-1, 'false', [8, 2, 2], 7, 28, 8, 'true']"
p1171
(lp1172
I21
asS"[-1, 'false', [2, 5, 5], 8, 29, 6, 'true']"
p1173
(lp1174
I30
asS"[-1, 'false', [3, 4, 5], 14, 27, 12, 'true']"
p1175
(lp1176
I19
aI18
aI30
asS"[-1, 'false', [5, 5, 2], 18, 18, 6, 'true']"
p1177
(lp1178
I15
asS"[-1, 'false', [7, 3, 2], 16, 48, 12, 'false']"
p1179
(lp1180
I10
asS"[-1, 'false', [1, 2, 9], 11, 8, 8, 'false']"
p1181
(lp1182
I33
asS"[-1, 'false', [6, 5, 1], 3, 33, 13, 'false']"
p1183
(lp1184
I25
aI12
asS"[-1, 'false', [9, 1, 2], 4, 2, 13, 'true']"
p1185
(lp1186
I32
asS"[-1, 'false', [7, 1, 4], 20, 1, 8, 'true']"
p1187
(lp1188
I25
asS"[-1, 'false', [3, 3, 6], 6, 38, 8, 'false']"
p1189
(lp1190
I36
asS"[-1, 'false', [8, 2, 2], 5, 21, 14, 'false']"
p1191
(lp1192
I22
asS"[-1, 'false', [1, 7, 4], 15, 35, 12, 'true']"
p1193
(lp1194
I15
asS"[-1, 'false', [2, 9, 1], 10, 44, 11, 'false']"
p1195
(lp1196
I26
asS"[-1, 'false', [3, 7, 2], 16, 12, 7, 'true']"
p1197
(lp1198
I10
asS"[-1, 'false', [3, 5, 4], 14, 26, 14, 'false']"
p1199
(lp1200
I17
asS"[-1, 'false', [7, 5, 0], 17, 4, 9, 'false']"
p1201
(lp1202
I18
asS"[-1, 'false', [2, 2, 8], 13, 4, 12, 'true']"
p1203
(lp1204
I26
asS"[-1, 'false', [3, 1, 8], 7, 35, 12, 'false']"
p1205
(lp1206
I33
asS"[-1, 'false', [7, 2, 3], 10, 29, 6, 'false']"
p1207
(lp1208
I22
asS"[-1, 'false', [7, 3, 2], 15, 15, 19, 'false']"
p1209
(lp1210
I20
asS"[-1, 'false', [2, 7, 3], 14, 2, 11, 'false']"
p1211
(lp1212
I29
asS"[-1, 'false', [4, 3, 5], 15, 13, 9, 'true']"
p1213
(lp1214
I17
asS"[-1, 'false', [2, 2, 8], 10, 20, 6, 'true']"
p1215
(lp1216
I41
asS"[-1, 'false', [5, 1, 6], 20, 22, 11, 'false']"
p1217
(lp1218
I27
asS"[-1, 'false', [1, 6, 5], 16, 28, 11, 'true']"
p1219
(lp1220
I14
asS"[-1, 'false', [5, 1, 6], 4, 34, 10, 'false']"
p1221
(lp1222
I38
asS"[-1, 'false', [8, 2, 2], 1, 24, 14, 'false']"
p1223
(lp1224
I28
asS"[-1, 'false', [4, 5, 3], 17, 46, 15, 'false']"
p1225
(lp1226
I16
asS"[-1, 'false', [8, 3, 1], 10, 35, 6, 'false']"
p1227
(lp1228
I22
aI19
asS"[-1, 'false', [4, 2, 6], 2, 40, 14, 'false']"
p1229
(lp1230
I22
asS"[-1, 'false', [9, 2, 1], 15, 44, 14, 'true']"
p1231
(lp1232
I36
asS"[-1, 'false', [6, 3, 3], 18, 15, 14, 'false']"
p1233
(lp1234
I26
asS"[-1, 'false', [8, 1, 3], 13, 23, 10, 'true']"
p1235
(lp1236
I34
aI23
aI24
asS"[-1, 'false', [8, 3, 1], 15, 17, 8, 'false']"
p1237
(lp1238
I21
asS"[-1, 'false', [10, 1, 1], 18, 16, 8, 'true']"
p1239
(lp1240
I14
asS"[-1, 'false', [1, 2, 9], 11, 21, 8, 'false']"
p1241
(lp1242
I23
asS"[-1, 'false', [8, 3, 1], 15, 12, 7, 'false']"
p1243
(lp1244
I13
asS"[-1, 'false', [2, 3, 7], 13, 20, 7, 'true']"
p1245
(lp1246
I31
asS"[-1, 'false', [7, 1, 4], 2, 20, 10, 'true']"
p1247
(lp1248
I30
asS"[-1, 'false', [4, 4, 4], 20, 13, 10, 'false']"
p1249
(lp1250
I31
asS"[-1, 'false', [2, 7, 3], 17, 46, 13, 'false']"
p1251
(lp1252
I11
asS"[-1, 'false', [0, 10, 2], 4, 33, 14, 'false']"
p1253
(lp1254
I20
asS"[-1, 'false', [2, 6, 4], 17, 17, 12, 'true']"
p1255
(lp1256
I21
aI23
aI19
asS"[-1, 'false', [6, 1, 5], 1, 29, 14, 'true']"
p1257
(lp1258
I28
asS"[-1, 'false', [5, 5, 2], 7, 33, 12, 'false']"
p1259
(lp1260
I23
asS"[-1, 'false', [1, 1, 10], 2, 2, 6, 'true']"
p1261
(lp1262
I28
asS"[-1, 'false', [0, 9, 3], 3, 2, 8, 'false']"
p1263
(lp1264
I25
asS"[-1, 'false', [3, 4, 5], 13, 9, 11, 'false']"
p1265
(lp1266
I30
aI33
asS"[-1, 'false', [1, 4, 7], 10, 20, 7, 'false']"
p1267
(lp1268
I38
asS"[-1, 'false', [0, 6, 6], 8, 5, 12, 'false']"
p1269
(lp1270
I28
aI24
as.