(dp0
S"[-1, 'false', [3, 5, 4], 15, 27, 13, 'false']"
p1
(lp2
I23
asS"[-1, 'false', [2, 2, 8], 11, 28, 7, 'true']"
p3
(lp4
I33
asS"[-1, 'false', [7, 1, 4], 13, 26, 9, 'true']"
p5
(lp6
I23
asS"[-1, 'false', [7, 3, 2], 20, 46, 14, 'false']"
p7
(lp8
I11
asS"[-1, 'false', [1, 3, 8], 17, 3, 9, 'false']"
p9
(lp10
I30
asS"[-1, 'false', [6, 4, 2], 17, 4, 9, 'false']"
p11
(lp12
I23
asS"[-1, 'false', [8, 2, 2], 4, 1, 12, 'true']"
p13
(lp14
I20
asS"[-1, 'false', [8, 2, 2], 19, 49, 14, 'true']"
p15
(lp16
I18
asS"[-1, 'false', [1, 1, 10], 20, 4, 9, 'false']"
p17
(lp18
I27
asS"[-1, 'false', [2, 2, 8], 7, 29, 13, 'false']"
p19
(lp20
I32
aI18
asS"[-1, 'false', [6, 3, 3], 18, 20, 10, 'true']"
p21
(lp22
I15
asS"[-1, 'false', [1, 9, 2], 12, 40, 15, 'false']"
p23
(lp24
I9
asS"[-1, 'false', [4, 6, 2], 10, 19, 12, 'false']"
p25
(lp26
I23
asS"[-1, 'false', [1, 6, 5], 5, 7, 9, 'true']"
p27
(lp28
I28
asS"[-1, 'false', [1, 6, 5], 14, 39, 8, 'true']"
p29
(lp30
I20
asS"[-1, 'false', [6, 3, 3], 12, 7, 15, 'false']"
p31
(lp32
I17
asS"[-1, 'false', [5, 3, 4], 1, 22, 8, 'true']"
p33
(lp34
I34
asS"[-1, 'false', [7, 3, 2], 12, 25, 7, 'true']"
p35
(lp36
I26
asS"[-1, 'false', [1, 10, 1], 6, 13, 15, 'false']"
p37
(lp38
I15
asS"[-1, 'false', [8, 1, 3], 7, 11, 13, 'false']"
p39
(lp40
I26
asS"[-1, 'false', [4, 2, 6], 13, 5, 13, 'false']"
p41
(lp42
I18
asS"[-1, 'false', [1, 4, 7], 15, 7, 8, 'true']"
p43
(lp44
I19
asS"[-1, 'false', [4, 2, 6], 14, 26, 10, 'false']"
p45
(lp46
I21
asS"[-1, 'false', [2, 8, 2], 20, 21, 11, 'true']"
p47
(lp48
I15
asS"[-1, 'false', [4, 1, 7], 1, 46, 8, 'false']"
p49
(lp50
I26
aI35
aI25
asS"[-1, 'false', [6, 3, 3], 11, 47, 14, 'true']"
p51
(lp52
I22
asS"[-1, 'false', [1, 5, 6], 8, 21, 12, 'false']"
p53
(lp54
I29
asS"[-1, 'false', [9, 2, 1], 12, 39, 12, 'false']"
p55
(lp56
I26
asS"[-1, 'false', [8, 3, 1], 17, 35, 10, 'true']"
p57
(lp58
I20
asS"[-1, 'false', [0, 11, 1], 20, 7, 12, 'true']"
p59
(lp60
I19
asS"[-1, 'false', [2, 5, 5], 1, 15, 13, 'true']"
p61
(lp62
I32
asS"[-1, 'false', [4, 2, 6], 14, 37, 9, 'true']"
p63
(lp64
I30
asS"[-1, 'false', [9, 1, 2], 4, 30, 13, 'false']"
p65
(lp66
I25
asS"[-1, 'false', [8, 2, 2], 16, 47, 11, 'false']"
p67
(lp68
I26
asS"[-1, 'false', [3, 3, 6], 16, 22, 14, 'false']"
p69
(lp70
I23
asS"[-1, 'false', [9, 1, 2], 19, 12, 12, 'false']"
p71
(lp72
I23
asS"[-1, 'false', [3, 4, 5], 11, 30, 15, 'false']"
p73
(lp74
I30
asS"[-1, 'false', [9, 1, 2], 13, 23, 13, 'true']"
p75
(lp76
I36
asS"[-1, 'false', [3, 1, 8], 13, 46, 1, 'true']"
p77
(lp78
I15
asS"[-1, 'false', [1, 5, 6], 11, 38, 14, 'true']"
p79
(lp80
I32
asS"[-1, 'false', [1, 10, 1], 3, 5, 10, 'true']"
p81
(lp82
I32
asS"[-1, 'false', [1, 10, 1], 9, 29, 12, 'true']"
p83
(lp84
I20
asS"[-1, 'false', [3, 1, 8], 18, 11, 10, 'false']"
p85
(lp86
I26
asS"[-1, 'false', [0, 3, 9], 4, 1, 9, 'true']"
p87
(lp88
I30
asS"[-1, 'false', [8, 3, 1], 6, 34, 9, 'true']"
p89
(lp90
I11
asS"[-1, 'false', [7, 1, 4], 15, 2, 11, 'false']"
p91
(lp92
I28
asS"[-1, 'false', [2, 8, 2], 19, 2, 10, 'true']"
p93
(lp94
I25
asS"[-1, 'false', [3, 5, 4], 3, 17, 13, 'true']"
p95
(lp96
I25
asS"[-1, 'false', [10, 1, 1], 20, 2, 12, 'false']"
p97
(lp98
I26
aI24
asS"[-1, 'false', [6, 5, 1], 7, 23, 13, 'true']"
p99
(lp100
I23
asS"[-1, 'false', [3, 8, 1], 5, 8, 12, 'false']"
p101
(lp102
I20
asS"[-1, 'false', [3, 4, 5], 1, 38, 12, 'true']"
p103
(lp104
I36
asS"[-1, 'false', [10, 1, 1], 9, 47, 15, 'false']"
p105
(lp106
I14
asS"[-1, 'false', [1, 10, 1], 11, 36, 8, 'true']"
p107
(lp108
I15
asS"[-1, 'false', [3, 1, 8], 1, 50, 12, 'false']"
p109
(lp110
I21
asS"[-1, 'false', [3, 5, 4], 5, 9, 8, 'false']"
p111
(lp112
I31
asS"[-1, 'false', [1, 1, 10], 2, 27, 14, 'true']"
p113
(lp114
I34
asS"[-1, 'false', [6, 3, 3], 12, 15, 14, 'false']"
p115
(lp116
I20
asS"[-1, 'false', [8, 3, 1], 12, 41, 14, 'false']"
p117
(lp118
I27
asS"[-1, 'false', [7, 3, 2], 2, 30, 7, 'true']"
p119
(lp120
I30
asS"[-1, 'false', [1, 5, 6], 13, 25, 13, 'true']"
p121
(lp122
I44
asS"[-1, 'false', [8, 3, 1], 2, 30, 13, 'false']"
p123
(lp124
I28
asS"[-1, 'false', [0, 2, 10], 20, 12, 6, 'false']"
p125
(lp126
I19
asS"[-1, 'false', [6, 2, 4], 5, 31, 10, 'true']"
p127
(lp128
I28
asS"[-1, 'false', [1, 3, 8], 13, 30, 12, 'false']"
p129
(lp130
I27
asS"[-1, 'false', [3, 7, 2], 14, 25, 15, 'false']"
p131
(lp132
I11
asS"[-1, 'false', [6, 4, 2], 5, 37, 10, 'false']"
p133
(lp134
I17
asS"[-1, 'false', [2, 4, 6], 9, 43, 6, 'false']"
p135
(lp136
I33
asS"[-1, 'false', [1, 3, 8], 16, 42, 8, 'false']"
p137
(lp138
I10
asS"[-1, 'false', [2, 4, 6], 2, 42, 6, 'true']"
p139
(lp140
I27
asS"[-1, 'false', [2, 1, 9], 10, 47, 9, 'false']"
p141
(lp142
I32
asS"[-1, 'false', [3, 4, 5], 5, 25, 13, 'true']"
p143
(lp144
I25
asS"[-1, 'false', [4, 2, 6], 3, 9, 9, 'true']"
p145
(lp146
I31
asS"[-1, 'false', [9, 2, 1], 10, 6, 15, 'false']"
p147
(lp148
I24
asS"[-1, 'false', [3, 3, 6], 9, 29, 4, 'false']"
p149
(lp150
I35
asS"[-1, 'false', [5, 5, 2], 4, 31, 14, 'false']"
p151
(lp152
I44044007
asS"[-1, 'false', [8, 3, 1], 10, 34, 11, 'true']"
p153
(lp154
I4801196011
aI10
asS"[-1, 'false', [7, 4, 1], 12, 17, 15, 'true']"
p155
(lp156
I28
asS"[-1, 'false', [3, 1, 8], 13, 13, 1, 'true']"
p157
(lp158
I42
asS"[-1, 'false', [0, 6, 6], 2, 10, 6, 'true']"
p159
(lp160
I26
asS"[-1, 'false', [4, 5, 3], 11, 25, 10, 'false']"
p161
(lp162
I21
asS"[-1, 'false', [1, 6, 5], 8, 25, 12, 'true']"
p163
(lp164
I23
asS"[-1, 'false', [9, 1, 2], 14, 36, 6, 'false']"
p165
(lp166
I26
asS"[-1, 'false', [5, 6, 1], 18, 9, 13, 'false']"
p167
(lp168
I20
asS"[-1, 'false', [9, 1, 2], 9, 43, 9, 'false']"
p169
(lp170
I27
asS"[-1, 'false', [6, 1, 5], 2, 30, 15, 'false']"
p171
(lp172
I34
asS"[-1, 'false', [2, 2, 8], 13, 29, 13, 'false']"
p173
(lp174
I34
aI36
asS"[-1, 'false', [6, 5, 1], 20, 37, 12, 'true']"
p175
(lp176
I9
asS"[-1, 'false', [7, 2, 3], 20, 30, 10, 'true']"
p177
(lp178
I30
asS"[-1, 'false', [9, 1, 2], 17, 41, 9, 'false']"
p179
(lp180
I19
asS"[-1, 'false', [10, 1, 1], 15, 32, 8, 'false']"
p181
(lp182
I21
asS"[-1, 'false', [7, 4, 1], 12, 18, 6, 'true']"
p183
(lp184
I22
asS"[-1, 'false', [6, 2, 4], 2, 27, 9, 'false']"
p185
(lp186
I33
asS"[-1, 'false', [8, 2, 2], 3, 5, 6, 'true']"
p187
(lp188
I31
asS"[-1, 'false', [4, 2, 6], 19, 43, 15, 'false']"
p189
(lp190
I24
asS"[-1, 'false', [5, 1, 6], 9, 2, 10, 'true']"
p191
(lp192
I25
asS"[-1, 'false', [8, 3, 1], 20, 19, 11, 'true']"
p193
(lp194
I50011
asS"[-1, 'false', [4, 2, 6], 8, 3, 6, 'false']"
p195
(lp196
I26
asS"[-1, 'false', [0, 3, 9], 7, 38, 9, 'true']"
p197
(lp198
I33
asS"[-1, 'false', [3, 2, 7], 1, 3, 8, 'true']"
p199
(lp200
I24
asS"[-1, 'false', [3, 8, 1], 20, 40, 9, 'true']"
p201
(lp202
I14
asS"[-1, 'false', [2, 3, 7], 10, 49, 15, 'false']"
p203
(lp204
I16
asS"[-1, 'false', [5, 2, 5], 14, 48, 15, 'false']"
p205
(lp206
I34
asS"[-1, 'false', [7, 3, 2], 19, 3, 13, 'true']"
p207
(lp208
I22
asS"[-1, 'false', [0, 9, 3], 8, 11, 14, 'false']"
p209
(lp210
I23
asS"[-1, 'false', [1, 6, 5], 7, 24, 9, 'false']"
p211
(lp212
I31
aI37
asS"[-1, 'false', [6, 2, 4], 15, 27, 9, 'false']"
p213
(lp214
I33
asS"[-1, 'false', [1, 6, 5], 10, 27, 9, 'false']"
p215
(lp216
I29
asS"[-1, 'false', [6, 2, 4], 9, 2, 10, 'true']"
p217
(lp218
I20
asS"[-1, 'false', [1, 5, 6], 16, 9, 14, 'true']"
p219
(lp220
I32
asS"[-1, 'false', [6, 4, 2], 14, 44, 8, 'false']"
p221
(lp222
I11
asS"[-1, 'false', [3, 3, 6], 9, 27, 10, 'false']"
p223
(lp224
I39
aI36
aI37
asS"[-1, 'false', [8, 2, 2], 20, 30, 8, 'false']"
p225
(lp226
I18
asS"[-1, 'false', [4, 7, 1], 16, 42, 10, 'true']"
p227
(lp228
I38
asS"[-1, 'false', [0, 6, 6], 9, 41, 13, 'false']"
p229
(lp230
I30
asS"[-1, 'false', [3, 6, 3], 1, 36, 15, 'true']"
p231
(lp232
I29
asS"[-1, 'false', [4, 7, 1], 18, 16, 10, 'true']"
p233
(lp234
I20
asS"[-1, 'false', [6, 3, 3], 16, 29, 9, 'true']"
p235
(lp236
I33
asS"[-1, 'false', [1, 8, 3], 11, 28, 8, 'false']"
p237
(lp238
I28
asS"[-1, 'false', [5, 3, 4], 12, 1, 6, 'true']"
p239
(lp240
I18
asS"[-1, 'false', [8, 1, 3], 9, 11, 13, 'false']"
p241
(lp242
I23
asS"[-1, 'false', [2, 3, 7], 17, 33, 6, 'true']"
p243
(lp244
I27
asS"[-1, 'false', [8, 1, 3], 15, 10, 14, 'true']"
p245
(lp246
I27
asS"[-1, 'false', [10, 1, 1], 15, 16, 14, 'true']"
p247
(lp248
I20
asS"[-1, 'false', [2, 6, 4], 10, 11, 8, 'true']"
p249
(lp250
I20
asS"[-1, 'false', [10, 1, 1], 13, 13, 9, 'true']"
p251
(lp252
I26
asS"[-1, 'false', [8, 1, 3], 10, 48, 14, 'true']"
p253
(lp254
I18
asS"[-1, 'false', [5, 6, 1], 18, 25, 13, 'true']"
p255
(lp256
I11
asS"[-1, 'false', [1, 2, 9], 13, 27, 11, 'true']"
p257
(lp258
I20
asS"[-1, 'false', [6, 4, 2], 9, 1, 14, 'true']"
p259
(lp260
I30
asS"[-1, 'false', [7, 4, 1], 12, 21, 8, 'true']"
p261
(lp262
I21
asS"[-1, 'false', [2, 7, 3], 6, 30, 7, 'false']"
p263
(lp264
I23
asS"[-1, 'false', [0, 6, 6], 9, 25, 15, 'true']"
p265
(lp266
I23
asS"[-1, 'false', [2, 6, 4], 9, 20, 8, 'true']"
p267
(lp268
I32
asS"[-1, 'false', [2, 2, 8], 8, 36, 6, 'false']"
p269
(lp270
I29
asS"[-1, 'false', [3, 8, 1], 2, 9, 8, 'true']"
p271
(lp272
I13
asS"[-1, 'false', [2, 6, 4], 5, 31, 11, 'true']"
p273
(lp274
I34
asS"[-1, 'false', [4, 1, 7], 5, 37, 11, 'false']"
p275
(lp276
I26
asS"[-1, 'false', [0, 2, 10], 20, 7, 6, 'false']"
p277
(lp278
I29
asS"[-1, 'false', [7, 4, 1], 15, 36, 10, 'true']"
p279
(lp280
I25
asS"[-1, 'false', [9, 1, 2], 19, 8, 12, 'false']"
p281
(lp282
I26
asS"[-1, 'false', [5, 2, 5], 9, 9, 14, 'false']"
p283
(lp284
I27
asS"[-1, 'false', [2, 7, 3], 1, 32, 6, 'false']"
p285
(lp286
I29
asS"[-1, 'false', [6, 4, 2], 1, 22, 7, 'false']"
p287
(lp288
I27
asS"[-1, 'false', [0, 8, 4], 10, 34, 14, 'false']"
p289
(lp290
I37
asS"[-1, 'false', [2, 6, 4], 3, 4, 15, 'true']"
p291
(lp292
I31
asS"[-1, 'false', [9, 1, 2], 6, 20, 6, 'false']"
p293
(lp294
I24
asS"[-1, 'false', [6, 4, 2], 15, 8, 6, 'true']"
p295
(lp296
I19
asS"[-1, 'false', [8, 3, 1], 6, 2, 10, 'true']"
p297
(lp298
I25
asS"[-1, 'false', [3, 2, 7], 12, 32, 12, 'false']"
p299
(lp300
I27
asS"[-1, 'false', [7, 2, 3], 6, 19, 12, 'true']"
p301
(lp302
I26
asS"[-1, 'false', [1, 6, 5], 6, 1, 8, 'false']"
p303
(lp304
I27
asS"[-1, 'false', [1, 1, 10], 12, 37, 9, 'false']"
p305
(lp306
I32
asS"[-1, 'false', [8, 2, 2], 19, 21, 13, 'false']"
p307
(lp308
I24
aI14
asS"[-1, 'false', [5, 5, 2], 18, 5, 11, 'true']"
p309
(lp310
I25
asS"[-1, 'false', [1, 8, 3], 9, 28, 8, 'false']"
p311
(lp312
I35
asS"[-1, 'false', [2, 3, 7], 3, 22, 12, 'true']"
p313
(lp314
I30
aI28
asS"[-1, 'false', [0, 9, 3], 19, 8, 9, 'true']"
p315
(lp316
I21
asS"[-1, 'false', [0, 3, 9], 12, 26, 15, 'true']"
p317
(lp318
I26
asS"[-1, 'false', [2, 5, 5], 12, 35, 8, 'false']"
p319
(lp320
I19
asS"[-1, 'false', [6, 3, 3], 18, 10, 15, 'false']"
p321
(lp322
I26
asS"[-1, 'false', [2, 5, 5], 5, 3, 8, 'true']"
p323
(lp324
I36
asS"[-1, 'false', [2, 3, 7], 8, 22, 12, 'true']"
p325
(lp326
I24
aI35
asS"[-1, 'false', [0, 4, 8], 15, 10, 14, 'false']"
p327
(lp328
I28
asS"[-1, 'false', [6, 3, 3], 11, 30, 6, 'true']"
p329
(lp330
I37
asS"[-1, 'false', [1, 8, 3], 14, 10, 7, 'false']"
p331
(lp332
I15
asS"[-1, 'false', [0, 3, 9], 3, 36, 14, 'true']"
p333
(lp334
I24
asS"[-1, 'false', [3, 8, 1], 10, 39, 15, 'false']"
p335
(lp336
I14
asS"[-1, 'false', [8, 2, 2], 14, 48, 11, 'false']"
p337
(lp338
I15
asS"[-1, 'false', [5, 3, 4], 8, 18, 8, 'false']"
p339
(lp340
I19
asS"[-1, 'false', [4, 6, 2], 5, 4, 6, 'false']"
p341
(lp342
I27
asS"[-1, 'false', [6, 5, 1], 4, 20, 8, 'false']"
p343
(lp344
I28
asS"[-1, 'false', [2, 4, 6], 3, 22, 12, 'true']"
p345
(lp346
I38
asS"[-1, 'false', [10, 1, 1], 18, 9, 11, 'true']"
p347
(lp348
I4950013
asS"[-1, 'false', [1, 7, 4], 18, 20, 10, 'true']"
p349
(lp350
I24
asS"[-1, 'false', [8, 2, 2], 3, 37, 7, 'false']"
p351
(lp352
I1490050002
asS"[-1, 'false', [8, 3, 1], 3, 2, 15, 'true']"
p353
(lp354
I25
asS"[-1, 'false', [8, 3, 1], 6, 32, 7, 'true']"
p355
(lp356
I29
asS"[-1, 'false', [1, 2, 9], 10, 8, 9, 'false']"
p357
(lp358
I36
asS"[-1, 'false', [5, 1, 6], 2, 18, 13, 'true']"
p359
(lp360
I29
asS"[-1, 'false', [2, 1, 9], 4, 21, 8, 'false']"
p361
(lp362
I27
asS"[-1, 'false', [4, 6, 2], 8, 19, 8, 'true']"
p363
(lp364
I20
asS"[-1, 'false', [1, 8, 3], 3, 21, 14, 'true']"
p365
(lp366
I22
asS"[-1, 'false', [7, 3, 2], 14, 34, 11, 'false']"
p367
(lp368
I30
asS"[-1, 'false', [4, 4, 4], 16, 42, 10, 'true']"
p369
(lp370
I15
asS"[-1, 'false', [6, 4, 2], 16, 19, 7, 'false']"
p371
(lp372
I15
asS"[-1, 'false', [3, 7, 2], 15, 46, 11, 'true']"
p373
(lp374
I4
asS"[-1, 'false', [3, 6, 3], 11, 2, 13, 'true']"
p375
(lp376
I31
asS"[-1, 'false', [2, 8, 2], 16, 7, 6, 'true']"
p377
(lp378
I16
asS"[-1, 'false', [6, 3, 3], 1, 46, 8, 'false']"
p379
(lp380
I31
asS"[-1, 'false', [7, 4, 1], 6, 43, 7, 'true']"
p381
(lp382
I10
asS"[-1, 'false', [3, 4, 5], 7, 11, 12, 'true']"
p383
(lp384
I27
asS"[-1, 'false', [2, 2, 8], 11, 29, 13, 'false']"
p385
(lp386
I27
asS"[-1, 'false', [10, 1, 1], 16, 21, 10, 'false']"
p387
(lp388
I21
asS"[-1, 'false', [5, 2, 5], 18, 37, 10, 'false']"
p389
(lp390
I17
asS"[-1, 'false', [2, 9, 1], 9, 12, 14, 'false']"
p391
(lp392
I34
asS"[-1, 'false', [3, 2, 7], 12, 17, 9, 'true']"
p393
(lp394
I5000050010
asS"[-1, 'false', [3, 3, 6], 3, 22, 12, 'true']"
p395
(lp396
I32
asS"[-1, 'false', [9, 2, 1], 2, 44, 8, 'false']"
p397
(lp398
I37
asS"[-1, 'false', [5, 3, 4], 5, 39, 8, 'false']"
p399
(lp400
I22
asS"[-1, 'false', [3, 3, 6], 13, 29, 13, 'false']"
p401
(lp402
I33
aI26
aI22
aI23
asS"[-1, 'false', [1, 7, 4], 14, 4, 11, 'true']"
p403
(lp404
I40
asS"[-1, 'false', [7, 1, 4], 13, 33, 6, 'false']"
p405
(lp406
I36
asS"[-1, 'false', [2, 8, 2], 2, 22, 12, 'true']"
p407
(lp408
I22
asS"[-1, 'false', [3, 1, 8], 13, 46, 11, 'true']"
p409
(lp410
I29
asS"[-1, 'false', [7, 2, 3], 3, 40, 12, 'true']"
p411
(lp412
I32
asS"[-1, 'false', [1, 4, 7], 12, 35, 14, 'false']"
p413
(lp414
I27
asS"[-1, 'false', [2, 3, 7], 2, 19, 6, 'true']"
p415
(lp416
I24
asS"[-1, 'false', [6, 1, 5], 13, 36, 15, 'false']"
p417
(lp418
I32
asS"[-1, 'false', [8, 3, 1], 17, 48, 10, 'false']"
p419
(lp420
I5
asS"[-1, 'false', [2, 4, 6], 8, 47, 7, 'false']"
p421
(lp422
I22
asS"[-1, 'false', [4, 4, 4], 14, 4, 11, 'true']"
p423
(lp424
I23
aI24
asS"[-1, 'false', [5, 6, 1], 14, 48, 10, 'false']"
p425
(lp426
I21
asS"[-1, 'false', [7, 2, 3], 14, 1, 13, 'false']"
p427
(lp428
I32
asS"[-1, 'false', [0, 1, 11], 9, 48, 6, 'false']"
p429
(lp430
I37
asS"[-1, 'false', [1, 3, 8], 9, 28, 6, 'true']"
p431
(lp432
I50
asS"[-1, 'false', [1, 2, 9], 4, 27, 11, 'true']"
p433
(lp434
I38
asS"[-1, 'false', [1, 10, 1], 12, 28, 8, 'false']"
p435
(lp436
I12
asS"[-1, 'false', [4, 3, 5], 12, 21, 8, 'true']"
p437
(lp438
I21
asS"[-1, 'false', [0, 7, 5], 15, 31, 12, 'false']"
p439
(lp440
I17
asS"[-1, 'false', [0, 7, 5], 8, 18, 10, 'true']"
p441
(lp442
I31
asS"[-1, 'false', [2, 3, 7], 7, 42, 8, 'true']"
p443
(lp444
I23
asS"[-1, 'false', [3, 4, 5], 20, 11, 15, 'false']"
p445
(lp446
I29
asS"[-1, 'false', [7, 2, 3], 19, 14, 13, 'true']"
p447
(lp448
I27
asS"[-1, 'false', [0, 2, 10], 12, 43, 15, 'false']"
p449
(lp450
I8
asS"[-1, 'false', [2, 2, 8], 2, 5, 11, 'true']"
p451
(lp452
I35
asS"[-1, 'false', [0, 2, 10], 2, 24, 10, 'true']"
p453
(lp454
I42
asS"[-1, 'false', [0, 1, 11], 13, 37, 10, 'false']"
p455
(lp456
I15
asS"[-1, 'false', [0, 4, 8], 10, 46, 12, 'false']"
p457
(lp458
I25
asS"[-1, 'false', [1, 10, 1], 18, 20, 6, 'true']"
p459
(lp460
I11
asS"[-1, 'false', [3, 1, 8], 13, 17, 15, 'false']"
p461
(lp462
I35
asS"[-1, 'false', [5, 1, 6], 8, 14, 8, 'true']"
p463
(lp464
I24
asS"[-1, 'false', [3, 2, 7], 15, 49, 14, 'false']"
p465
(lp466
I27
asS"[-1, 'false', [0, 6, 6], 9, 27, 10, 'true']"
p467
(lp468
I40
asS"[-1, 'false', [6, 2, 4], 5, 23, 10, 'false']"
p469
(lp470
I38
asS"[-1, 'false', [4, 7, 1], 6, 5, 7, 'true']"
p471
(lp472
I21
asS"[-1, 'false', [5, 3, 4], 6, 39, 8, 'false']"
p473
(lp474
I32
asS"[-1, 'false', [8, 1, 3], 7, 8, 10, 'false']"
p475
(lp476
I30
asS"[-1, 'false', [2, 6, 4], 2, 10, 15, 'false']"
p477
(lp478
I45
asS"[-1, 'false', [9, 2, 1], 8, 15, 14, 'false']"
p479
(lp480
I10442007
asS"[-1, 'false', [7, 4, 1], 5, 12, 7, 'true']"
p481
(lp482
I26
asS"[-1, 'false', [0, 2, 10], 11, 24, 10, 'true']"
p483
(lp484
I30
asS"[-1, 'false', [8, 3, 1], 20, 31, 12, 'false']"
p485
(lp486
I20
asS"[-1, 'false', [8, 3, 1], 10, 34, 11, 'false']"
p487
(lp488
I27
asS"[-1, 'false', [7, 1, 4], 17, 10, 12, 'false']"
p489
(lp490
I24
asS"[-1, 'false', [4, 1, 7], 1, 25, 14, 'false']"
p491
(lp492
I48
asS"[-1, 'false', [6, 2, 4], 13, 34, 6, 'true']"
p493
(lp494
I23
asS"[-1, 'false', [1, 10, 1], 12, 14, 10, 'true']"
p495
(lp496
I12
asS"[-1, 'false', [4, 5, 3], 17, 9, 15, 'false']"
p497
(lp498
I24
asS"[-1, 'false', [12, 0, 0]]"
p499
(lp500
I21
aI18
aI26
aI30
aI33
aI16
aI36
aI10
aI31
aI18
aI28
aI39
aI30
aI29
aI19
aI26
aI28
aI34
aI21
aI50013
asS"[-1, 'false', [0, 11, 1], 12, 2, 10, 'true']"
p501
(lp502
I32
asS"[-1, 'false', [0, 10, 2], 16, 30, 13, 'true']"
p503
(lp504
I16
asS"[-1, 'false', [1, 8, 3], 16, 29, 6, 'true']"
p505
(lp506
I3
asS"[-1, 'false', [4, 1, 7], 11, 32, 8, 'true']"
p507
(lp508
I14646008
asS"[-1, 'false', [5, 2, 5], 18, 17, 14, 'true']"
p509
(lp510
I34
asS"[-1, 'false', [0, 1, 11], 18, 49, 13, 'false']"
p511
(lp512
I35
asS"[-1, 'false', [8, 1, 3], 8, 48, 10, 'false']"
p513
(lp514
I20
asS"[-1, 'false', [2, 2, 8], 10, 29, 13, 'false']"
p515
(lp516
I34
asS"[-1, 'false', [7, 4, 1], 7, 29, 11, 'false']"
p517
(lp518
I10
asS"[-1, 'false', [4, 6, 2], 2, 45, 6, 'true']"
p519
(lp520
I9
asS"[-1, 'false', [2, 3, 7], 10, 19, 15, 'false']"
p521
(lp522
I22
asS"[-1, 'false', [1, 4, 7], 5, 25, 13, 'true']"
p523
(lp524
I29
asS"[-1, 'false', [10, 1, 1], 14, 30, 11, 'true']"
p525
(lp526
I21
asS"[-1, 'false', [2, 9, 1], 8, 29, 10, 'true']"
p527
(lp528
I23
asS"[-1, 'false', [7, 3, 2], 10, 38, 6, 'false']"
p529
(lp530
I29
asS"[-1, 'false', [1, 10, 1], 20, 7, 11, 'true']"
p531
(lp532
I16
asS"[-1, 'false', [8, 1, 3], 11, 18, 6, 'true']"
p533
(lp534
I28
asS"[-1, 'false', [2, 3, 7], 8, 22, 8, 'true']"
p535
(lp536
I42
asS"[-1, 'false', [3, 4, 5], 20, 5, 15, 'true']"
p537
(lp538
I4449017
asS"[-1, 'false', [7, 1, 4], 19, 14, 15, 'false']"
p539
(lp540
I27
asS"[-1, 'false', [9, 2, 1], 4, 11, 6, 'true']"
p541
(lp542
I20
asS"[-1, 'false', [7, 1, 4], 12, 28, 15, 'false']"
p543
(lp544
I32
asS"[-1, 'false', [9, 1, 2], 7, 39, 15, 'true']"
p545
(lp546
I28
asS"[-1, 'false', [2, 5, 5], 9, 43, 6, 'false']"
p547
(lp548
I23
asS"[-1, 'false', [3, 4, 5], 13, 41, 13, 'true']"
p549
(lp550
I24
asS"[-1, 'false', [0, 6, 6], 9, 8, 8, 'false']"
p551
(lp552
I29
asS"[-1, 'false', [8, 2, 2], 9, 13, 13, 'false']"
p553
(lp554
I26
asS"[-1, 'false', [6, 2, 4], 15, 29, 11, 'false']"
p555
(lp556
I20
asS"[-1, 'false', [10, 1, 1], 3, 16, 14, 'false']"
p557
(lp558
I31
asS"[-1, 'false', [8, 2, 2], 10, 30, 6, 'true']"
p559
(lp560
I37
asS"[-1, 'false', [5, 3, 4], 18, 31, 8, 'true']"
p561
(lp562
I11
asS"[-1, 'false', [2, 3, 7], 7, 22, 12, 'true']"
p563
(lp564
I21
asS"[-1, 'false', [2, 7, 3], 8, 15, 9, 'false']"
p565
(lp566
I31
asS"[-1, 'false', [4, 2, 6], 13, 27, 6, 'false']"
p567
(lp568
I34
asS"[-1, 'false', [2, 4, 6], 13, 2, 8, 'true']"
p569
(lp570
I24
asS"[-1, 'false', [7, 3, 2], 17, 34, 8, 'false']"
p571
(lp572
I12
asS"[-1, 'false', [3, 1, 8], 6, 48, 13, 'false']"
p573
(lp574
I29
asS"[-1, 'false', [9, 2, 1], 15, 16, 11, 'true']"
p575
(lp576
I19
asS"[-1, 'false', [2, 5, 5], 13, 42, 10, 'false']"
p577
(lp578
I25
asS"[-1, 'false', [4, 7, 1], 2, 44, 12, 'true']"
p579
(lp580
I23
asS"[-1, 'false', [3, 1, 8], 13, 33, 6, 'false']"
p581
(lp582
I24
asS"[-1, 'false', [7, 4, 1], 6, 39, 7, 'true']"
p583
(lp584
I12
asS"[-1, 'false', [5, 5, 2], 12, 49, 14, 'false']"
p585
(lp586
I19
asS"[-1, 'false', [6, 5, 1], 12, 20, 9, 'true']"
p587
(lp588
I13
asS"[-1, 'false', [1, 6, 5], 3, 34, 12, 'false']"
p589
(lp590
I35
asS"[-1, 'false', [8, 3, 1], 7, 3, 14, 'false']"
p591
(lp592
I31
asS"[-1, 'false', [2, 6, 4], 4, 7, 13, 'false']"
p593
(lp594
I31
asS"[-1, 'false', [8, 2, 2], 17, 28, 8, 'true']"
p595
(lp596
I27
asS"[-1, 'false', [7, 3, 2], 2, 46, 15, 'true']"
p597
(lp598
I27
asS"[-1, 'false', [3, 3, 6], 10, 29, 13, 'true']"
p599
(lp600
I26
asS"[-1, 'false', [3, 4, 5], 13, 11, 6, 'false']"
p601
(lp602
I39
asS"[-1, 'false', [1, 4, 7], 17, 28, 15, 'true']"
p603
(lp604
I21
asS"[-1, 'false', [8, 1, 3], 17, 17, 13, 'true']"
p605
(lp606
I20
asS"[-1, 'false', [7, 3, 2], 6, 48, 11, 'true']"
p607
(lp608
I21
asS"[-1, 'false', [2, 8, 2], 16, 42, 6, 'true']"
p609
(lp610
I24947003
aI12
asS"[-1, 'false', [8, 3, 1], 8, 3, 13, 'false']"
p611
(lp612
I785000889005
aI22
asS"[-1, 'false', [6, 5, 1], 15, 33, 6, 'false']"
p613
(lp614
I12
asS"[-1, 'false', [2, 6, 4], 7, 27, 9, 'false']"
p615
(lp616
I42
aI36
asS"[-1, 'false', [10, 1, 1], 16, 35, 8, 'true']"
p617
(lp618
I14
asS"[-1, 'false', [3, 7, 2], 5, 10, 11, 'true']"
p619
(lp620
I22
asS"[-1, 'false', [0, 9, 3], 10, 22, 15, 'false']"
p621
(lp622
I14
asS"[-1, 'false', [2, 3, 7], 20, 15, 8, 'true']"
p623
(lp624
I25
asS"[-1, 'false', [2, 6, 4], 17, 40, 10, 'false']"
p625
(lp626
I20
asS"[-1, 'false', [7, 1, 4], 5, 22, 6, 'true']"
p627
(lp628
I24
asS"[-1, 'false', [1, 5, 6], 13, 43, 8, 'true']"
p629
(lp630
I9
asS"[-1, 'false', [2, 5, 5], 4, 37, 15, 'false']"
p631
(lp632
I29
asS"[-1, 'false', [10, 1, 1], 20, 3, 11, 'true']"
p633
(lp634
I25
asS"[-1, 'false', [0, 1, 11], 7, 23, 8, 'false']"
p635
(lp636
I38
asS"[-1, 'false', [4, 5, 3], 15, 45, 11, 'true']"
p637
(lp638
I15
asS"[-1, 'false', [4, 7, 1], 14, 24, 12, 'false']"
p639
(lp640
I12
asS"[-1, 'false', [4, 1, 7], 8, 30, 9, 'true']"
p641
(lp642
I24
asS"[-1, 'false', [2, 7, 3], 15, 26, 14, 'true']"
p643
(lp644
I14
asS"[-1, 'false', [8, 1, 3], 17, 17, 15, 'false']"
p645
(lp646
I26
asS"[-1, 'false', [1, 5, 6], 7, 27, 9, 'false']"
p647
(lp648
I33
asS"[-1, 'false', [1, 9, 2], 20, 3, 7, 'true']"
p649
(lp650
I28
asS"[-1, 'false', [4, 7, 1], 11, 2, 12, 'true']"
p651
(lp652
I22
asS"[-1, 'false', [5, 6, 1], 19, 47, 6, 'true']"
p653
(lp654
I11
asS"[-1, 'false', [2, 6, 4], 6, 20, 8, 'true']"
p655
(lp656
I30
asS"[-1, 'false', [0, 1, 11], 9, 2, 12, 'true']"
p657
(lp658
I29
asS"[-1, 'false', [9, 1, 2], 7, 43, 15, 'true']"
p659
(lp660
I24
asS"[-1, 'false', [0, 4, 8], 14, 22, 9, 'true']"
p661
(lp662
I23
asS"[-1, 'false', [5, 4, 3], 2, 36, 10, 'true']"
p663
(lp664
I33
asS"[-1, 'false', [9, 2, 1], 12, 40, 10, 'false']"
p665
(lp666
I17
asS"[-1, 'false', [0, 1, 11], 11, 39, 9, 'true']"
p667
(lp668
I24
aI29
asS"[-1, 'false', [1, 6, 5], 7, 27, 9, 'false']"
p669
(lp670
I34
aI33
aI30
aI30
aI23
asS"[-1, 'false', [8, 1, 3], 6, 26, 10, 'true']"
p671
(lp672
I32
asS"[-1, 'false', [2, 4, 6], 9, 38, 13, 'true']"
p673
(lp674
I16
asS"[-1, 'false', [5, 6, 1], 8, 50, 10, 'true']"
p675
(lp676
I10
asS"[-1, 'false', [2, 1, 9], 10, 50, 8, 'false']"
p677
(lp678
I21
asS"[-1, 'false', [1, 1, 10], 13, 4, 9, 'false']"
p679
(lp680
I37
aI33
asS"[-1, 'false', [5, 5, 2], 20, 49, 11, 'true']"
p681
(lp682
I8
asS"[-1, 'false', [2, 3, 7], 15, 19, 8, 'false']"
p683
(lp684
I26
asS"[-1, 'false', [6, 4, 2], 18, 34, 17, 'true']"
p685
(lp686
I33
asS"[-1, 'false', [10, 1, 1], 15, 42, 8, 'true']"
p687
(lp688
I26
asS"[-1, 'false', [4, 3, 5], 13, 21, 12, 'false']"
p689
(lp690
I25
asS"[-1, 'false', [1, 6, 5], 13, 27, 9, 'false']"
p691
(lp692
I23
asS"[-1, 'false', [8, 2, 2], 7, 27, 10, 'true']"
p693
(lp694
I27
asS"[-1, 'false', [7, 2, 3], 11, 26, 12, 'false']"
p695
(lp696
I37
asS"[-1, 'false', [0, 7, 5], 5, 14, 6, 'false']"
p697
(lp698
I46
asS"[-1, 'false', [5, 6, 1], 4, 12, 10, 'true']"
p699
(lp700
I19
asS"[-1, 'false', [7, 1, 4], 19, 11, 8, 'false']"
p701
(lp702
I23
asS"[-1, 'false', [3, 1, 8], 12, 17, 6, 'false']"
p703
(lp704
I21
asS"[-1, 'false', [4, 1, 7], 5, 8, 14, 'false']"
p705
(lp706
I28
asS"[-1, 'false', [5, 3, 4], 9, 9, 8, 'true']"
p707
(lp708
I30
asS"[-1, 'false', [3, 1, 8], 4, 8, 13, 'true']"
p709
(lp710
I23
asS"[-1, 'false', [6, 4, 2], 11, 28, 8, 'false']"
p711
(lp712
I24
asS"[-1, 'false', [4, 5, 3], 13, 44, 15, 'false']"
p713
(lp714
I11
asS"[-1, 'false', [0, 6, 6], 14, 35, 10, 'true']"
p715
(lp716
I21
asS"[-1, 'false', [8, 2, 2], 20, 2, 12, 'false']"
p717
(lp718
I33
asS"[-1, 'false', [0, 1, 11], 13, 6, 7, 'false']"
p719
(lp720
I23
asS"[-1, 'false', [0, 5, 7], 10, 26, 15, 'false']"
p721
(lp722
I16
asS"[-1, 'false', [6, 3, 3], 3, 15, 13, 'false']"
p723
(lp724
I20
asS"[-1, 'false', [9, 1, 2], 17, 41, 13, 'false']"
p725
(lp726
I31
asS"[-1, 'false', [6, 2, 4], 16, 38, 12, 'true']"
p727
(lp728
I27
asS"[-1, 'false', [4, 5, 3], 6, 13, 7, 'true']"
p729
(lp730
I24
asS"[-1, 'false', [2, 2, 8], 14, 24, 13, 'true']"
p731
(lp732
I27
asS"[-1, 'false', [3, 3, 6], 13, 29, 4, 'false']"
p733
(lp734
I47
asS"[-1, 'false', [10, 1, 1], 15, 17, 14, 'false']"
p735
(lp736
I24
asS"[-1, 'false', [4, 2, 6], 5, 11, 13, 'false']"
p737
(lp738
I25
asS"[-1, 'false', [1, 6, 5], 8, 24, 9, 'false']"
p739
(lp740
I26
asS"[-1, 'false', [2, 2, 8], 16, 31, 13, 'false']"
p741
(lp742
I19
asS"[-1, 'false', [3, 1, 8], 16, 20, 8, 'true']"
p743
(lp744
I34
asS"[-1, 'false', [0, 8, 4], 3, 28, 6, 'false']"
p745
(lp746
I38
asS"[-1, 'false', [0, 4, 8], 5, 30, 14, 'false']"
p747
(lp748
I19
asS"[-1, 'false', [5, 2, 5], 4, 9, 10, 'true']"
p749
(lp750
I23
asS"[-1, 'false', [3, 1, 8], 6, 25, 7, 'true']"
p751
(lp752
I42
asS"[-1, 'false', [8, 2, 2], 16, 40, 10, 'false']"
p753
(lp754
I16
asS"[-1, 'false', [4, 1, 7], 18, 15, 10, 'false']"
p755
(lp756
I27
asS"[-1, 'false', [4, 3, 5], 1, 12, 8, 'false']"
p757
(lp758
I28
asS"[-1, 'false', [2, 3, 7], 20, 47, 8, 'true']"
p759
(lp760
I16
asS"[-1, 'false', [9, 2, 1], 19, 39, 12, 'false']"
p761
(lp762
I34
asS"[-1, 'false', [1, 2, 9], 12, 8, 10, 'false']"
p763
(lp764
I25
asS"[-1, 'false', [7, 1, 4], 11, 25, 8, 'false']"
p765
(lp766
I25
asS"[-1, 'false', [8, 3, 1], 1, 1, 12, 'true']"
p767
(lp768
I31
asS"[-1, 'false', [0, 1, 11], 11, 25, 8, 'true']"
p769
(lp770
I31
asS"[-1, 'false', [3, 3, 6], 12, 27, 10, 'false']"
p771
(lp772
I26
asS"[-1, 'false', [3, 2, 7], 13, 29, 13, 'false']"
p773
(lp774
I27
asS"[-1, 'false', [3, 4, 5], 11, 1, 13, 'false']"
p775
(lp776
I19
asS"[-1, 'false', [2, 1, 9], 4, 10, 14, 'false']"
p777
(lp778
I30
asS"[-1, 'false', [2, 2, 8], 8, 29, 13, 'false']"
p779
(lp780
I26
asS"[-1, 'false', [8, 2, 2], 5, 41, 13, 'true']"
p781
(lp782
I23
aI23
asS"[-1, 'false', [4, 4, 4], 7, 25, 14, 'true']"
p783
(lp784
I31
asS"[-1, 'false', [7, 3, 2], 3, 24, 14, 'false']"
p785
(lp786
I15
asS"[-1, 'false', [1, 8, 3], 7, 35, 6, 'false']"
p787
(lp788
I19
asS"[-1, 'false', [2, 5, 5], 19, 1, 9, 'false']"
p789
(lp790
I18
asS"[-1, 'false', [4, 1, 7], 15, 48, 8, 'true']"
p791
(lp792
I36
asS"[-1, 'false', [1, 4, 7], 6, 12, 11, 'false']"
p793
(lp794
I47
asS"[-1, 'false', [1, 5, 6], 15, 45, 10, 'false']"
p795
(lp796
I46
asS"[-1, 'false', [6, 5, 1], 16, 2, 8, 'false']"
p797
(lp798
I21
asS"[-1, 'false', [1, 2, 9], 16, 4, 15, 'false']"
p799
(lp800
I22
asS"[-1, 'false', [9, 2, 1], 15, 49, 11, 'true']"
p801
(lp802
I19
asS"[-1, 'false', [9, 1, 2], 19, 46, 7, 'false']"
p803
(lp804
I31
asS"[-1, 'false', [9, 2, 1], 9, 38, 15, 'true']"
p805
(lp806
I27
asS"[-1, 'false', [1, 7, 4], 17, 34, 9, 'true']"
p807
(lp808
I7
asS"[-1, 'false', [1, 2, 9], 13, 8, 9, 'false']"
p809
(lp810
I39
asS"[-1, 'false', [4, 4, 4], 7, 41, 11, 'false']"
p811
(lp812
I26
asS"[-1, 'false', [6, 1, 5], 10, 46, 11, 'false']"
p813
(lp814
I27
asS"[-1, 'false', [1, 5, 6], 14, 40, 14, 'true']"
p815
(lp816
I32
asS"[-1, 'false', [9, 1, 2], 1, 48, 12, 'true']"
p817
(lp818
I21
asS"[-1, 'false', [4, 7, 1], 5, 27, 11, 'false']"
p819
(lp820
I22
asS"[-1, 'false', [2, 8, 2], 16, 23, 15, 'false']"
p821
(lp822
I18
asS"[-1, 'false', [7, 2, 3], 14, 6, 6, 'true']"
p823
(lp824
I2045000
asS"[-1, 'false', [10, 1, 1], 3, 23, 14, 'false']"
p825
(lp826
I24
asS"[-1, 'false', [5, 1, 6], 19, 12, 12, 'false']"
p827
(lp828
I17
asS"[-1, 'false', [4, 1, 7], 16, 25, 7, 'true']"
p829
(lp830
I15
asS"[-1, 'false', [4, 4, 4], 11, 11, 10, 'false']"
p831
(lp832
I33
asS"[-1, 'false', [5, 5, 2], 1, 47, 14, 'true']"
p833
(lp834
I21
asS"[-1, 'false', [0, 9, 3], 8, 11, 13, 'false']"
p835
(lp836
I25
asS"[-1, 'false', [4, 6, 2], 8, 34, 15, 'true']"
p837
(lp838
I26
asS"[-1, 'false', [7, 2, 3], 7, 19, 6, 'true']"
p839
(lp840
I22
asS"[-1, 'false', [3, 2, 7], 13, 7, 8, 'false']"
p841
(lp842
I17
asS"[-1, 'false', [0, 3, 9], 19, 13, 10, 'false']"
p843
(lp844
I28
asS"[-1, 'false', [1, 8, 3], 12, 28, 8, 'false']"
p845
(lp846
I15
asS"[-1, 'false', [8, 3, 1], 10, 34, 17, 'true']"
p847
(lp848
I13
asS"[-1, 'false', [1, 1, 10], 5, 16, 13, 'false']"
p849
(lp850
I22
asS"[-1, 'false', [2, 5, 5], 17, 42, 9, 'false']"
p851
(lp852
I24
asS"[-1, 'false', [2, 6, 4], 5, 42, 15, 'false']"
p853
(lp854
I42
asS"[-1, 'false', [5, 1, 6], 19, 44, 9, 'true']"
p855
(lp856
I22
asS"[-1, 'false', [5, 3, 4], 9, 17, 8, 'true']"
p857
(lp858
I24
asS"[-1, 'false', [7, 4, 1], 16, 37, 6, 'true']"
p859
(lp860
I7
asS"[-1, 'false', [9, 2, 1], 20, 50, 7, 'true']"
p861
(lp862
I10446010
asS"[-1, 'false', [1, 3, 8], 9, 21, 6, 'true']"
p863
(lp864
I23
asS"[-1, 'false', [5, 3, 4], 10, 19, 9, 'true']"
p865
(lp866
I17
asS"[-1, 'false', [10, 1, 1], 18, 46, 6, 'true']"
p867
(lp868
I12
asS"[-1, 'false', [2, 4, 6], 6, 18, 13, 'true']"
p869
(lp870
I26
asS"[-1, 'false', [8, 3, 1], 17, 32, 9, 'false']"
p871
(lp872
I20
asS"[-1, 'false', [0, 6, 6], 19, 34, 6, 'true']"
p873
(lp874
I9
asS"[-1, 'false', [9, 1, 2], 8, 22, 11, 'true']"
p875
(lp876
I32
asS"[-1, 'false', [5, 6, 1], 10, 48, 10, 'false']"
p877
(lp878
I15
asS"[-1, 'false', [2, 4, 6], 10, 29, 13, 'false']"
p879
(lp880
I19
asS"[-1, 'false', [1, 6, 5], 11, 31, 8, 'true']"
p881
(lp882
I22
asS"[-1, 'false', [2, 1, 9], 6, 22, 13, 'true']"
p883
(lp884
I2750006
asS"[-1, 'false', [8, 2, 2], 16, 33, 6, 'true']"
p885
(lp886
I19
asS"[-1, 'false', [8, 2, 2], 9, 27, 8, 'false']"
p887
(lp888
I27
asS"[-1, 'false', [3, 3, 6], 8, 27, 10, 'false']"
p889
(lp890
I33
asS"[-1, 'false', [9, 2, 1], 2, 35, 15, 'true']"
p891
(lp892
I16
asS"[-1, 'false', [2, 5, 5], 11, 46, 8, 'false']"
p893
(lp894
I13
aI15
aI17
asS"[-1, 'false', [0, 3, 9], 9, 11, 14, 'true']"
p895
(lp896
I31
asS"[-1, 'false', [4, 7, 1], 20, 36, 14, 'true']"
p897
(lp898
I15
asS"[-1, 'false', [9, 1, 2], 12, 17, 10, 'false']"
p899
(lp900
I25
asS"[-1, 'false', [0, 8, 4], 2, 40, 11, 'false']"
p901
(lp902
I21
asS"[-1, 'false', [3, 8, 1], 13, 39, 6, 'false']"
p903
(lp904
I20
asS"[-1, 'false', [8, 3, 1], 8, 24, 8, 'false']"
p905
(lp906
I22
asS"[-1, 'false', [1, 6, 5], 20, 14, 6, 'false']"
p907
(lp908
I11
asS"[-1, 'false', [7, 2, 3], 3, 20, 15, 'false']"
p909
(lp910
I27
asS"[-1, 'false', [8, 1, 3], 6, 38, 10, 'false']"
p911
(lp912
I27
asS"[-1, 'false', [2, 2, 8], 12, 49, 10, 'false']"
p913
(lp914
I30
asS"[-1, 'false', [2, 5, 5], 7, 24, 13, 'true']"
p915
(lp916
I25
asS"[-1, 'false', [6, 1, 5], 9, 34, 9, 'false']"
p917
(lp918
I30
asS"[-1, 'false', [8, 2, 2], 13, 47, 12, 'false']"
p919
(lp920
I20
asS"[-1, 'false', [9, 1, 2], 18, 50, 14, 'false']"
p921
(lp922
I28
asS"[-1, 'false', [2, 7, 3], 8, 23, 8, 'false']"
p923
(lp924
I41
asS"[-1, 'false', [10, 1, 1], 17, 7, 15, 'true']"
p925
(lp926
I28
asS"[-1, 'false', [5, 3, 4], 18, 17, 8, 'true']"
p927
(lp928
I13444008
asS"[-1, 'false', [6, 2, 4], 10, 11, 10, 'true']"
p929
(lp930
I36
asS"[-1, 'false', [8, 3, 1], 9, 39, 6, 'false']"
p931
(lp932
I16
asS"[-1, 'false', [2, 1, 9], 4, 7, 10, 'true']"
p933
(lp934
I26
asS"[-1, 'false', [0, 11, 1], 3, 47, 7, 'true']"
p935
(lp936
I15
asS"[-1, 'false', [6, 2, 4], 6, 39, 8, 'false']"
p937
(lp938
I25
asS"[-1, 'false', [0, 5, 7], 6, 24, 11, 'false']"
p939
(lp940
I24
asS"[-1, 'false', [7, 1, 4], 18, 17, 8, 'true']"
p941
(lp942
I24
asS"[-1, 'false', [7, 3, 2], 20, 1, 10, 'true']"
p943
(lp944
I23
asS"[-1, 'false', [7, 2, 3], 11, 45, 14, 'false']"
p945
(lp946
I27
asS"[-1, 'false', [6, 2, 4], 13, 20, 10, 'true']"
p947
(lp948
I28
asS"[-1, 'false', [3, 3, 6], 14, 49, 7, 'false']"
p949
(lp950
I18
asS"[-1, 'false', [8, 2, 2], 18, 1, 6, 'true']"
p951
(lp952
I26
asS"[-1, 'false', [3, 8, 1], 16, 42, 10, 'false']"
p953
(lp954
I10
asS"[-1, 'false', [2, 3, 7], 4, 49, 15, 'false']"
p955
(lp956
I41
asS"[-1, 'false', [2, 7, 3], 10, 44, 14, 'false']"
p957
(lp958
I13
asS"[-1, 'false', [6, 3, 3], 7, 46, 8, 'false']"
p959
(lp960
I21
asS"[-1, 'false', [4, 6, 2], 13, 50, 12, 'false']"
p961
(lp962
I12
asS"[-1, 'false', [3, 3, 6], 13, 29, 8, 'false']"
p963
(lp964
I28
asS"[-1, 'false', [3, 1, 8], 6, 41, 9, 'true']"
p965
(lp966
I42
asS"[-1, 'false', [6, 3, 3], 8, 22, 9, 'false']"
p967
(lp968
I31
asS"[-1, 'false', [6, 2, 4], 8, 24, 10, 'true']"
p969
(lp970
I27
asS"[-1, 'false', [3, 3, 6], 10, 29, 13, 'false']"
p971
(lp972
I21448000
aI21
asS"[-1, 'false', [3, 5, 4], 2, 21, 13, 'true']"
p973
(lp974
I29
asS"[-1, 'false', [0, 5, 7], 6, 13, 15, 'false']"
p975
(lp976
I22
asS"[-1, 'false', [2, 4, 6], 10, 30, 13, 'true']"
p977
(lp978
I29
asS"[-1, 'false', [3, 8, 1], 17, 35, 14, 'false']"
p979
(lp980
I14
asS"[-1, 'false', [10, 1, 1], 8, 3, 8, 'false']"
p981
(lp982
I25
asS"[-1, 'false', [6, 4, 2], 3, 9, 13, 'true']"
p983
(lp984
I28
asS"[-1, 'false', [2, 6, 4], 12, 22, 12, 'false']"
p985
(lp986
I29
asS"[-1, 'false', [2, 5, 5], 7, 27, 9, 'false']"
p987
(lp988
I34
asS"[-1, 'false', [4, 4, 4], 11, 49, 15, 'false']"
p989
(lp990
I19
asS"[-1, 'false', [5, 6, 1], 17, 11, 9, 'true']"
p991
(lp992
I17
asS"[-1, 'false', [5, 3, 4], 18, 17, 8, 'false']"
p993
(lp994
I16
asS"[-1, 'false', [6, 4, 2], 12, 6, 10, 'false']"
p995
(lp996
I15
asS"[-1, 'false', [6, 1, 5], 20, 33, 9, 'false']"
p997
(lp998
I14
asS"[-1, 'false', [9, 1, 2], 5, 40, 8, 'false']"
p999
(lp1000
I27
asS"[-1, 'false', [4, 7, 1], 20, 5, 12, 'false']"
p1001
(lp1002
I17
asS"[-1, 'false', [10, 1, 1], 5, 47, 15, 'true']"
p1003
(lp1004
I25
asS"[-1, 'false', [3, 1, 8], 13, 13, 9, 'true']"
p1005
(lp1006
I3470047010
asS"[-1, 'false', [7, 2, 3], 9, 30, 12, 'true']"
p1007
(lp1008
I22
asS"[-1, 'false', [3, 6, 3], 18, 33, 6, 'false']"
p1009
(lp1010
I8
asS"[-1, 'false', [0, 11, 1], 17, 23, 6, 'false']"
p1011
(lp1012
I11
asS"[-1, 'false', [7, 1, 4], 1, 39, 9, 'true']"
p1013
(lp1014
I36
aI28
asS"[-1, 'false', [7, 1, 4], 13, 29, 13, 'false']"
p1015
(lp1016
I31
aI29
asS"[-1, 'false', [4, 5, 3], 18, 2, 15, 'false']"
p1017
(lp1018
I24
asS"[-1, 'false', [1, 10, 1], 4, 36, 8, 'true']"
p1019
(lp1020
I16
asS"[-1, 'false', [2, 8, 2], 16, 39, 14, 'true']"
p1021
(lp1022
I24
asS"[-1, 'false', [1, 9, 2], 10, 47, 12, 'true']"
p1023
(lp1024
I17
asS"[-1, 'false', [5, 1, 6], 15, 32, 14, 'true']"
p1025
(lp1026
I26
asS"[-1, 'false', [7, 3, 2], 10, 41, 15, 'true']"
p1027
(lp1028
I18
asS"[-1, 'false', [9, 2, 1], 17, 1, 14, 'false']"
p1029
(lp1030
I31
asS"[-1, 'false', [1, 10, 1], 13, 27, 9, 'true']"
p1031
(lp1032
I29
asS"[-1, 'false', [2, 1, 9], 3, 20, 6, 'true']"
p1033
(lp1034
I33
asS"[-1, 'false', [3, 2, 7], 16, 13, 6, 'false']"
p1035
(lp1036
I32
asS"[-1, 'false', [4, 6, 2], 7, 16, 14, 'false']"
p1037
(lp1038
I15
asS"[-1, 'false', [6, 5, 1], 13, 1, 8, 'false']"
p1039
(lp1040
I2480048006
asS"[-1, 'false', [2, 5, 5], 13, 15, 7, 'false']"
p1041
(lp1042
I19
asS"[-1, 'false', [1, 1, 10], 12, 49, 15, 'true']"
p1043
(lp1044
I3470047014
asS"[-1, 'false', [1, 1, 10], 13, 5, 12, 'false']"
p1045
(lp1046
I28
asS"[-1, 'false', [2, 1, 9], 1, 48, 13, 'true']"
p1047
(lp1048
I42
asS"[-1, 'false', [9, 2, 1], 20, 31, 8, 'true']"
p1049
(lp1050
I34
asS"[-1, 'false', [7, 4, 1], 1, 7, 7, 'true']"
p1051
(lp1052
I34
asS"[-1, 'false', [4, 7, 1], 4, 49, 14, 'false']"
p1053
(lp1054
I21
asS"[-1, 'false', [2, 5, 5], 7, 29, 8, 'true']"
p1055
(lp1056
I37
asS"[-1, 'false', [2, 6, 4], 16, 20, 6, 'true']"
p1057
(lp1058
I18
asS"[-1, 'false', [8, 3, 1], 8, 21, 8, 'false']"
p1059
(lp1060
I17
asS"[-1, 'false', [4, 6, 2], 8, 50, 6, 'false']"
p1061
(lp1062
I15
asS"[-1, 'false', [3, 8, 1], 20, 12, 15, 'false']"
p1063
(lp1064
I17
asS"[-1, 'false', [5, 6, 1], 11, 10, 10, 'false']"
p1065
(lp1066
I16
asS"[-1, 'false', [8, 2, 2], 19, 48, 11, 'false']"
p1067
(lp1068
I20
asS"[-1, 'false', [5, 1, 6], 16, 29, 15, 'true']"
p1069
(lp1070
I29
asS"[-1, 'false', [0, 3, 9], 13, 34, 14, 'true']"
p1071
(lp1072
I36
asS"[-1, 'false', [7, 4, 1], 4, 28, 10, 'false']"
p1073
(lp1074
I20
asS"[-1, 'false', [2, 5, 5], 8, 25, 13, 'false']"
p1075
(lp1076
I30
asS"[-1, 'false', [3, 5, 4], 2, 11, 13, 'true']"
p1077
(lp1078
I27
asS"[-1, 'false', [2, 6, 4], 14, 4, 11, 'true']"
p1079
(lp1080
I22
asS"[-1, 'false', [6, 4, 2], 20, 35, 7, 'true']"
p1081
(lp1082
I8
asS"[-1, 'false', [2, 9, 1], 3, 41, 6, 'true']"
p1083
(lp1084
I24
asS"[-1, 'false', [2, 9, 1], 15, 9, 11, 'true']"
p1085
(lp1086
I16
asS"[-1, 'false', [4, 5, 3], 12, 42, 11, 'true']"
p1087
(lp1088
I45070097004
asS"[-1, 'false', [3, 6, 3], 13, 44, 15, 'false']"
p1089
(lp1090
I23
aI14
asS"[-1, 'false', [10, 1, 1], 10, 28, 15, 'true']"
p1091
(lp1092
I30
asS"[-1, 'false', [3, 4, 5], 20, 11, 6, 'false']"
p1093
(lp1094
I150017
aI19
asS"[-1, 'false', [5, 1, 6], 10, 11, 12, 'true']"
p1095
(lp1096
I29
asS"[-1, 'false', [10, 1, 1], 5, 1, 14, 'true']"
p1097
(lp1098
I24
asS"[-1, 'false', [3, 1, 8], 13, 4, 9, 'false']"
p1099
(lp1100
I23
asS"[-1, 'false', [0, 6, 6], 7, 19, 10, 'true']"
p1101
(lp1102
I29
asS"[-1, 'false', [1, 1, 10], 10, 4, 9, 'false']"
p1103
(lp1104
I33
asS"[-1, 'false', [10, 1, 1], 2, 32, 10, 'false']"
p1105
(lp1106
I32
asS"[-1, 'false', [2, 5, 5], 9, 27, 9, 'false']"
p1107
(lp1108
I18
asS"[-1, 'false', [2, 2, 8], 14, 36, 7, 'false']"
p1109
(lp1110
I24
asS"[-1, 'false', [2, 6, 4], 12, 10, 8, 'false']"
p1111
(lp1112
I18
asS"[-1, 'false', [2, 8, 2], 16, 42, 15, 'true']"
p1113
(lp1114
I15
asS"[-1, 'false', [2, 7, 3], 6, 20, 8, 'true']"
p1115
(lp1116
I25
asS"[-1, 'false', [3, 6, 3], 18, 45, 9, 'false']"
p1117
(lp1118
I15
asS"[-1, 'false', [8, 2, 2], 9, 49, 9, 'false']"
p1119
(lp1120
I22
asS"[-1, 'false', [7, 2, 3], 9, 30, 12, 'false']"
p1121
(lp1122
I31
asS"[-1, 'false', [1, 1, 10], 6, 49, 7, 'false']"
p1123
(lp1124
I40
asS"[-1, 'false', [9, 2, 1], 16, 28, 15, 'false']"
p1125
(lp1126
I24
asS"[-1, 'false', [3, 1, 8], 6, 49, 13, 'false']"
p1127
(lp1128
I37
asS"[-1, 'false', [5, 3, 4], 13, 29, 4, 'false']"
p1129
(lp1130
I36
asS"[-1, 'false', [7, 2, 3], 5, 18, 14, 'true']"
p1131
(lp1132
I30
asS"[-1, 'false', [8, 1, 3], 14, 23, 6, 'false']"
p1133
(lp1134
I24
asS"[-1, 'false', [3, 5, 4], 2, 29, 12, 'true']"
p1135
(lp1136
I36
asS"[-1, 'false', [5, 1, 6], 20, 50, 6, 'false']"
p1137
(lp1138
I14
asS"[-1, 'false', [0, 3, 9], 6, 26, 11, 'true']"
p1139
(lp1140
I32
asS"[-1, 'false', [1, 3, 8], 5, 4, 11, 'false']"
p1141
(lp1142
I28
asS"[-1, 'false', [0, 4, 8], 4, 30, 14, 'false']"
p1143
(lp1144
I27
asS"[-1, 'false', [6, 1, 5], 5, 50, 10, 'true']"
p1145
(lp1146
I30
asS"[-1, 'false', [3, 7, 2], 17, 37, 13, 'false']"
p1147
(lp1148
I30
asS"[-1, 'false', [6, 2, 4], 6, 2, 10, 'true']"
p1149
(lp1150
I31
asS"[-1, 'false', [3, 3, 6], 8, 32, 13, 'false']"
p1151
(lp1152
I17
as.