(dp0
S"[-1, 'false', [5, 5, 2], 11, 16, 13, 'false']"
p1
(lp2
I24
asS"[-1, 'false', [10, 1, 1], 3, 7, 10, 'false']"
p3
(lp4
I19
asS"[-1, 'false', [6, 3, 3], 20, 29, 8, 'false']"
p5
(lp6
I11
asS"[-1, 'false', [5, 4, 3], 8, 47, 10, 'false']"
p7
(lp8
I22
asS"[-1, 'false', [7, 3, 2], 8, 31, 8, 'true']"
p9
(lp10
I26
aI27
asS"[-1, 'false', [8, 2, 2], 1, 25, 14, 'false']"
p11
(lp12
I25
asS"[-1, 'false', [10, 1, 1], 15, 38, 12, 'true']"
p13
(lp14
I25
asS"[-1, 'false', [9, 1, 2], 11, 35, 8, 'false']"
p15
(lp16
I29
asS"[-1, 'false', [2, 1, 9], 8, 27, 12, 'false']"
p17
(lp18
I29
asS"[-1, 'false', [1, 5, 6], 1, 37, 12, 'true']"
p19
(lp20
I41
asS"[-1, 'false', [5, 1, 6], 14, 30, 6, 'false']"
p21
(lp22
I42
asS"[-1, 'false', [0, 10, 2], 15, 19, 13, 'true']"
p23
(lp24
I21
asS"[-1, 'false', [2, 2, 8], 18, 31, 13, 'false']"
p25
(lp26
I19
asS"[-1, 'false', [9, 2, 1], 3, 36, 13, 'false']"
p27
(lp28
I13
asS"[-1, 'false', [0, 4, 8], 8, 19, 6, 'false']"
p29
(lp30
I34
asS"[-1, 'false', [9, 1, 2], 13, 21, 14, 'true']"
p31
(lp32
I17
asS"[-1, 'false', [8, 1, 3], 10, 8, 7, 'false']"
p33
(lp34
I28
asS"[-1, 'false', [8, 2, 2], 18, 5, 7, 'false']"
p35
(lp36
I20
asS"[-1, 'false', [7, 1, 4], 7, 30, 6, 'true']"
p37
(lp38
I31
asS"[-1, 'false', [1, 5, 6], 20, 11, 7, 'true']"
p39
(lp40
I15
asS"[-1, 'false', [5, 5, 2], 8, 44, 11, 'false']"
p41
(lp42
I50007
asS"[-1, 'false', [5, 2, 5], 11, 3, 14, 'false']"
p43
(lp44
I26
asS"[-1, 'false', [8, 1, 3], 6, 1, 9, 'true']"
p45
(lp46
I28
asS"[-1, 'false', [6, 5, 1], 18, 27, 12, 'false']"
p47
(lp48
I22
asS"[-1, 'false', [2, 1, 9], 5, 25, 13, 'false']"
p49
(lp50
I39
asS"[-1, 'false', [5, 2, 5], 5, 23, 8, 'true']"
p51
(lp52
I28
asS"[-1, 'false', [6, 4, 2], 20, 33, 12, 'false']"
p53
(lp54
I15
asS"[-1, 'false', [0, 6, 6], 14, 19, 11, 'false']"
p55
(lp56
I32
asS"[-1, 'false', [1, 5, 6], 6, 48, 12, 'false']"
p57
(lp58
I30
asS"[-1, 'false', [9, 1, 2], 2, 40, 14, 'false']"
p59
(lp60
I31
asS"[-1, 'false', [2, 1, 9], 6, 2, 12, 'false']"
p61
(lp62
I15445019
asS"[-1, 'false', [2, 8, 2], 3, 3, 15, 'true']"
p63
(lp64
I24
asS"[-1, 'false', [2, 7, 3], 3, 13, 13, 'false']"
p65
(lp66
I23
asS"[-1, 'false', [6, 1, 5], 18, 46, 9, 'true']"
p67
(lp68
I26
asS"[-1, 'false', [3, 5, 4], 19, 18, 11, 'false']"
p69
(lp70
I15
asS"[-1, 'false', [4, 3, 5], 14, 37, 10, 'false']"
p71
(lp72
I31
asS"[-1, 'false', [4, 2, 6], 5, 23, 10, 'true']"
p73
(lp74
I33
asS"[-1, 'false', [4, 7, 1], 14, 16, 14, 'false']"
p75
(lp76
I21
asS"[-1, 'false', [4, 4, 4], 4, 21, 6, 'true']"
p77
(lp78
I34
asS"[-1, 'false', [0, 11, 1], 5, 37, 15, 'false']"
p79
(lp80
I11
asS"[-1, 'false', [10, 1, 1], 8, 8, 14, 'false']"
p81
(lp82
I21
asS"[-1, 'false', [3, 1, 8], 8, 50, 10, 'false']"
p83
(lp84
I25
asS"[-1, 'false', [10, 1, 1], 17, 13, 15, 'false']"
p85
(lp86
I28
asS"[-1, 'false', [2, 2, 8], 1, 48, 14, 'false']"
p87
(lp88
I24
asS"[-1, 'false', [8, 3, 1], 9, 29, 13, 'true']"
p89
(lp90
I12
asS"[-1, 'false', [2, 8, 2], 8, 35, 6, 'true']"
p91
(lp92
I17
asS"[-1, 'false', [6, 3, 3], 11, 49, 7, 'false']"
p93
(lp94
I13
asS"[-1, 'false', [2, 3, 7], 10, 18, 11, 'false']"
p95
(lp96
I18
asS"[-1, 'false', [5, 2, 5], 18, 16, 14, 'false']"
p97
(lp98
I25
asS"[-1, 'false', [4, 3, 5], 20, 23, 6, 'true']"
p99
(lp100
I6
asS"[-1, 'false', [4, 1, 7], 3, 23, 10, 'true']"
p101
(lp102
I30
aI28
asS"[-1, 'false', [0, 8, 4], 13, 38, 13, 'true']"
p103
(lp104
I26
asS"[-1, 'false', [4, 3, 5], 5, 9, 14, 'false']"
p105
(lp106
I30
asS"[-1, 'false', [4, 5, 3], 11, 50, 11, 'true']"
p107
(lp108
I12
asS"[-1, 'false', [3, 6, 3], 9, 19, 13, 'false']"
p109
(lp110
I31
asS"[-1, 'false', [5, 1, 6], 17, 28, 12, 'false']"
p111
(lp112
I15
asS"[-1, 'false', [5, 2, 5], 5, 23, 10, 'true']"
p113
(lp114
I19
aI33
asS"[-1, 'false', [4, 1, 7], 5, 23, 10, 'true']"
p115
(lp116
I31
aI34
aI32
aI33
aI38
aI29
asS"[-1, 'false', [3, 2, 7], 5, 23, 10, 'true']"
p117
(lp118
I28
asS"[-1, 'false', [4, 2, 6], 19, 2, 11, 'true']"
p119
(lp120
I26
asS"[-1, 'false', [2, 5, 5], 13, 46, 13, 'false']"
p121
(lp122
I30
asS"[-1, 'false', [8, 3, 1], 1, 38, 10, 'true']"
p123
(lp124
I26
asS"[-1, 'false', [0, 9, 3], 3, 47, 15, 'false']"
p125
(lp126
I21
asS"[-1, 'false', [2, 2, 8], 7, 8, 8, 'false']"
p127
(lp128
I22
asS"[-1, 'false', [5, 1, 6], 1, 14, 13, 'true']"
p129
(lp130
I27
asS"[-1, 'false', [3, 6, 3], 1, 38, 11, 'true']"
p131
(lp132
I31
asS"[-1, 'false', [3, 6, 3], 8, 24, 8, 'true']"
p133
(lp134
I17
asS"[-1, 'false', [5, 1, 6], 10, 5, 15, 'false']"
p135
(lp136
I23
asS"[-1, 'false', [1, 9, 2], 13, 48, 12, 'true']"
p137
(lp138
I27
asS"[-1, 'false', [2, 7, 3], 3, 13, 11, 'false']"
p139
(lp140
I20
asS"[-1, 'false', [3, 1, 8], 1, 19, 15, 'true']"
p141
(lp142
I24
asS"[-1, 'false', [1, 4, 7], 17, 4, 14, 'false']"
p143
(lp144
I26
asS"[-1, 'false', [2, 3, 7], 15, 34, 8, 'true']"
p145
(lp146
I36
asS"[-1, 'false', [3, 5, 4], 17, 28, 6, 'false']"
p147
(lp148
I14
asS"[-1, 'false', [2, 1, 9], 7, 4, 7, 'false']"
p149
(lp150
I33
asS"[-1, 'false', [0, 8, 4], 17, 19, 11, 'false']"
p151
(lp152
I29
asS"[-1, 'false', [4, 1, 7], 2, 3, 10, 'true']"
p153
(lp154
I25
asS"[-1, 'false', [8, 2, 2], 4, 18, 12, 'false']"
p155
(lp156
I24
asS"[-1, 'false', [7, 4, 1], 6, 29, 11, 'false']"
p157
(lp158
I15
asS"[-1, 'false', [4, 1, 7], 4, 16, 13, 'false']"
p159
(lp160
I23
asS"[-1, 'false', [10, 1, 1], 20, 31, 12, 'false']"
p161
(lp162
I18
asS"[-1, 'false', [8, 1, 3], 3, 46, 14, 'false']"
p163
(lp164
I25
asS"[-1, 'false', [4, 4, 4], 19, 38, 13, 'false']"
p165
(lp166
I19
asS"[-1, 'false', [1, 1, 10], 1, 19, 15, 'true']"
p167
(lp168
I39
aI27
asS"[-1, 'false', [10, 1, 1], 17, 40, 15, 'false']"
p169
(lp170
I15
asS"[-1, 'false', [7, 2, 3], 17, 49, 7, 'true']"
p171
(lp172
I15
asS"[-1, 'false', [9, 2, 1], 12, 47, 9, 'true']"
p173
(lp174
I16
asS"[-1, 'false', [9, 1, 2], 14, 3, 14, 'false']"
p175
(lp176
I29
asS"[-1, 'false', [2, 4, 6], 18, 33, 9, 'true']"
p177
(lp178
I20
asS"[-1, 'false', [3, 6, 3], 16, 18, 10, 'true']"
p179
(lp180
I21
asS"[-1, 'false', [2, 8, 2], 9, 30, 7, 'false']"
p181
(lp182
I16
asS"[-1, 'false', [1, 4, 7], 2, 7, 11, 'true']"
p183
(lp184
I30
asS"[-1, 'false', [3, 3, 6], 2, 22, 15, 'true']"
p185
(lp186
I43
asS"[-1, 'false', [6, 1, 5], 16, 49, 9, 'false']"
p187
(lp188
I21
asS"[-1, 'false', [3, 5, 4], 15, 6, 8, 'true']"
p189
(lp190
I30
asS"[-1, 'false', [9, 2, 1], 12, 12, 15, 'true']"
p191
(lp192
I29
asS"[-1, 'false', [3, 2, 7], 6, 23, 14, 'true']"
p193
(lp194
I20
asS"[-1, 'false', [10, 1, 1], 5, 32, 7, 'false']"
p195
(lp196
I29
asS"[-1, 'false', [6, 2, 4], 1, 31, 11, 'true']"
p197
(lp198
I40
asS"[-1, 'false', [8, 3, 1], 15, 18, 11, 'true']"
p199
(lp200
I20
asS"[-1, 'false', [5, 4, 3], 7, 30, 11, 'false']"
p201
(lp202
I17
asS"[-1, 'false', [2, 6, 4], 2, 20, 13, 'true']"
p203
(lp204
I31
asS"[-1, 'false', [0, 5, 7], 18, 33, 12, 'false']"
p205
(lp206
I17
asS"[-1, 'false', [8, 2, 2], 2, 7, 8, 'false']"
p207
(lp208
I27
asS"[-1, 'false', [2, 5, 5], 5, 40, 15, 'false']"
p209
(lp210
I20
asS"[-1, 'false', [8, 3, 1], 1, 30, 11, 'true']"
p211
(lp212
I20
asS"[-1, 'false', [10, 1, 1], 11, 13, 7, 'false']"
p213
(lp214
I30
asS"[-1, 'false', [6, 5, 1], 11, 39, 14, 'true']"
p215
(lp216
I15
asS"[-1, 'false', [4, 5, 3], 11, 21, 12, 'true']"
p217
(lp218
I30
asS"[-1, 'false', [0, 9, 3], 1, 6, 15, 'false']"
p219
(lp220
I29
asS"[-1, 'false', [3, 7, 2], 5, 26, 10, 'true']"
p221
(lp222
I22
asS"[-1, 'false', [7, 3, 2], 2, 15, 15, 'true']"
p223
(lp224
I35
asS"[-1, 'false', [1, 8, 3], 8, 42, 8, 'false']"
p225
(lp226
I24
asS"[-1, 'false', [6, 2, 4], 13, 24, 8, 'true']"
p227
(lp228
I38
aI25
asS"[-1, 'false', [5, 1, 6], 8, 14, 11, 'true']"
p229
(lp230
I32
asS"[-1, 'false', [2, 6, 4], 19, 41, 12, 'false']"
p231
(lp232
I17
asS"[-1, 'false', [4, 2, 6], 2, 18, 7, 'false']"
p233
(lp234
I46
asS"[-1, 'false', [1, 7, 4], 8, 2, 9, 'false']"
p235
(lp236
I27
asS"[-1, 'false', [3, 6, 3], 13, 12, 12, 'false']"
p237
(lp238
I24
asS"[-1, 'false', [7, 1, 4], 2, 2, 10, 'false']"
p239
(lp240
I22
asS"[-1, 'false', [10, 1, 1], 13, 3, 11, 'false']"
p241
(lp242
I34
asS"[-1, 'false', [4, 1, 7], 11, 4, 10, 'false']"
p243
(lp244
I22
asS"[-1, 'false', [4, 2, 6], 12, 8, 8, 'true']"
p245
(lp246
I36
asS"[-1, 'false', [3, 3, 6], 7, 50, 13, 'false']"
p247
(lp248
I24
asS"[-1, 'false', [3, 5, 4], 11, 9, 15, 'false']"
p249
(lp250
I23
asS"[-1, 'false', [6, 3, 3], 14, 44, 15, 'false']"
p251
(lp252
I17
asS"[-1, 'false', [3, 2, 7], 10, 37, 10, 'false']"
p253
(lp254
I31
asS"[-1, 'false', [2, 9, 1], 9, 28, 12, 'false']"
p255
(lp256
I21
asS"[-1, 'false', [6, 2, 4], 9, 38, 11, 'false']"
p257
(lp258
I18
asS"[-1, 'false', [3, 8, 1], 18, 30, 13, 'true']"
p259
(lp260
I18
asS"[-1, 'false', [0, 8, 4], 19, 5, 7, 'false']"
p261
(lp262
I19
asS"[-1, 'false', [1, 3, 8], 8, 38, 12, 'false']"
p263
(lp264
I22
asS"[-1, 'false', [6, 4, 2], 14, 44, 15, 'false']"
p265
(lp266
I15
asS"[-1, 'false', [0, 9, 3], 11, 16, 15, 'true']"
p267
(lp268
I25
asS"[-1, 'false', [7, 3, 2], 14, 44, 15, 'false']"
p269
(lp270
I32
aI25
asS"[-1, 'false', [4, 1, 7], 5, 30, 10, 'true']"
p271
(lp272
I29
asS"[-1, 'false', [7, 1, 4], 15, 19, 6, 'true']"
p273
(lp274
I28
asS"[-1, 'false', [2, 1, 9], 10, 17, 14, 'true']"
p275
(lp276
I26
asS"[-1, 'false', [1, 4, 7], 2, 32, 8, 'false']"
p277
(lp278
I39
asS"[-1, 'false', [6, 2, 4], 12, 19, 12, 'false']"
p279
(lp280
I25
asS"[-1, 'false', [6, 2, 4], 14, 32, 12, 'false']"
p281
(lp282
I29
asS"[-1, 'false', [8, 1, 3], 1, 42, 6, 'false']"
p283
(lp284
I44
asS"[-1, 'false', [6, 1, 5], 14, 20, 6, 'false']"
p285
(lp286
I15
asS"[-1, 'false', [3, 5, 4], 4, 20, 14, 'true']"
p287
(lp288
I25
asS"[-1, 'false', [5, 3, 4], 18, 29, 13, 'true']"
p289
(lp290
I18
asS"[-1, 'false', [6, 1, 5], 10, 50, 6, 'false']"
p291
(lp292
I40
asS"[-1, 'false', [6, 4, 2], 1, 17, 11, 'true']"
p293
(lp294
I24
aI21
asS"[-1, 'false', [2, 7, 3], 14, 38, 13, 'false']"
p295
(lp296
I23
asS"[-1, 'false', [9, 1, 2], 10, 14, 8, 'false']"
p297
(lp298
I22
asS"[-1, 'false', [6, 4, 2], 13, 6, 12, 'false']"
p299
(lp300
I26
asS"[-1, 'false', [4, 6, 2], 9, 47, 12, 'true']"
p301
(lp302
I21
asS"[-1, 'false', [4, 7, 1], 18, 19, 10, 'false']"
p303
(lp304
I13
asS"[-1, 'false', [9, 1, 2], 5, 23, 7, 'false']"
p305
(lp306
I19
asS"[-1, 'false', [2, 2, 8], 15, 10, 13, 'true']"
p307
(lp308
I33
asS"[-1, 'false', [7, 1, 4], 9, 38, 13, 'false']"
p309
(lp310
I25
asS"[-1, 'false', [5, 2, 5], 13, 22, 10, 'true']"
p311
(lp312
I22
asS"[-1, 'false', [0, 7, 5], 9, 8, 8, 'true']"
p313
(lp314
I28
asS"[-1, 'false', [8, 1, 3], 16, 28, 12, 'true']"
p315
(lp316
I29
asS"[-1, 'false', [6, 4, 2], 18, 23, 6, 'true']"
p317
(lp318
I18
asS"[-1, 'false', [6, 3, 3], 6, 24, 11, 'false']"
p319
(lp320
I30
asS"[-1, 'false', [1, 1, 10], 11, 1, 11, 'false']"
p321
(lp322
I29
asS"[-1, 'false', [10, 1, 1], 11, 43, 9, 'false']"
p323
(lp324
I30
asS"[-1, 'false', [7, 4, 1], 13, 22, 14, 'true']"
p325
(lp326
I17
asS"[-1, 'false', [2, 2, 8], 14, 43, 15, 'false']"
p327
(lp328
I17
asS"[-1, 'false', [0, 11, 1], 9, 6, 11, 'true']"
p329
(lp330
I29
asS"[-1, 'false', [0, 3, 9], 1, 3, 11, 'false']"
p331
(lp332
I32
asS"[-1, 'false', [7, 3, 2], 5, 40, 9, 'true']"
p333
(lp334
I21
asS"[-1, 'false', [5, 3, 4], 7, 30, 9, 'false']"
p335
(lp336
I34
asS"[-1, 'false', [5, 5, 2], 15, 10, 10, 'true']"
p337
(lp338
I21
asS"[-1, 'false', [1, 3, 8], 8, 21, 12, 'false']"
p339
(lp340
I24
asS"[-1, 'false', [8, 3, 1], 10, 23, 11, 'false']"
p341
(lp342
I17
asS"[-1, 'false', [0, 10, 2], 8, 49, 12, 'true']"
p343
(lp344
I25
asS"[-1, 'false', [0, 2, 10], 4, 31, 15, 'false']"
p345
(lp346
I28
asS"[-1, 'false', [3, 4, 5], 17, 49, 10, 'false']"
p347
(lp348
I11
asS"[-1, 'false', [4, 3, 5], 4, 28, 13, 'true']"
p349
(lp350
I36
asS"[-1, 'false', [0, 8, 4], 18, 30, 6, 'true']"
p351
(lp352
I11
asS"[-1, 'false', [0, 11, 1], 13, 14, 7, 'false']"
p353
(lp354
I11
asS"[-1, 'false', [1, 9, 2], 1, 28, 12, 'false']"
p355
(lp356
I18
asS"[-1, 'false', [0, 5, 7], 7, 23, 6, 'true']"
p357
(lp358
I29
asS"[-1, 'false', [1, 2, 9], 20, 41, 14, 'true']"
p359
(lp360
I9
asS"[-1, 'false', [2, 5, 5], 11, 29, 11, 'false']"
p361
(lp362
I29
asS"[-1, 'false', [0, 6, 6], 14, 21, 9, 'true']"
p363
(lp364
I26
asS"[-1, 'false', [4, 3, 5], 20, 17, 6, 'true']"
p365
(lp366
I35
asS"[-1, 'false', [3, 3, 6], 12, 49, 13, 'false']"
p367
(lp368
I22
asS"[-1, 'false', [7, 3, 2], 10, 10, 10, 'false']"
p369
(lp370
I24
asS"[-1, 'false', [6, 2, 4], 17, 40, 8, 'false']"
p371
(lp372
I15
asS"[-1, 'false', [8, 2, 2], 15, 11, 7, 'false']"
p373
(lp374
I26
asS"[-1, 'false', [5, 1, 6], 19, 50, 13, 'false']"
p375
(lp376
I34
asS"[-1, 'false', [9, 2, 1], 7, 10, 8, 'false']"
p377
(lp378
I23
asS"[-1, 'false', [6, 1, 5], 18, 38, 12, 'false']"
p379
(lp380
I17
asS"[-1, 'false', [2, 5, 5], 11, 29, 10, 'false']"
p381
(lp382
I16
asS"[-1, 'false', [3, 6, 3], 12, 8, 8, 'true']"
p383
(lp384
I32
aI18
asS"[-1, 'false', [8, 3, 1], 1, 31, 11, 'true']"
p385
(lp386
I39
aI13
asS"[-1, 'false', [3, 1, 8], 13, 18, 6, 'false']"
p387
(lp388
I33
asS"[-1, 'false', [1, 8, 3], 16, 26, 10, 'true']"
p389
(lp390
I15
asS"[-1, 'false', [10, 1, 1], 2, 34, 6, 'false']"
p391
(lp392
I25
asS"[-1, 'false', [9, 2, 1], 4, 5, 8, 'true']"
p393
(lp394
I26
asS"[-1, 'false', [3, 1, 8], 4, 9, 7, 'false']"
p395
(lp396
I23
asS"[-1, 'false', [3, 7, 2], 17, 28, 8, 'false']"
p397
(lp398
I9
asS"[-1, 'false', [4, 1, 7], 5, 30, 8, 'true']"
p399
(lp400
I23
asS"[-1, 'false', [8, 3, 1], 1, 11, 11, 'true']"
p401
(lp402
I17
asS"[-1, 'false', [2, 4, 6], 9, 11, 15, 'true']"
p403
(lp404
I24
asS"[-1, 'false', [4, 7, 1], 1, 42, 10, 'false']"
p405
(lp406
I26
asS"[-1, 'false', [7, 4, 1], 3, 25, 6, 'true']"
p407
(lp408
I15
asS"[-1, 'false', [6, 3, 3], 3, 43, 6, 'false']"
p409
(lp410
I19
asS"[-1, 'false', [3, 2, 7], 16, 37, 15, 'true']"
p411
(lp412
I33
asS"[-1, 'false', [1, 9, 2], 14, 47, 7, 'true']"
p413
(lp414
I10
asS"[-1, 'false', [1, 1, 10], 13, 27, 13, 'true']"
p415
(lp416
I28
asS"[-1, 'false', [9, 1, 2], 13, 2, 10, 'true']"
p417
(lp418
I23
asS"[-1, 'false', [4, 2, 6], 7, 2, 9, 'false']"
p419
(lp420
I39
asS"[-1, 'false', [2, 4, 6], 10, 28, 11, 'false']"
p421
(lp422
I27
asS"[-1, 'false', [7, 3, 2], 5, 11, 12, 'false']"
p423
(lp424
I33
asS"[-1, 'false', [6, 4, 2], 13, 24, 8, 'true']"
p425
(lp426
I20
asS"[-1, 'false', [2, 1, 9], 2, 38, 11, 'true']"
p427
(lp428
I46
asS"[-1, 'false', [1, 8, 3], 2, 9, 12, 'false']"
p429
(lp430
I30
asS"[-1, 'false', [4, 7, 1], 1, 9, 8, 'false']"
p431
(lp432
I34
asS"[-1, 'false', [5, 2, 5], 14, 9, 12, 'true']"
p433
(lp434
I29
asS"[-1, 'false', [3, 6, 3], 17, 28, 6, 'false']"
p435
(lp436
I13
asS"[-1, 'false', [1, 4, 7], 17, 30, 13, 'false']"
p437
(lp438
I25
asS"[-1, 'false', [9, 2, 1], 9, 35, 10, 'false']"
p439
(lp440
I24
asS"[-1, 'false', [9, 2, 1], 16, 13, 14, 'false']"
p441
(lp442
I24
asS"[-1, 'false', [9, 2, 1], 18, 23, 8, 'false']"
p443
(lp444
I19
asS"[-1, 'false', [2, 7, 3], 8, 8, 11, 'false']"
p445
(lp446
I29
asS"[-1, 'false', [2, 1, 9], 11, 14, 7, 'true']"
p447
(lp448
I31
asS"[-1, 'false', [4, 1, 7], 20, 17, 14, 'false']"
p449
(lp450
I22
asS"[-1, 'false', [1, 1, 10], 1, 6, 15, 'false']"
p451
(lp452
I32
asS"[-1, 'false', [3, 7, 2], 1, 10, 11, 'true']"
p453
(lp454
I24
asS"[-1, 'false', [2, 8, 2], 8, 12, 13, 'true']"
p455
(lp456
I25
aI22
asS"[-1, 'false', [7, 4, 1], 1, 38, 11, 'true']"
p457
(lp458
I37
asS"[-1, 'false', [0, 5, 7], 10, 24, 9, 'true']"
p459
(lp460
I29
asS"[-1, 'false', [7, 4, 1], 8, 49, 12, 'true']"
p461
(lp462
I4
asS"[-1, 'false', [6, 2, 4], 8, 21, 7, 'true']"
p463
(lp464
I21
asS"[-1, 'false', [8, 1, 3], 18, 20, 14, 'true']"
p465
(lp466
I20
asS"[-1, 'false', [4, 2, 6], 9, 1, 11, 'false']"
p467
(lp468
I22
asS"[-1, 'false', [8, 3, 1], 14, 14, 15, 'true']"
p469
(lp470
I28
asS"[-1, 'false', [2, 7, 3], 3, 13, 12, 'false']"
p471
(lp472
I30
aI42
aI37
aI26
aI29
asS"[-1, 'false', [8, 1, 3], 14, 20, 6, 'false']"
p473
(lp474
I35
asS"[-1, 'false', [0, 8, 4], 5, 28, 9, 'false']"
p475
(lp476
I41
asS"[-1, 'false', [12, 0, 0]]"
p477
(lp478
I33
aI16
aI22
aI40
aI16
aI36
aI26
aI30
aI20
aI24
aI14
aI3838039016
aI25
aI29
aI22
aI22
aI24
aI24
aI21
aI27
asS"[-1, 'false', [6, 2, 4], 11, 20, 13, 'false']"
p479
(lp480
I34
asS"[-1, 'false', [6, 3, 3], 7, 39, 11, 'false']"
p481
(lp482
I33
asS"[-1, 'false', [8, 2, 2], 14, 38, 15, 'true']"
p483
(lp484
I28
asS"[-1, 'false', [8, 3, 1], 18, 20, 13, 'true']"
p485
(lp486
I20
asS"[-1, 'false', [1, 1, 10], 6, 39, 7, 'true']"
p487
(lp488
I27
asS"[-1, 'false', [6, 3, 3], 13, 24, 8, 'true']"
p489
(lp490
I19
asS"[-1, 'false', [8, 2, 2], 19, 47, 14, 'false']"
p491
(lp492
I17
asS"[-1, 'false', [8, 2, 2], 20, 11, 14, 'true']"
p493
(lp494
I19
asS"[-1, 'false', [3, 5, 4], 6, 18, 11, 'true']"
p495
(lp496
I28
asS"[-1, 'false', [4, 4, 4], 5, 14, 13, 'false']"
p497
(lp498
I36
asS"[-1, 'false', [2, 2, 8], 8, 38, 11, 'true']"
p499
(lp500
I4701195010
aI48
asS"[-1, 'false', [8, 1, 3], 14, 26, 9, 'false']"
p501
(lp502
I29
asS"[-1, 'false', [9, 2, 1], 2, 30, 13, 'true']"
p503
(lp504
I12446011
asS"[-1, 'false', [3, 4, 5], 4, 9, 11, 'true']"
p505
(lp506
I32
asS"[-1, 'false', [6, 4, 2], 16, 27, 8, 'true']"
p507
(lp508
I7
asS"[-1, 'false', [2, 5, 5], 12, 29, 10, 'false']"
p509
(lp510
I27
asS"[-1, 'false', [2, 5, 5], 4, 5, 6, 'false']"
p511
(lp512
I29
asS"[-1, 'false', [6, 2, 4], 7, 32, 12, 'false']"
p513
(lp514
I28
asS"[-1, 'false', [5, 4, 3], 14, 19, 12, 'false']"
p515
(lp516
I31
asS"[-1, 'false', [3, 1, 8], 13, 40, 10, 'true']"
p517
(lp518
I21
asS"[-1, 'false', [0, 11, 1], 11, 27, 9, 'false']"
p519
(lp520
I15
asS"[-1, 'false', [1, 9, 2], 20, 34, 10, 'true']"
p521
(lp522
I11
asS"[-1, 'false', [8, 2, 2], 18, 34, 8, 'true']"
p523
(lp524
I21
asS"[-1, 'false', [6, 3, 3], 9, 2, 15, 'true']"
p525
(lp526
I18
asS"[-1, 'false', [10, 1, 1], 8, 41, 12, 'true']"
p527
(lp528
I21
asS"[-1, 'false', [7, 4, 1], 6, 32, 8, 'false']"
p529
(lp530
I22
asS"[-1, 'false', [10, 1, 1], 16, 50, 12, 'false']"
p531
(lp532
I21
asS"[-1, 'false', [10, 1, 1], 18, 6, 15, 'false']"
p533
(lp534
I20
asS"[-1, 'false', [5, 5, 2], 19, 22, 14, 'false']"
p535
(lp536
I9
asS"[-1, 'false', [4, 6, 2], 15, 18, 11, 'true']"
p537
(lp538
I15
asS"[-1, 'false', [3, 6, 3], 17, 5, 10, 'false']"
p539
(lp540
I32
asS"[-1, 'false', [5, 1, 6], 1, 1, 11, 'true']"
p541
(lp542
I29
asS"[-1, 'false', [8, 2, 2], 6, 7, 13, 'false']"
p543
(lp544
I30
asS"[-1, 'false', [1, 2, 9], 12, 28, 9, 'true']"
p545
(lp546
I19
asS"[-1, 'false', [5, 4, 3], 15, 2, 8, 'false']"
p547
(lp548
I27
asS"[-1, 'false', [8, 2, 2], 7, 44, 15, 'true']"
p549
(lp550
I16448004
asS"[-1, 'false', [8, 2, 2], 18, 46, 13, 'true']"
p551
(lp552
I12
asS"[-1, 'false', [5, 6, 1], 13, 28, 13, 'true']"
p553
(lp554
I15
asS"[-1, 'false', [9, 1, 2], 19, 43, 7, 'false']"
p555
(lp556
I12
asS"[-1, 'false', [0, 6, 6], 11, 25, 6, 'false']"
p557
(lp558
I23
asS"[-1, 'false', [4, 3, 5], 6, 25, 13, 'true']"
p559
(lp560
I24
asS"[-1, 'false', [2, 6, 4], 2, 24, 8, 'true']"
p561
(lp562
I32
asS"[-1, 'false', [7, 3, 2], 4, 15, 15, 'true']"
p563
(lp564
I26
asS"[-1, 'false', [5, 2, 5], 5, 7, 11, 'true']"
p565
(lp566
I30
asS"[-1, 'false', [1, 5, 6], 14, 26, 15, 'false']"
p567
(lp568
I32
asS"[-1, 'false', [7, 1, 4], 3, 38, 15, 'true']"
p569
(lp570
I29
asS"[-1, 'false', [8, 3, 1], 7, 48, 7, 'false']"
p571
(lp572
I15
asS"[-1, 'false', [0, 10, 2], 14, 1, 6, 'true']"
p573
(lp574
I31
asS"[-1, 'false', [4, 3, 5], 20, 27, 6, 'true']"
p575
(lp576
I12
asS"[-1, 'false', [10, 1, 1], 1, 34, 7, 'true']"
p577
(lp578
I17
asS"[-1, 'false', [5, 2, 5], 1, 43, 13, 'false']"
p579
(lp580
I38
asS"[-1, 'false', [5, 4, 3], 3, 13, 13, 'false']"
p581
(lp582
I38
aI28
aI27
aI29
asS"[-1, 'false', [3, 3, 6], 14, 31, 7, 'false']"
p583
(lp584
I12448009
asS"[-1, 'false', [3, 1, 8], 13, 46, 7, 'true']"
p585
(lp586
I27
asS"[-1, 'false', [6, 2, 4], 1, 38, 11, 'true']"
p587
(lp588
I35
asS"[-1, 'false', [3, 2, 7], 7, 32, 8, 'true']"
p589
(lp590
I18
asS"[-1, 'false', [8, 1, 3], 10, 45, 14, 'false']"
p591
(lp592
I38
asS"[-1, 'false', [8, 1, 3], 2, 5, 12, 'false']"
p593
(lp594
I20
asS"[-1, 'false', [3, 2, 7], 1, 14, 10, 'false']"
p595
(lp596
I39
asS"[-1, 'false', [5, 1, 6], 14, 10, 6, 'false']"
p597
(lp598
I24
asS"[-1, 'false', [3, 8, 1], 17, 4, 15, 'true']"
p599
(lp600
I25
asS"[-1, 'false', [3, 6, 3], 8, 16, 12, 'false']"
p601
(lp602
I20
asS"[-1, 'false', [10, 1, 1], 18, 20, 9, 'false']"
p603
(lp604
I19
asS"[-1, 'false', [2, 5, 5], 14, 20, 6, 'false']"
p605
(lp606
I20
asS"[-1, 'false', [5, 1, 6], 9, 12, 8, 'false']"
p607
(lp608
I23
asS"[-1, 'false', [1, 4, 7], 16, 34, 15, 'false']"
p609
(lp610
I18
asS"[-1, 'false', [2, 4, 6], 19, 50, 9, 'false']"
p611
(lp612
I12
asS"[-1, 'false', [1, 1, 10], 20, 21, 10, 'true']"
p613
(lp614
I11
asS"[-1, 'false', [7, 1, 4], 7, 17, 12, 'true']"
p615
(lp616
I29
asS"[-1, 'false', [4, 3, 5], 7, 48, 11, 'false']"
p617
(lp618
I38
asS"[-1, 'false', [10, 1, 1], 14, 13, 7, 'false']"
p619
(lp620
I22
aI23
asS"[-1, 'false', [4, 6, 2], 18, 17, 13, 'false']"
p621
(lp622
I18
asS"[-1, 'false', [6, 4, 2], 14, 8, 9, 'false']"
p623
(lp624
I31
asS"[-1, 'false', [0, 1, 11], 14, 38, 9, 'false']"
p625
(lp626
I30
asS"[-1, 'false', [4, 6, 2], 20, 44, 6, 'false']"
p627
(lp628
I13
asS"[-1, 'false', [4, 3, 5], 13, 44, 12, 'false']"
p629
(lp630
I29
asS"[-1, 'false', [0, 10, 2], 17, 50, 8, 'true']"
p631
(lp632
I12
asS"[-1, 'false', [7, 2, 3], 7, 29, 12, 'false']"
p633
(lp634
I32
asS"[-1, 'false', [7, 4, 1], 13, 17, 14, 'false']"
p635
(lp636
I20
asS"[-1, 'false', [8, 1, 3], 9, 22, 9, 'true']"
p637
(lp638
I19
asS"[-1, 'false', [0, 9, 3], 19, 3, 9, 'false']"
p639
(lp640
I19
asS"[-1, 'false', [8, 3, 1], 1, 38, 11, 'true']"
p641
(lp642
I45
asS"[-1, 'false', [5, 3, 4], 9, 1, 13, 'false']"
p643
(lp644
I25
asS"[-1, 'false', [8, 3, 1], 7, 22, 12, 'false']"
p645
(lp646
I27
asS"[-1, 'false', [6, 2, 4], 13, 27, 8, 'true']"
p647
(lp648
I19
asS"[-1, 'false', [9, 1, 2], 13, 24, 9, 'false']"
p649
(lp650
I22
asS"[-1, 'false', [7, 2, 3], 14, 32, 11, 'true']"
p651
(lp652
I15
asS"[-1, 'false', [3, 3, 6], 7, 6, 10, 'false']"
p653
(lp654
I29
asS"[-1, 'false', [5, 3, 4], 18, 31, 7, 'false']"
p655
(lp656
I14
asS"[-1, 'false', [5, 4, 3], 17, 50, 7, 'true']"
p657
(lp658
I7
asS"[-1, 'false', [5, 5, 2], 4, 5, 10, 'false']"
p659
(lp660
I24
asS"[-1, 'false', [0, 4, 8], 12, 14, 11, 'true']"
p661
(lp662
I20
asS"[-1, 'false', [3, 1, 8], 5, 19, 6, 'false']"
p663
(lp664
I34
asS"[-1, 'false', [4, 5, 3], 13, 27, 8, 'true']"
p665
(lp666
I23
asS"[-1, 'false', [2, 3, 7], 11, 13, 11, 'false']"
p667
(lp668
I28
asS"[-1, 'false', [0, 7, 5], 6, 7, 9, 'false']"
p669
(lp670
I29
asS"[-1, 'false', [3, 2, 7], 5, 17, 7, 'false']"
p671
(lp672
I33
asS"[-1, 'false', [0, 8, 4], 16, 37, 13, 'false']"
p673
(lp674
I11
asS"[-1, 'false', [0, 9, 3], 20, 3, 9, 'false']"
p675
(lp676
I17
asS"[-1, 'false', [2, 9, 1], 8, 12, 13, 'true']"
p677
(lp678
I4500890008
asS"[-1, 'false', [2, 3, 7], 6, 1, 7, 'true']"
p679
(lp680
I31
asS"[-1, 'false', [8, 2, 2], 1, 25, 14, 'true']"
p681
(lp682
I40
asS"[-1, 'false', [9, 2, 1], 9, 7, 13, 'false']"
p683
(lp684
I34
asS"[-1, 'false', [2, 4, 6], 11, 5, 14, 'true']"
p685
(lp686
I27
asS"[-1, 'false', [2, 5, 5], 9, 29, 10, 'false']"
p687
(lp688
I30
asS"[-1, 'false', [5, 1, 6], 9, 38, 11, 'false']"
p689
(lp690
I37
asS"[-1, 'false', [1, 3, 8], 12, 37, 7, 'true']"
p691
(lp692
I29
asS"[-1, 'false', [3, 3, 6], 12, 8, 8, 'true']"
p693
(lp694
I36
asS"[-1, 'false', [8, 3, 1], 12, 32, 10, 'false']"
p695
(lp696
I17
asS"[-1, 'false', [3, 4, 5], 13, 15, 15, 'true']"
p697
(lp698
I23
asS"[-1, 'false', [9, 1, 2], 11, 35, 7, 'false']"
p699
(lp700
I27
asS"[-1, 'false', [3, 6, 3], 17, 26, 8, 'false']"
p701
(lp702
I14
asS"[-1, 'false', [1, 7, 4], 15, 15, 10, 'false']"
p703
(lp704
I13
asS"[-1, 'false', [7, 1, 4], 7, 16, 13, 'false']"
p705
(lp706
I22
asS"[-1, 'false', [5, 1, 6], 3, 23, 10, 'true']"
p707
(lp708
I37
asS"[-1, 'false', [2, 7, 3], 18, 13, 15, 'true']"
p709
(lp710
I20
asS"[-1, 'false', [6, 1, 5], 12, 5, 10, 'true']"
p711
(lp712
I33
asS"[-1, 'false', [7, 1, 4], 7, 44, 10, 'false']"
p713
(lp714
I46
asS"[-1, 'false', [4, 3, 5], 12, 28, 6, 'true']"
p715
(lp716
I21
asS"[-1, 'false', [3, 4, 5], 12, 5, 6, 'false']"
p717
(lp718
I14
asS"[-1, 'false', [0, 5, 7], 10, 18, 10, 'false']"
p719
(lp720
I33
asS"[-1, 'false', [9, 1, 2], 1, 5, 11, 'false']"
p721
(lp722
I21
aI30
aI29
aI19
aI28
asS"[-1, 'false', [6, 5, 1], 4, 8, 10, 'false']"
p723
(lp724
I23
asS"[-1, 'false', [7, 2, 3], 13, 27, 10, 'false']"
p725
(lp726
I14
asS"[-1, 'false', [5, 5, 2], 18, 43, 10, 'false']"
p727
(lp728
I12
asS"[-1, 'false', [3, 4, 5], 8, 48, 12, 'false']"
p729
(lp730
I20
asS"[-1, 'false', [4, 3, 5], 20, 17, 8, 'true']"
p731
(lp732
I18
asS"[-1, 'false', [9, 1, 2], 8, 18, 15, 'true']"
p733
(lp734
I19
asS"[-1, 'false', [7, 2, 3], 14, 46, 12, 'true']"
p735
(lp736
I20
asS"[-1, 'false', [5, 4, 3], 3, 12, 9, 'true']"
p737
(lp738
I31
asS"[-1, 'false', [5, 5, 2], 4, 45, 13, 'true']"
p739
(lp740
I10
asS"[-1, 'false', [10, 1, 1], 9, 30, 12, 'true']"
p741
(lp742
I18
asS"[-1, 'false', [6, 2, 4], 13, 31, 8, 'true']"
p743
(lp744
I25
asS"[-1, 'false', [0, 5, 7], 6, 26, 9, 'true']"
p745
(lp746
I36
asS"[-1, 'false', [6, 3, 3], 9, 17, 7, 'true']"
p747
(lp748
I34
asS"[-1, 'false', [2, 6, 4], 4, 47, 12, 'true']"
p749
(lp750
I41
asS"[-1, 'false', [7, 3, 2], 10, 37, 6, 'false']"
p751
(lp752
I14
asS"[-1, 'false', [9, 1, 2], 5, 36, 15, 'true']"
p753
(lp754
I34
asS"[-1, 'false', [8, 3, 1], 4, 31, 14, 'false']"
p755
(lp756
I18
asS"[-1, 'false', [6, 5, 1], 16, 4, 6, 'true']"
p757
(lp758
I23
asS"[-1, 'false', [1, 1, 10], 1, 34, 13, 'true']"
p759
(lp760
I36
asS"[-1, 'false', [4, 2, 6], 8, 22, 15, 'false']"
p761
(lp762
I35
asS"[-1, 'false', [5, 2, 5], 17, 34, 11, 'true']"
p763
(lp764
I28
asS"[-1, 'false', [2, 6, 4], 5, 18, 6, 'false']"
p765
(lp766
I41
asS"[-1, 'false', [7, 1, 4], 3, 20, 9, 'false']"
p767
(lp768
I26
asS"[-1, 'false', [4, 5, 3], 6, 6, 11, 'false']"
p769
(lp770
I19
asS"[-1, 'false', [4, 2, 6], 2, 28, 8, 'false']"
p771
(lp772
I37
asS"[-1, 'false', [9, 2, 1], 7, 45, 9, 'false']"
p773
(lp774
I17
asS"[-1, 'false', [10, 1, 1], 13, 24, 6, 'false']"
p775
(lp776
I25
asS"[-1, 'false', [8, 3, 1], 11, 46, 11, 'true']"
p777
(lp778
I23
asS"[-1, 'false', [6, 3, 3], 15, 21, 8, 'true']"
p779
(lp780
I26
asS"[-1, 'false', [2, 5, 5], 12, 11, 12, 'false']"
p781
(lp782
I23
asS"[-1, 'false', [6, 2, 4], 9, 38, 13, 'false']"
p783
(lp784
I32
aI16
asS"[-1, 'false', [6, 2, 4], 14, 19, 12, 'false']"
p785
(lp786
I30
asS"[-1, 'false', [5, 1, 6], 18, 27, 8, 'false']"
p787
(lp788
I20
asS"[-1, 'false', [4, 2, 6], 16, 33, 12, 'false']"
p789
(lp790
I27
asS"[-1, 'false', [0, 8, 4], 13, 24, 9, 'false']"
p791
(lp792
I27
asS"[-1, 'false', [1, 10, 1], 16, 8, 7, 'false']"
p793
(lp794
I24
asS"[-1, 'false', [3, 2, 7], 10, 45, 13, 'true']"
p795
(lp796
I29
asS"[-1, 'false', [4, 6, 2], 1, 14, 11, 'true']"
p797
(lp798
I16
asS"[-1, 'false', [6, 5, 1], 13, 37, 14, 'false']"
p799
(lp800
I11
asS"[-1, 'false', [10, 1, 1], 20, 30, 10, 'false']"
p801
(lp802
I22
asS"[-1, 'false', [9, 1, 2], 7, 35, 7, 'false']"
p803
(lp804
I25
asS"[-1, 'false', [8, 2, 2], 16, 27, 8, 'true']"
p805
(lp806
I24
asS"[-1, 'false', [2, 4, 6], 8, 27, 15, 'true']"
p807
(lp808
I28
asS"[-1, 'false', [1, 10, 1], 4, 37, 8, 'true']"
p809
(lp810
I26
asS"[-1, 'false', [4, 4, 4], 7, 36, 11, 'false']"
p811
(lp812
I26
asS"[-1, 'false', [2, 1, 9], 17, 37, 14, 'true']"
p813
(lp814
I19
asS"[-1, 'false', [6, 2, 4], 7, 48, 12, 'true']"
p815
(lp816
I22
asS"[-1, 'false', [3, 1, 8], 3, 12, 11, 'false']"
p817
(lp818
I33
asS"[-1, 'false', [7, 4, 1], 13, 2, 12, 'false']"
p819
(lp820
I30
asS"[-1, 'false', [7, 4, 1], 16, 20, 15, 'false']"
p821
(lp822
I17
asS"[-1, 'false', [2, 3, 7], 15, 19, 8, 'true']"
p823
(lp824
I29
asS"[-1, 'false', [9, 2, 1], 10, 27, 10, 'false']"
p825
(lp826
I15
asS"[-1, 'false', [1, 2, 9], 15, 48, 13, 'true']"
p827
(lp828
I14647011
asS"[-1, 'false', [8, 1, 3], 14, 34, 10, 'true']"
p829
(lp830
I22
asS"[-1, 'false', [5, 6, 1], 3, 2, 8, 'false']"
p831
(lp832
I24
asS"[-1, 'false', [1, 6, 5], 4, 30, 7, 'true']"
p833
(lp834
I37
asS"[-1, 'false', [8, 1, 3], 12, 5, 14, 'true']"
p835
(lp836
I24
asS"[-1, 'false', [4, 3, 5], 19, 6, 7, 'true']"
p837
(lp838
I22
asS"[-1, 'false', [7, 1, 4], 18, 38, 12, 'false']"
p839
(lp840
I24
asS"[-1, 'false', [2, 8, 2], 10, 24, 13, 'false']"
p841
(lp842
I16
asS"[-1, 'false', [3, 7, 2], 1, 15, 13, 'false']"
p843
(lp844
I37
asS"[-1, 'false', [2, 7, 3], 2, 36, 13, 'false']"
p845
(lp846
I28
asS"[-1, 'false', [3, 4, 5], 9, 14, 9, 'true']"
p847
(lp848
I38
asS"[-1, 'false', [1, 8, 3], 14, 10, 9, 'true']"
p849
(lp850
I25
asS"[-1, 'false', [9, 2, 1], 6, 34, 10, 'false']"
p851
(lp852
I20
asS"[-1, 'false', [2, 8, 2], 11, 16, 14, 'false']"
p853
(lp854
I23
asS"[-1, 'false', [7, 3, 2], 15, 42, 10, 'true']"
p855
(lp856
I27
asS"[-1, 'false', [5, 6, 1], 5, 36, 10, 'false']"
p857
(lp858
I28
asS"[-1, 'false', [8, 3, 1], 1, 38, 19, 'true']"
p859
(lp860
I17
asS"[-1, 'false', [2, 9, 1], 16, 9, 13, 'true']"
p861
(lp862
I11
asS"[-1, 'false', [3, 3, 6], 14, 13, 11, 'true']"
p863
(lp864
I26
asS"[-1, 'false', [2, 1, 9], 1, 36, 12, 'true']"
p865
(lp866
I45
asS"[-1, 'false', [7, 3, 2], 19, 2, 9, 'false']"
p867
(lp868
I27
asS"[-1, 'false', [4, 2, 6], 7, 18, 10, 'true']"
p869
(lp870
I31
asS"[-1, 'false', [9, 2, 1], 5, 25, 7, 'false']"
p871
(lp872
I29
asS"[-1, 'false', [9, 1, 2], 3, 47, 8, 'true']"
p873
(lp874
I44
asS"[-1, 'false', [1, 1, 10], 1, 25, 14, 'false']"
p875
(lp876
I31
asS"[-1, 'false', [7, 1, 4], 1, 28, 10, 'false']"
p877
(lp878
I44
asS"[-1, 'false', [5, 4, 3], 4, 13, 13, 'false']"
p879
(lp880
I46
asS"[-1, 'false', [6, 1, 5], 15, 28, 13, 'true']"
p881
(lp882
I25
asS"[-1, 'false', [5, 3, 4], 3, 39, 14, 'true']"
p883
(lp884
I22
asS"[-1, 'false', [1, 4, 7], 11, 38, 10, 'true']"
p885
(lp886
I27
asS"[-1, 'false', [7, 3, 2], 1, 38, 11, 'true']"
p887
(lp888
I33
aI33
asS"[-1, 'false', [0, 11, 1], 4, 19, 6, 'false']"
p889
(lp890
I37
asS"[-1, 'false', [5, 5, 2], 7, 26, 7, 'true']"
p891
(lp892
I25
asS"[-1, 'false', [7, 3, 2], 3, 24, 9, 'true']"
p893
(lp894
I31
asS"[-1, 'false', [10, 1, 1], 17, 26, 7, 'false']"
p895
(lp896
I15
asS"[-1, 'false', [7, 3, 2], 5, 19, 9, 'false']"
p897
(lp898
I30
asS"[-1, 'false', [5, 6, 1], 4, 4, 11, 'true']"
p899
(lp900
I19
asS"[-1, 'false', [6, 2, 4], 18, 24, 8, 'true']"
p901
(lp902
I25
asS"[-1, 'false', [2, 2, 8], 4, 38, 11, 'true']"
p903
(lp904
I38
asS"[-1, 'false', [2, 7, 3], 20, 17, 8, 'false']"
p905
(lp906
I18
asS"[-1, 'false', [2, 3, 7], 19, 50, 14, 'false']"
p907
(lp908
I4
asS"[-1, 'false', [9, 2, 1], 19, 21, 12, 'true']"
p909
(lp910
I16
asS"[-1, 'false', [6, 1, 5], 20, 8, 7, 'false']"
p911
(lp912
I16
asS"[-1, 'false', [0, 4, 8], 5, 46, 9, 'false']"
p913
(lp914
I36
asS"[-1, 'false', [5, 6, 1], 7, 31, 8, 'true']"
p915
(lp916
I26
asS"[-1, 'false', [0, 7, 5], 12, 11, 15, 'false']"
p917
(lp918
I19
asS"[-1, 'false', [7, 2, 3], 19, 10, 8, 'true']"
p919
(lp920
I21
asS"[-1, 'false', [0, 3, 9], 2, 3, 11, 'false']"
p921
(lp922
I29
asS"[-1, 'false', [0, 1, 11], 15, 15, 8, 'true']"
p923
(lp924
I35
asS"[-1, 'false', [8, 2, 2], 6, 9, 14, 'true']"
p925
(lp926
I26
asS"[-1, 'false', [2, 3, 7], 20, 49, 7, 'true']"
p927
(lp928
I11
asS"[-1, 'false', [3, 8, 1], 17, 41, 7, 'false']"
p929
(lp930
I12
asS"[-1, 'false', [4, 3, 5], 4, 25, 13, 'true']"
p931
(lp932
I35
asS"[-1, 'false', [0, 9, 3], 12, 11, 13, 'false']"
p933
(lp934
I17
asS"[-1, 'false', [2, 3, 7], 13, 13, 7, 'true']"
p935
(lp936
I19
asS"[-1, 'false', [4, 5, 3], 9, 8, 8, 'false']"
p937
(lp938
I29
asS"[-1, 'false', [0, 4, 8], 10, 1, 10, 'false']"
p939
(lp940
I28
asS"[-1, 'false', [8, 2, 2], 2, 44, 15, 'true']"
p941
(lp942
I24
asS"[-1, 'false', [0, 5, 7], 18, 50, 7, 'true']"
p943
(lp944
I7
asS"[-1, 'false', [7, 1, 4], 13, 1, 8, 'false']"
p945
(lp946
I20
asS"[-1, 'false', [0, 7, 5], 13, 8, 8, 'true']"
p947
(lp948
I27
asS"[-1, 'false', [8, 2, 2], 15, 7, 12, 'true']"
p949
(lp950
I28
asS"[-1, 'false', [7, 2, 3], 5, 24, 15, 'false']"
p951
(lp952
I28
asS"[-1, 'false', [3, 2, 7], 1, 6, 15, 'false']"
p953
(lp954
I28
asS"[-1, 'false', [7, 3, 2], 18, 10, 12, 'true']"
p955
(lp956
I21
asS"[-1, 'false', [5, 1, 6], 12, 17, 9, 'true']"
p957
(lp958
I31
asS"[-1, 'false', [4, 1, 7], 19, 14, 12, 'true']"
p959
(lp960
I47049011
asS"[-1, 'false', [0, 2, 10], 5, 17, 9, 'true']"
p961
(lp962
I29
asS"[-1, 'false', [2, 7, 3], 17, 10, 7, 'true']"
p963
(lp964
I15
asS"[-1, 'false', [2, 2, 8], 4, 5, 11, 'true']"
p965
(lp966
I1750000
asS"[-1, 'false', [1, 4, 7], 15, 39, 15, 'true']"
p967
(lp968
I23
asS"[-1, 'false', [2, 2, 8], 2, 20, 15, 'true']"
p969
(lp970
I32
asS"[-1, 'false', [0, 8, 4], 1, 25, 9, 'false']"
p971
(lp972
I39
asS"[-1, 'false', [0, 11, 1], 20, 32, 12, 'false']"
p973
(lp974
I11
asS"[-1, 'false', [9, 1, 2], 8, 31, 9, 'true']"
p975
(lp976
I24
asS"[-1, 'false', [4, 4, 4], 5, 14, 15, 'false']"
p977
(lp978
I24
asS"[-1, 'false', [0, 8, 4], 4, 3, 10, 'false']"
p979
(lp980
I27
asS"[-1, 'false', [9, 2, 1], 6, 44, 7, 'false']"
p981
(lp982
I32
asS"[-1, 'false', [0, 9, 3], 19, 5, 12, 'true']"
p983
(lp984
I16
asS"[-1, 'false', [2, 3, 7], 16, 43, 13, 'true']"
p985
(lp986
I17
asS"[-1, 'false', [5, 6, 1], 3, 29, 12, 'false']"
p987
(lp988
I17
asS"[-1, 'false', [0, 3, 9], 15, 37, 10, 'true']"
p989
(lp990
I19
asS"[-1, 'false', [4, 4, 4], 12, 18, 11, 'true']"
p991
(lp992
I30
asS"[-1, 'false', [4, 3, 5], 9, 25, 8, 'false']"
p993
(lp994
I20
asS"[-1, 'false', [6, 5, 1], 3, 34, 11, 'false']"
p995
(lp996
I16
asS"[-1, 'false', [8, 1, 3], 16, 50, 13, 'true']"
p997
(lp998
I23
asS"[-1, 'false', [10, 1, 1], 19, 5, 7, 'false']"
p999
(lp1000
I27
asS"[-1, 'false', [9, 2, 1], 1, 45, 14, 'true']"
p1001
(lp1002
I16
asS"[-1, 'false', [6, 4, 2], 6, 30, 7, 'false']"
p1003
(lp1004
I23
asS"[-1, 'false', [4, 6, 2], 7, 11, 6, 'true']"
p1005
(lp1006
I29
asS"[-1, 'false', [0, 1, 11], 3, 12, 12, 'false']"
p1007
(lp1008
I29
asS"[-1, 'false', [8, 1, 3], 19, 8, 11, 'false']"
p1009
(lp1010
I23
asS"[-1, 'false', [5, 2, 5], 12, 27, 8, 'true']"
p1011
(lp1012
I21
asS"[-1, 'false', [3, 2, 7], 7, 6, 15, 'false']"
p1013
(lp1014
I23
aI27
asS"[-1, 'false', [7, 3, 2], 11, 26, 7, 'false']"
p1015
(lp1016
I21
asS"[-1, 'false', [1, 3, 8], 19, 20, 12, 'true']"
p1017
(lp1018
I32
asS"[-1, 'false', [0, 6, 6], 9, 9, 7, 'false']"
p1019
(lp1020
I38
asS"[-1, 'false', [3, 2, 7], 5, 24, 14, 'false']"
p1021
(lp1022
I26
asS"[-1, 'false', [7, 1, 4], 8, 38, 11, 'true']"
p1023
(lp1024
I31
asS"[-1, 'false', [2, 5, 5], 20, 22, 10, 'true']"
p1025
(lp1026
I14
asS"[-1, 'false', [1, 8, 3], 17, 50, 8, 'true']"
p1027
(lp1028
I34
asS"[-1, 'false', [4, 2, 6], 1, 4, 13, 'true']"
p1029
(lp1030
I19
asS"[-1, 'false', [7, 4, 1], 19, 5, 7, 'true']"
p1031
(lp1032
I15
asS"[-1, 'false', [6, 1, 5], 6, 40, 14, 'true']"
p1033
(lp1034
I44
asS"[-1, 'false', [8, 1, 3], 5, 50, 11, 'false']"
p1035
(lp1036
I43
aI26
asS"[-1, 'false', [9, 1, 2], 1, 5, 13, 'false']"
p1037
(lp1038
I21
asS"[-1, 'false', [0, 11, 1], 6, 25, 14, 'true']"
p1039
(lp1040
I22
asS"[-1, 'false', [1, 4, 7], 14, 40, 7, 'false']"
p1041
(lp1042
I11442006
asS"[-1, 'false', [4, 2, 6], 3, 23, 10, 'true']"
p1043
(lp1044
I40
asS"[-1, 'false', [2, 7, 3], 16, 36, 10, 'true']"
p1045
(lp1046
I16
asS"[-1, 'false', [1, 2, 9], 2, 19, 13, 'true']"
p1047
(lp1048
I23
asS"[-1, 'false', [7, 2, 3], 4, 2, 9, 'true']"
p1049
(lp1050
I20
asS"[-1, 'false', [10, 1, 1], 7, 31, 14, 'false']"
p1051
(lp1052
I16
asS"[-1, 'false', [2, 4, 6], 6, 28, 8, 'true']"
p1053
(lp1054
I37
asS"[-1, 'false', [4, 3, 5], 12, 34, 14, 'true']"
p1055
(lp1056
I33
asS"[-1, 'false', [0, 8, 4], 9, 9, 9, 'false']"
p1057
(lp1058
I25
asS"[-1, 'false', [2, 4, 6], 6, 29, 12, 'false']"
p1059
(lp1060
I20
asS"[-1, 'false', [7, 2, 3], 6, 21, 13, 'true']"
p1061
(lp1062
I32
asS"[-1, 'false', [1, 1, 10], 8, 19, 13, 'true']"
p1063
(lp1064
I37
asS"[-1, 'false', [6, 4, 2], 8, 13, 14, 'false']"
p1065
(lp1066
I14
asS"[-1, 'false', [3, 6, 3], 19, 48, 13, 'false']"
p1067
(lp1068
I12
asS"[-1, 'false', [8, 1, 3], 4, 50, 11, 'false']"
p1069
(lp1070
I27
aI33
asS"[-1, 'false', [4, 1, 7], 7, 38, 7, 'true']"
p1071
(lp1072
I19
asS"[-1, 'false', [5, 1, 6], 17, 28, 6, 'false']"
p1073
(lp1074
I54700050006
aI19
asS"[-1, 'false', [3, 7, 2], 17, 48, 6, 'false']"
p1075
(lp1076
I6
asS"[-1, 'false', [1, 6, 5], 3, 31, 15, 'false']"
p1077
(lp1078
I27
asS"[-1, 'false', [1, 10, 1], 1, 46, 14, 'false']"
p1079
(lp1080
I23
asS"[-1, 'false', [3, 7, 2], 15, 2, 11, 'false']"
p1081
(lp1082
I19
asS"[-1, 'false', [7, 1, 4], 14, 45, 10, 'false']"
p1083
(lp1084
I37
asS"[-1, 'false', [3, 5, 4], 6, 13, 12, 'false']"
p1085
(lp1086
I29
asS"[-1, 'false', [6, 3, 3], 1, 38, 11, 'true']"
p1087
(lp1088
I23
asS"[-1, 'false', [6, 4, 2], 18, 3, 6, 'true']"
p1089
(lp1090
I29
asS"[-1, 'false', [4, 5, 3], 13, 24, 8, 'true']"
p1091
(lp1092
I11
asS"[-1, 'false', [0, 8, 4], 14, 26, 9, 'false']"
p1093
(lp1094
I22
asS"[-1, 'false', [3, 2, 7], 3, 48, 7, 'true']"
p1095
(lp1096
I18
asS"[-1, 'false', [2, 9, 1], 3, 25, 6, 'false']"
p1097
(lp1098
I25
asS"[-1, 'false', [4, 3, 5], 4, 35, 10, 'false']"
p1099
(lp1100
I24
asS"[-1, 'false', [7, 1, 4], 7, 4, 12, 'true']"
p1101
(lp1102
I9270099010
aI27
asS"[-1, 'false', [5, 3, 4], 9, 38, 13, 'false']"
p1103
(lp1104
I25
asS"[-1, 'false', [10, 1, 1], 15, 8, 12, 'false']"
p1105
(lp1106
I32
asS"[-1, 'false', [4, 5, 3], 13, 5, 10, 'false']"
p1107
(lp1108
I23
asS"[-1, 'false', [1, 1, 10], 18, 19, 6, 'false']"
p1109
(lp1110
I11
asS"[-1, 'false', [6, 3, 3], 11, 49, 10, 'true']"
p1111
(lp1112
I20
asS"[-1, 'false', [9, 1, 2], 19, 23, 14, 'true']"
p1113
(lp1114
I18
asS"[-1, 'false', [8, 3, 1], 2, 9, 13, 'false']"
p1115
(lp1116
I24
asS"[-1, 'false', [5, 1, 6], 8, 48, 8, 'false']"
p1117
(lp1118
I24
asS"[-1, 'false', [4, 3, 5], 2, 2, 7, 'false']"
p1119
(lp1120
I21
asS"[-1, 'false', [5, 5, 2], 14, 18, 11, 'true']"
p1121
(lp1122
I20
asS"[-1, 'false', [2, 5, 5], 4, 17, 11, 'true']"
p1123
(lp1124
I33
asS"[-1, 'false', [5, 1, 6], 19, 17, 14, 'false']"
p1125
(lp1126
I26
asS"[-1, 'false', [3, 7, 2], 20, 47, 14, 'true']"
p1127
(lp1128
I5
asS"[-1, 'false', [0, 5, 7], 4, 7, 7, 'true']"
p1129
(lp1130
I36
asS"[-1, 'false', [8, 3, 1], 1, 27, 11, 'true']"
p1131
(lp1132
I20
asS"[-1, 'false', [2, 1, 9], 18, 13, 9, 'true']"
p1133
(lp1134
I17
asS"[-1, 'false', [3, 5, 4], 9, 8, 8, 'true']"
p1135
(lp1136
I26
asS"[-1, 'false', [0, 4, 8], 2, 28, 8, 'false']"
p1137
(lp1138
I37
asS"[-1, 'false', [5, 4, 3], 4, 37, 6, 'false']"
p1139
(lp1140
I39
as.