(dp0
S"[-1, 'false', [4, 1, 7], 16, 41, 14, 'false']"
p1
(lp2
I28
asS"[-1, 'false', [1, 2, 9], 15, 2, 14, 'false']"
p3
(lp4
I34
asS"[-1, 'false', [9, 1, 2], 15, 19, 15, 'false']"
p5
(lp6
I25
asS"[-1, 'false', [2, 2, 8], 16, 35, 6, 'true']"
p7
(lp8
I22
asS"[-1, 'false', [1, 4, 7], 3, 15, 11, 'false']"
p9
(lp10
I33
asS"[-1, 'false', [6, 2, 4], 1, 25, 13, 'false']"
p11
(lp12
I25
aI44
asS"[-1, 'false', [3, 1, 8], 17, 19, 14, 'true']"
p13
(lp14
I33
asS"[-1, 'false', [6, 5, 1], 7, 43, 10, 'true']"
p15
(lp16
I21
asS"[-1, 'false', [2, 4, 6], 8, 3, 20, 'false']"
p17
(lp18
I31
asS"[-1, 'false', [3, 6, 3], 3, 37, 6, 'true']"
p19
(lp20
I27
asS"[-1, 'false', [5, 1, 6], 9, 19, 11, 'true']"
p21
(lp22
I33
asS"[-1, 'false', [1, 6, 5], 16, 43, 12, 'true']"
p23
(lp24
I12
asS"[-1, 'false', [2, 6, 4], 6, 16, 10, 'true']"
p25
(lp26
I26
asS"[-1, 'false', [0, 4, 8], 11, 31, 11, 'false']"
p27
(lp28
I26
asS"[-1, 'false', [0, 11, 1], 8, 32, 10, 'true']"
p29
(lp30
I15
asS"[-1, 'false', [1, 5, 6], 18, 10, 15, 'true']"
p31
(lp32
I32
asS"[-1, 'false', [4, 1, 7], 17, 7, 15, 'false']"
p33
(lp34
I30
asS"[-1, 'false', [2, 4, 6], 6, 17, 10, 'true']"
p35
(lp36
I24
asS"[-1, 'false', [9, 1, 2], 6, 36, 8, 'true']"
p37
(lp38
I22
asS"[-1, 'false', [2, 4, 6], 5, 28, 12, 'true']"
p39
(lp40
I23
asS"[-1, 'false', [3, 7, 2], 6, 13, 9, 'true']"
p41
(lp42
I30
asS"[-1, 'false', [6, 5, 1], 14, 43, 9, 'true']"
p43
(lp44
I8
asS"[-1, 'false', [6, 5, 1], 7, 48, 10, 'true']"
p45
(lp46
I19
asS"[-1, 'false', [4, 3, 5], 10, 1, 10, 'true']"
p47
(lp48
I30
asS"[-1, 'false', [2, 8, 2], 9, 37, 8, 'true']"
p49
(lp50
I21
asS"[-1, 'false', [0, 4, 8], 9, 43, 12, 'true']"
p51
(lp52
I22
asS"[-1, 'false', [6, 3, 3], 8, 43, 11, 'false']"
p53
(lp54
I37
aI25
aI32
asS"[-1, 'false', [6, 1, 5], 5, 46, 9, 'false']"
p55
(lp56
I29
asS"[-1, 'false', [2, 3, 7], 3, 2, 15, 'false']"
p57
(lp58
I29
asS"[-1, 'false', [3, 4, 5], 16, 18, 11, 'true']"
p59
(lp60
I21
asS"[-1, 'false', [0, 6, 6], 1, 43, 12, 'true']"
p61
(lp62
I32
aI23
asS"[-1, 'false', [6, 3, 3], 2, 25, 8, 'false']"
p63
(lp64
I37
asS"[-1, 'false', [7, 3, 2], 5, 28, 15, 'false']"
p65
(lp66
I33
asS"[-1, 'false', [4, 1, 7], 17, 1, 13, 'true']"
p67
(lp68
I17
asS"[-1, 'false', [4, 6, 2], 18, 27, 14, 'true']"
p69
(lp70
I10
asS"[-1, 'false', [7, 2, 3], 9, 36, 15, 'false']"
p71
(lp72
I40040006
asS"[-1, 'false', [4, 2, 6], 5, 36, 6, 'false']"
p73
(lp74
I32
aI23
asS"[-1, 'false', [5, 3, 4], 13, 7, 10, 'true']"
p75
(lp76
I22
asS"[-1, 'false', [0, 7, 5], 5, 47, 6, 'false']"
p77
(lp78
I22
asS"[-1, 'false', [10, 1, 1], 4, 40, 9, 'true']"
p79
(lp80
I33
aI19
aI25
asS"[-1, 'false', [9, 1, 2], 12, 41, 11, 'true']"
p81
(lp82
I27
asS"[-1, 'false', [2, 5, 5], 6, 48, 15, 'false']"
p83
(lp84
I17
asS"[-1, 'false', [3, 3, 6], 6, 50, 8, 'false']"
p85
(lp86
I22
asS"[-1, 'false', [2, 8, 2], 12, 49, 15, 'false']"
p87
(lp88
I14
asS"[-1, 'false', [6, 3, 3], 12, 43, 11, 'false']"
p89
(lp90
I23
aI20
asS"[-1, 'false', [10, 1, 1], 19, 43, 14, 'false']"
p91
(lp92
I18
asS"[-1, 'false', [0, 9, 3], 9, 24, 10, 'true']"
p93
(lp94
I21
asS"[-1, 'false', [1, 5, 6], 1, 43, 12, 'true']"
p95
(lp96
I25
asS"[-1, 'false', [2, 8, 2], 5, 32, 14, 'false']"
p97
(lp98
I11
asS"[-1, 'false', [8, 2, 2], 3, 25, 15, 'false']"
p99
(lp100
I27
asS"[-1, 'false', [0, 10, 2], 8, 35, 11, 'true']"
p101
(lp102
I35
asS"[-1, 'false', [1, 8, 3], 8, 22, 7, 'true']"
p103
(lp104
I26
asS"[-1, 'false', [8, 1, 3], 15, 6, 9, 'true']"
p105
(lp106
I28
asS"[-1, 'false', [6, 1, 5], 1, 38, 12, 'true']"
p107
(lp108
I48
aI27
asS"[-1, 'false', [5, 3, 4], 5, 45, 13, 'false']"
p109
(lp110
I21
asS"[-1, 'false', [9, 2, 1], 16, 35, 8, 'false']"
p111
(lp112
I14
asS"[-1, 'false', [7, 1, 4], 7, 37, 7, 'true']"
p113
(lp114
I29
asS"[-1, 'false', [6, 5, 1], 2, 18, 9, 'true']"
p115
(lp116
I12
asS"[-1, 'false', [7, 3, 2], 7, 35, 15, 'false']"
p117
(lp118
I28
asS"[-1, 'false', [7, 4, 1], 17, 34, 11, 'true']"
p119
(lp120
I10
asS"[-1, 'false', [4, 7, 1], 16, 6, 7, 'true']"
p121
(lp122
I15
asS"[-1, 'false', [3, 1, 8], 3, 47, 12, 'true']"
p123
(lp124
I30
aI42
aI42
asS"[-1, 'false', [4, 4, 4], 7, 19, 14, 'false']"
p125
(lp126
I35
asS"[-1, 'false', [0, 4, 8], 14, 15, 9, 'true']"
p127
(lp128
I25
asS"[-1, 'false', [7, 2, 3], 3, 25, 13, 'false']"
p129
(lp130
I28
aI20
asS"[-1, 'false', [10, 1, 1], 20, 7, 7, 'false']"
p131
(lp132
I35
asS"[-1, 'false', [2, 7, 3], 4, 26, 9, 'false']"
p133
(lp134
I29
asS"[-1, 'false', [5, 4, 3], 8, 45, 14, 'true']"
p135
(lp136
I14
asS"[-1, 'false', [4, 6, 2], 1, 44, 13, 'false']"
p137
(lp138
I15
asS"[-1, 'false', [4, 7, 1], 14, 18, 6, 'false']"
p139
(lp140
I12
asS"[-1, 'false', [4, 4, 4], 6, 15, 13, 'true']"
p141
(lp142
I38
asS"[-1, 'false', [5, 3, 4], 13, 37, 15, 'true']"
p143
(lp144
I19
asS"[-1, 'false', [3, 4, 5], 10, 23, 10, 'true']"
p145
(lp146
I27
asS"[-1, 'false', [3, 5, 4], 12, 21, 6, 'true']"
p147
(lp148
I33
asS"[-1, 'false', [8, 3, 1], 4, 32, 11, 'false']"
p149
(lp150
I15
asS"[-1, 'false', [1, 4, 7], 15, 2, 14, 'false']"
p151
(lp152
I24
aI29
asS"[-1, 'false', [1, 2, 9], 5, 37, 12, 'true']"
p153
(lp154
I40
asS"[-1, 'false', [3, 4, 5], 19, 28, 10, 'false']"
p155
(lp156
I12
asS"[-1, 'false', [2, 4, 6], 8, 3, 11, 'false']"
p157
(lp158
I2445018
aI27
asS"[-1, 'false', [3, 3, 6], 7, 15, 11, 'false']"
p159
(lp160
I29
asS"[-1, 'false', [8, 3, 1], 6, 43, 14, 'false']"
p161
(lp162
I26
asS"[-1, 'false', [9, 2, 1], 10, 16, 9, 'false']"
p163
(lp164
I34
asS"[-1, 'false', [6, 3, 3], 6, 43, 14, 'false']"
p165
(lp166
I28
asS"[-1, 'false', [2, 5, 5], 15, 16, 13, 'true']"
p167
(lp168
I29
asS"[-1, 'false', [2, 8, 2], 3, 43, 10, 'true']"
p169
(lp170
I11
asS"[-1, 'false', [5, 4, 3], 9, 43, 14, 'false']"
p171
(lp172
I24
asS"[-1, 'false', [2, 5, 5], 2, 19, 13, 'true']"
p173
(lp174
I33
asS"[-1, 'false', [7, 3, 2], 18, 1, 14, 'false']"
p175
(lp176
I23
asS"[-1, 'false', [1, 2, 9], 14, 29, 14, 'true']"
p177
(lp178
I15
asS"[-1, 'false', [2, 3, 7], 14, 15, 9, 'true']"
p179
(lp180
I34
asS"[-1, 'false', [2, 2, 8], 4, 40, 8, 'false']"
p181
(lp182
I48
asS"[-1, 'false', [4, 5, 3], 1, 20, 9, 'false']"
p183
(lp184
I25
asS"[-1, 'false', [4, 2, 6], 12, 23, 6, 'false']"
p185
(lp186
I17445010
asS"[-1, 'false', [0, 7, 5], 4, 9, 7, 'false']"
p187
(lp188
I28
asS"[-1, 'false', [3, 4, 5], 1, 25, 13, 'false']"
p189
(lp190
I27
asS"[-1, 'false', [8, 2, 2], 16, 30, 6, 'false']"
p191
(lp192
I19
asS"[-1, 'false', [4, 4, 4], 6, 44, 8, 'false']"
p193
(lp194
I24
asS"[-1, 'false', [3, 4, 5], 16, 29, 12, 'true']"
p195
(lp196
I25
asS"[-1, 'false', [9, 1, 2], 13, 20, 9, 'true']"
p197
(lp198
I22
asS"[-1, 'false', [1, 2, 9], 10, 31, 14, 'true']"
p199
(lp200
I24
asS"[-1, 'false', [8, 3, 1], 17, 25, 13, 'true']"
p201
(lp202
I24
aI13
asS"[-1, 'false', [9, 2, 1], 1, 39, 13, 'true']"
p203
(lp204
I21
asS"[-1, 'false', [1, 6, 5], 1, 43, 12, 'true']"
p205
(lp206
I28
asS"[-1, 'false', [9, 2, 1], 20, 23, 12, 'false']"
p207
(lp208
I15
asS"[-1, 'false', [6, 3, 3], 17, 25, 13, 'true']"
p209
(lp210
I26
asS"[-1, 'false', [5, 1, 6], 8, 41, 12, 'true']"
p211
(lp212
I25
aI20
asS"[-1, 'false', [0, 8, 4], 5, 28, 10, 'true']"
p213
(lp214
I29
asS"[-1, 'false', [2, 6, 4], 13, 48, 9, 'true']"
p215
(lp216
I14
asS"[-1, 'false', [4, 1, 7], 6, 6, 11, 'true']"
p217
(lp218
I26
aI26
asS"[-1, 'false', [5, 4, 3], 9, 10, 13, 'false']"
p219
(lp220
I24
asS"[-1, 'false', [10, 1, 1], 7, 43, 6, 'false']"
p221
(lp222
I31
asS"[-1, 'false', [0, 4, 8], 20, 43, 12, 'true']"
p223
(lp224
I9
asS"[-1, 'false', [4, 3, 5], 4, 11, 10, 'false']"
p225
(lp226
I24
asS"[-1, 'false', [8, 1, 3], 9, 44, 6, 'true']"
p227
(lp228
I22
aI26
asS"[-1, 'false', [5, 2, 5], 7, 39, 8, 'false']"
p229
(lp230
I33
asS"[-1, 'false', [0, 1, 11], 1, 27, 11, 'false']"
p231
(lp232
I33
aI43
aI37
asS"[-1, 'false', [7, 4, 1], 17, 48, 10, 'true']"
p233
(lp234
I6
asS"[-1, 'false', [4, 3, 5], 5, 1, 10, 'true']"
p235
(lp236
I27
aI19
asS"[-1, 'false', [2, 4, 6], 13, 22, 9, 'false']"
p237
(lp238
I23
asS"[-1, 'false', [2, 4, 6], 8, 3, 11, 'true']"
p239
(lp240
I21
asS"[-1, 'false', [0, 8, 4], 5, 47, 6, 'false']"
p241
(lp242
I37
aI40
asS"[-1, 'false', [7, 3, 2], 20, 7, 14, 'true']"
p243
(lp244
I23
asS"[-1, 'false', [3, 3, 6], 8, 7, 14, 'false']"
p245
(lp246
I25
aI32
asS"[-1, 'false', [6, 2, 4], 3, 49, 9, 'false']"
p247
(lp248
I27
asS"[-1, 'false', [7, 2, 3], 10, 42, 10, 'true']"
p249
(lp250
I31
asS"[-1, 'false', [9, 2, 1], 11, 45, 12, 'true']"
p251
(lp252
I31
asS"[-1, 'false', [6, 1, 5], 5, 41, 10, 'true']"
p253
(lp254
I24
asS"[-1, 'false', [7, 3, 2], 6, 5, 8, 'false']"
p255
(lp256
I35
asS"[-1, 'false', [0, 4, 8], 6, 19, 9, 'false']"
p257
(lp258
I25
asS"[-1, 'false', [7, 3, 2], 6, 16, 6, 'true']"
p259
(lp260
I35
asS"[-1, 'false', [7, 1, 4], 12, 36, 11, 'false']"
p261
(lp262
I30
aI24
asS"[-1, 'false', [3, 4, 5], 6, 23, 10, 'true']"
p263
(lp264
I35
asS"[-1, 'false', [9, 1, 2], 18, 43, 11, 'false']"
p265
(lp266
I25
asS"[-1, 'false', [2, 3, 7], 3, 49, 15, 'true']"
p267
(lp268
I38
asS"[-1, 'false', [2, 4, 6], 5, 34, 12, 'true']"
p269
(lp270
I26
aI30
aI32
aI32
aI31
asS"[-1, 'false', [9, 1, 2], 12, 45, 11, 'true']"
p271
(lp272
I50011
asS"[-1, 'false', [5, 2, 5], 3, 22, 14, 'false']"
p273
(lp274
I30
asS"[-1, 'false', [7, 3, 2], 13, 48, 11, 'false']"
p275
(lp276
I13
asS"[-1, 'false', [2, 1, 9], 9, 25, 7, 'true']"
p277
(lp278
I22
asS"[-1, 'false', [1, 3, 8], 7, 15, 10, 'false']"
p279
(lp280
I39
asS"[-1, 'false', [0, 9, 3], 11, 34, 15, 'false']"
p281
(lp282
I19
asS"[-1, 'false', [5, 4, 3], 17, 8, 7, 'false']"
p283
(lp284
I19
asS"[-1, 'false', [3, 4, 5], 11, 46, 11, 'false']"
p285
(lp286
I15
asS"[-1, 'false', [1, 3, 8], 4, 9, 7, 'false']"
p287
(lp288
I24
asS"[-1, 'false', [8, 3, 1], 16, 40, 10, 'true']"
p289
(lp290
I15
asS"[-1, 'false', [2, 3, 7], 7, 28, 13, 'true']"
p291
(lp292
I30
asS"[-1, 'false', [5, 6, 1], 5, 6, 13, 'false']"
p293
(lp294
I17
asS"[-1, 'false', [6, 4, 2], 10, 14, 14, 'false']"
p295
(lp296
I21
asS"[-1, 'false', [5, 5, 2], 12, 9, 10, 'false']"
p297
(lp298
I22
asS"[-1, 'false', [4, 6, 2], 20, 46, 12, 'true']"
p299
(lp300
I7
asS"[-1, 'false', [7, 4, 1], 11, 46, 6, 'true']"
p301
(lp302
I13
asS"[-1, 'false', [1, 10, 1], 6, 47, 9, 'false']"
p303
(lp304
I15
asS"[-1, 'false', [7, 4, 1], 2, 23, 12, 'false']"
p305
(lp306
I16
asS"[-1, 'false', [9, 1, 2], 2, 36, 8, 'true']"
p307
(lp308
I23
asS"[-1, 'false', [2, 6, 4], 15, 2, 15, 'false']"
p309
(lp310
I21
asS"[-1, 'false', [10, 1, 1], 17, 3, 6, 'false']"
p311
(lp312
I26
asS"[-1, 'false', [0, 2, 10], 1, 43, 12, 'true']"
p313
(lp314
I46
aI32
asS"[-1, 'false', [5, 4, 3], 14, 41, 15, 'true']"
p315
(lp316
I25
asS"[-1, 'false', [5, 3, 4], 17, 22, 12, 'true']"
p317
(lp318
I18
asS"[-1, 'false', [2, 6, 4], 13, 8, 6, 'false']"
p319
(lp320
I22
asS"[-1, 'false', [8, 3, 1], 12, 19, 15, 'true']"
p321
(lp322
I19
asS"[-1, 'false', [3, 7, 2], 13, 38, 6, 'true']"
p323
(lp324
I20
asS"[-1, 'false', [10, 1, 1], 10, 34, 9, 'true']"
p325
(lp326
I16
asS"[-1, 'false', [1, 4, 7], 2, 26, 6, 'true']"
p327
(lp328
I33
asS"[-1, 'false', [1, 7, 4], 1, 40, 7, 'true']"
p329
(lp330
I34
asS"[-1, 'false', [5, 3, 4], 15, 16, 11, 'true']"
p331
(lp332
I30
asS"[-1, 'false', [0, 9, 3], 8, 1, 11, 'false']"
p333
(lp334
I31
asS"[-1, 'false', [7, 3, 2], 14, 37, 15, 'false']"
p335
(lp336
I19
asS"[-1, 'false', [4, 7, 1], 18, 7, 8, 'true']"
p337
(lp338
I19
asS"[-1, 'false', [10, 1, 1], 12, 23, 7, 'true']"
p339
(lp340
I22
asS"[-1, 'false', [1, 6, 5], 4, 24, 15, 'true']"
p341
(lp342
I32
asS"[-1, 'false', [5, 4, 3], 1, 15, 12, 'true']"
p343
(lp344
I36
aI26
asS"[-1, 'false', [1, 4, 7], 6, 15, 11, 'false']"
p345
(lp346
I32
asS"[-1, 'false', [2, 5, 5], 11, 7, 7, 'true']"
p347
(lp348
I34
asS"[-1, 'false', [2, 9, 1], 2, 39, 7, 'false']"
p349
(lp350
I14
asS"[-1, 'false', [0, 7, 5], 15, 40, 10, 'true']"
p351
(lp352
I25
asS"[-1, 'false', [1, 10, 1], 10, 17, 8, 'false']"
p353
(lp354
I23
asS"[-1, 'false', [0, 5, 7], 14, 15, 9, 'true']"
p355
(lp356
I20
asS"[-1, 'false', [10, 1, 1], 12, 42, 15, 'true']"
p357
(lp358
I31
asS"[-1, 'false', [5, 2, 5], 14, 42, 6, 'false']"
p359
(lp360
I18
asS"[-1, 'false', [4, 4, 4], 7, 44, 9, 'false']"
p361
(lp362
I16
asS"[-1, 'false', [2, 7, 3], 19, 36, 8, 'true']"
p363
(lp364
I20
asS"[-1, 'false', [3, 7, 2], 17, 40, 9, 'true']"
p365
(lp366
I13
aI26
asS"[-1, 'false', [1, 2, 9], 14, 29, 12, 'false']"
p367
(lp368
I24
aI23
asS"[-1, 'false', [1, 4, 7], 9, 15, 11, 'false']"
p369
(lp370
I26
asS"[-1, 'false', [1, 2, 9], 10, 29, 14, 'true']"
p371
(lp372
I23
asS"[-1, 'false', [7, 3, 2], 9, 28, 15, 'false']"
p373
(lp374
I8446011
aI23
asS"[-1, 'false', [1, 8, 3], 19, 17, 13, 'true']"
p375
(lp376
I11
asS"[-1, 'false', [2, 6, 4], 10, 30, 15, 'false']"
p377
(lp378
I22
aI23
aI19
asS"[-1, 'false', [5, 3, 4], 13, 45, 9, 'false']"
p379
(lp380
I18
asS"[-1, 'false', [0, 4, 8], 1, 43, 12, 'true']"
p381
(lp382
I35
aI35
asS"[-1, 'false', [6, 5, 1], 4, 7, 10, 'false']"
p383
(lp384
I17
asS"[-1, 'false', [6, 1, 5], 19, 45, 12, 'true']"
p385
(lp386
I28
aI29
asS"[-1, 'false', [5, 3, 4], 12, 20, 11, 'true']"
p387
(lp388
I32
asS"[-1, 'false', [1, 4, 7], 19, 20, 9, 'true']"
p389
(lp390
I21
asS"[-1, 'false', [7, 3, 2], 7, 39, 8, 'false']"
p391
(lp392
I17
asS"[-1, 'false', [5, 5, 2], 12, 42, 12, 'false']"
p393
(lp394
I24
asS"[-1, 'false', [5, 2, 5], 13, 6, 8, 'true']"
p395
(lp396
I26
asS"[-1, 'false', [8, 1, 3], 14, 22, 10, 'false']"
p397
(lp398
I18
asS"[-1, 'false', [1, 2, 9], 2, 45, 10, 'false']"
p399
(lp400
I34
aI42
asS"[-1, 'false', [9, 2, 1], 7, 14, 9, 'false']"
p401
(lp402
I99004
asS"[-1, 'false', [1, 3, 8], 14, 15, 10, 'false']"
p403
(lp404
I36
aI31
asS"[-1, 'false', [0, 1, 11], 13, 6, 15, 'true']"
p405
(lp406
I3430044002
asS"[-1, 'false', [7, 3, 2], 11, 49, 14, 'true']"
p407
(lp408
I15
asS"[-1, 'false', [5, 6, 1], 10, 22, 14, 'false']"
p409
(lp410
I24
asS"[-1, 'false', [5, 2, 5], 1, 31, 10, 'false']"
p411
(lp412
I25
asS"[-1, 'false', [2, 2, 8], 11, 15, 8, 'true']"
p413
(lp414
I33
asS"[-1, 'false', [4, 6, 2], 12, 17, 15, 'true']"
p415
(lp416
I10
asS"[-1, 'false', [1, 5, 6], 10, 14, 9, 'true']"
p417
(lp418
I36
asS"[-1, 'false', [7, 2, 3], 15, 35, 13, 'true']"
p419
(lp420
I12
aI32
asS"[-1, 'false', [0, 5, 7], 9, 10, 15, 'true']"
p421
(lp422
I24
asS"[-1, 'false', [5, 2, 5], 2, 11, 10, 'false']"
p423
(lp424
I50013
asS"[-1, 'false', [6, 1, 5], 15, 27, 15, 'false']"
p425
(lp426
I32
aI27
asS"[-1, 'false', [2, 6, 4], 6, 23, 10, 'true']"
p427
(lp428
I42
aI30
aI27
asS"[-1, 'false', [4, 2, 6], 1, 44, 14, 'true']"
p429
(lp430
I35
asS"[-1, 'false', [4, 6, 2], 9, 21, 15, 'false']"
p431
(lp432
I25
asS"[-1, 'false', [0, 6, 6], 13, 10, 15, 'true']"
p433
(lp434
I26
asS"[-1, 'false', [2, 6, 4], 16, 15, 10, 'false']"
p435
(lp436
I21
asS"[-1, 'false', [10, 1, 1], 5, 8, 7, 'false']"
p437
(lp438
I22
asS"[-1, 'false', [12, 0, 0]]"
p439
(lp440
I25
aI13
aI27
aI14
aI17
aI18
aI20
aI29
aI22
aI25
aI21
aI27
aI18
aI12
aI19
aI23
aI37
aI29
aI17
aI30
asS"[-1, 'false', [0, 5, 7], 20, 43, 12, 'true']"
p441
(lp442
I19
asS"[-1, 'false', [1, 7, 4], 1, 37, 7, 'true']"
p443
(lp444
I51
aI30
asS"[-1, 'false', [2, 2, 8], 4, 47, 14, 'true']"
p445
(lp446
I31
aI37
asS"[-1, 'false', [0, 3, 9], 20, 2, 8, 'false']"
p447
(lp448
I29
asS"[-1, 'false', [1, 6, 5], 5, 34, 12, 'true']"
p449
(lp450
I28
asS"[-1, 'false', [4, 6, 2], 1, 44, 14, 'false']"
p451
(lp452
I29
asS"[-1, 'false', [1, 5, 6], 9, 10, 15, 'true']"
p453
(lp454
I20
asS"[-1, 'false', [4, 3, 5], 16, 41, 9, 'false']"
p455
(lp456
I19
asS"[-1, 'false', [5, 2, 5], 11, 19, 11, 'true']"
p457
(lp458
I21
asS"[-1, 'false', [1, 4, 7], 14, 5, 10, 'false']"
p459
(lp460
I34
asS"[-1, 'false', [6, 5, 1], 3, 23, 14, 'true']"
p461
(lp462
I30
asS"[-1, 'false', [4, 4, 4], 1, 21, 12, 'true']"
p463
(lp464
I40
aI28
aI34
asS"[-1, 'false', [4, 5, 3], 7, 17, 8, 'false']"
p465
(lp466
I19
asS"[-1, 'false', [1, 2, 9], 14, 23, 8, 'false']"
p467
(lp468
I27
asS"[-1, 'false', [3, 2, 7], 6, 6, 12, 'true']"
p469
(lp470
I25
asS"[-1, 'false', [0, 6, 6], 9, 10, 15, 'true']"
p471
(lp472
I34
asS"[-1, 'false', [4, 6, 2], 19, 12, 12, 'true']"
p473
(lp474
I23
asS"[-1, 'false', [1, 4, 7], 5, 15, 11, 'false']"
p475
(lp476
I27
asS"[-1, 'false', [5, 6, 1], 15, 6, 13, 'false']"
p477
(lp478
I29
asS"[-1, 'false', [1, 3, 8], 14, 29, 12, 'false']"
p479
(lp480
I22
asS"[-1, 'false', [7, 2, 3], 15, 11, 9, 'true']"
p481
(lp482
I26
asS"[-1, 'false', [6, 1, 5], 1, 38, 9, 'true']"
p483
(lp484
I39
asS"[-1, 'false', [7, 2, 3], 13, 4, 8, 'true']"
p485
(lp486
I29
asS"[-1, 'false', [9, 1, 2], 10, 28, 7, 'false']"
p487
(lp488
I17
asS"[-1, 'false', [5, 1, 6], 16, 30, 11, 'false']"
p489
(lp490
I35
asS"[-1, 'false', [1, 9, 2], 16, 3, 12, 'true']"
p491
(lp492
I17
asS"[-1, 'false', [2, 3, 7], 13, 46, 9, 'true']"
p493
(lp494
I34
asS"[-1, 'false', [0, 7, 5], 4, 24, 10, 'false']"
p495
(lp496
I30
asS"[-1, 'false', [0, 2, 10], 9, 43, 12, 'true']"
p497
(lp498
I30
asS"[-1, 'false', [4, 2, 6], 1, 26, 12, 'true']"
p499
(lp500
I36
asS"[-1, 'false', [7, 1, 4], 4, 24, 10, 'false']"
p501
(lp502
I40
asS"[-1, 'false', [7, 2, 3], 12, 15, 12, 'true']"
p503
(lp504
I25
asS"[-1, 'false', [4, 2, 6], 20, 23, 6, 'false']"
p505
(lp506
I26
asS"[-1, 'false', [7, 2, 3], 1, 25, 13, 'false']"
p507
(lp508
I27
asS"[-1, 'false', [0, 1, 11], 14, 27, 10, 'false']"
p509
(lp510
I22
asS"[-1, 'false', [8, 3, 1], 2, 26, 6, 'true']"
p511
(lp512
I33
asS"[-1, 'false', [4, 5, 3], 11, 30, 11, 'true']"
p513
(lp514
I24
asS"[-1, 'false', [10, 1, 1], 6, 43, 14, 'false']"
p515
(lp516
I34
asS"[-1, 'false', [8, 2, 2], 9, 40, 9, 'false']"
p517
(lp518
I36
asS"[-1, 'false', [1, 6, 5], 16, 34, 8, 'true']"
p519
(lp520
I9
asS"[-1, 'false', [1, 3, 8], 14, 6, 10, 'true']"
p521
(lp522
I31
asS"[-1, 'false', [6, 2, 4], 2, 34, 8, 'false']"
p523
(lp524
I28
asS"[-1, 'false', [6, 4, 2], 6, 25, 6, 'true']"
p525
(lp526
I15
asS"[-1, 'false', [1, 2, 9], 20, 31, 8, 'true']"
p527
(lp528
I26
asS"[-1, 'false', [8, 1, 3], 15, 40, 13, 'true']"
p529
(lp530
I25
asS"[-1, 'false', [5, 4, 3], 6, 5, 8, 'false']"
p531
(lp532
I27
asS"[-1, 'false', [3, 1, 8], 8, 16, 8, 'true']"
p533
(lp534
I31
asS"[-1, 'false', [9, 1, 2], 13, 8, 6, 'true']"
p535
(lp536
I27
asS"[-1, 'false', [0, 11, 1], 3, 13, 14, 'true']"
p537
(lp538
I20
aI15
asS"[-1, 'false', [8, 2, 2], 19, 24, 14, 'false']"
p539
(lp540
I24
aI23
asS"[-1, 'false', [3, 4, 5], 12, 18, 11, 'true']"
p541
(lp542
I38
asS"[-1, 'false', [3, 4, 5], 8, 25, 9, 'false']"
p543
(lp544
I27
asS"[-1, 'false', [6, 2, 4], 3, 25, 13, 'false']"
p545
(lp546
I25
asS"[-1, 'false', [1, 4, 7], 7, 15, 11, 'false']"
p547
(lp548
I36
aI40
aI26
aI24
asS"[-1, 'false', [1, 3, 8], 1, 2, 8, 'false']"
p549
(lp550
I33
asS"[-1, 'false', [8, 3, 1], 6, 39, 10, 'true']"
p551
(lp552
I13
asS"[-1, 'false', [2, 4, 6], 18, 3, 11, 'false']"
p553
(lp554
I19
asS"[-1, 'false', [1, 7, 4], 6, 34, 10, 'true']"
p555
(lp556
I24
asS"[-1, 'false', [1, 1, 10], 9, 33, 13, 'false']"
p557
(lp558
I14
asS"[-1, 'false', [3, 5, 4], 17, 22, 12, 'true']"
p559
(lp560
I16
asS"[-1, 'false', [10, 1, 1], 16, 45, 15, 'false']"
p561
(lp562
I24
asS"[-1, 'false', [2, 2, 8], 10, 12, 6, 'false']"
p563
(lp564
I29
asS"[-1, 'false', [3, 5, 4], 1, 25, 13, 'false']"
p565
(lp566
I24
asS"[-1, 'false', [9, 1, 2], 7, 49, 7, 'false']"
p567
(lp568
I21
asS"[-1, 'false', [4, 4, 4], 7, 45, 14, 'true']"
p569
(lp570
I11
asS"[-1, 'false', [7, 2, 3], 6, 23, 12, 'true']"
p571
(lp572
I31
asS"[-1, 'false', [9, 2, 1], 20, 8, 8, 'false']"
p573
(lp574
I26
asS"[-1, 'false', [9, 1, 2], 17, 17, 13, 'false']"
p575
(lp576
I15
asS"[-1, 'false', [0, 5, 7], 20, 7, 14, 'false']"
p577
(lp578
I23
aI31
asS"[-1, 'false', [4, 1, 7], 6, 6, 20, 'true']"
p579
(lp580
I20
asS"[-1, 'false', [4, 5, 3], 17, 37, 7, 'true']"
p581
(lp582
I32
asS"[-1, 'false', [1, 1, 10], 13, 13, 6, 'true']"
p583
(lp584
I25
asS"[-1, 'false', [7, 4, 1], 11, 48, 14, 'false']"
p585
(lp586
I13
asS"[-1, 'false', [0, 4, 8], 18, 10, 15, 'false']"
p587
(lp588
I28
aI546000
aI22
asS"[-1, 'false', [4, 6, 2], 15, 25, 14, 'true']"
p589
(lp590
I27
asS"[-1, 'false', [6, 2, 4], 11, 1, 6, 'true']"
p591
(lp592
I26
asS"[-1, 'false', [5, 3, 4], 3, 34, 12, 'true']"
p593
(lp594
I34
asS"[-1, 'false', [3, 8, 1], 6, 28, 8, 'true']"
p595
(lp596
I21
asS"[-1, 'false', [0, 5, 7], 18, 26, 15, 'false']"
p597
(lp598
I20
asS"[-1, 'false', [3, 1, 8], 16, 41, 14, 'false']"
p599
(lp600
I38
asS"[-1, 'false', [6, 4, 2], 17, 25, 8, 'false']"
p601
(lp602
I13
asS"[-1, 'false', [6, 1, 5], 11, 15, 7, 'true']"
p603
(lp604
I23
asS"[-1, 'false', [2, 6, 4], 7, 46, 6, 'false']"
p605
(lp606
I27
asS"[-1, 'false', [1, 2, 9], 5, 45, 10, 'false']"
p607
(lp608
I20
asS"[-1, 'false', [8, 3, 1], 13, 46, 11, 'true']"
p609
(lp610
I6
asS"[-1, 'false', [10, 1, 1], 4, 2, 7, 'true']"
p611
(lp612
I26
asS"[-1, 'false', [7, 1, 4], 4, 12, 8, 'false']"
p613
(lp614
I28
asS"[-1, 'false', [0, 1, 11], 1, 27, 19, 'false']"
p615
(lp616
I36
asS"[-1, 'false', [1, 4, 7], 18, 16, 9, 'false']"
p617
(lp618
I17
asS"[-1, 'false', [4, 5, 3], 13, 29, 7, 'false']"
p619
(lp620
I16
asS"[-1, 'false', [1, 4, 7], 7, 14, 11, 'false']"
p621
(lp622
I24
asS"[-1, 'false', [7, 2, 3], 12, 35, 8, 'false']"
p623
(lp624
I23
asS"[-1, 'false', [2, 2, 8], 12, 15, 15, 'true']"
p625
(lp626
I36
asS"[-1, 'false', [8, 3, 1], 18, 6, 7, 'true']"
p627
(lp628
I24
asS"[-1, 'false', [2, 5, 5], 14, 5, 10, 'false']"
p629
(lp630
I31
asS"[-1, 'false', [5, 3, 4], 17, 7, 10, 'true']"
p631
(lp632
I17
aI27
aI28
aI23
asS"[-1, 'false', [5, 3, 4], 13, 48, 11, 'false']"
p633
(lp634
I34
asS"[-1, 'false', [8, 2, 2], 6, 43, 14, 'false']"
p635
(lp636
I24
asS"[-1, 'false', [0, 2, 10], 17, 16, 14, 'true']"
p637
(lp638
I32
asS"[-1, 'false', [2, 1, 9], 2, 17, 9, 'false']"
p639
(lp640
I31
asS"[-1, 'false', [0, 1, 11], 17, 27, 10, 'false']"
p641
(lp642
I21
aI22
aI26
asS"[-1, 'false', [3, 6, 3], 15, 27, 6, 'true']"
p643
(lp644
I20
asS"[-1, 'false', [9, 2, 1], 18, 35, 8, 'false']"
p645
(lp646
I14
asS"[-1, 'false', [8, 1, 3], 14, 48, 6, 'true']"
p647
(lp648
I17
asS"[-1, 'false', [6, 2, 4], 17, 29, 7, 'false']"
p649
(lp650
I34
asS"[-1, 'false', [4, 7, 1], 14, 28, 11, 'false']"
p651
(lp652
I16
asS"[-1, 'false', [1, 6, 5], 15, 47, 15, 'true']"
p653
(lp654
I12
asS"[-1, 'false', [3, 1, 8], 4, 5, 12, 'false']"
p655
(lp656
I32
asS"[-1, 'false', [4, 1, 7], 14, 8, 15, 'false']"
p657
(lp658
I24
asS"[-1, 'false', [7, 1, 4], 16, 23, 9, 'false']"
p659
(lp660
I19
asS"[-1, 'false', [4, 3, 5], 7, 44, 8, 'false']"
p661
(lp662
I33
asS"[-1, 'false', [5, 4, 3], 12, 38, 15, 'false']"
p663
(lp664
I19
asS"[-1, 'false', [4, 4, 4], 20, 50, 7, 'true']"
p665
(lp666
I26
asS"[-1, 'false', [1, 7, 4], 3, 41, 7, 'true']"
p667
(lp668
I21
asS"[-1, 'false', [6, 3, 3], 15, 40, 13, 'false']"
p669
(lp670
I21
asS"[-1, 'false', [2, 8, 2], 9, 32, 15, 'false']"
p671
(lp672
I23
asS"[-1, 'false', [9, 1, 2], 20, 4, 6, 'true']"
p673
(lp674
I23
asS"[-1, 'false', [8, 2, 2], 4, 19, 7, 'false']"
p675
(lp676
I18
asS"[-1, 'false', [4, 3, 5], 10, 26, 9, 'false']"
p677
(lp678
I27
aI33
asS"[-1, 'false', [0, 11, 1], 3, 16, 14, 'true']"
p679
(lp680
I29
asS"[-1, 'false', [1, 4, 7], 1, 2, 8, 'false']"
p681
(lp682
I14646008
aI41
asS"[-1, 'false', [7, 2, 3], 9, 1, 11, 'true']"
p683
(lp684
I33
aI25
asS"[-1, 'false', [0, 2, 10], 1, 26, 12, 'true']"
p685
(lp686
I23
aI44
asS"[-1, 'false', [4, 4, 4], 1, 42, 9, 'true']"
p687
(lp688
I39
asS"[-1, 'false', [1, 2, 9], 3, 45, 9, 'true']"
p689
(lp690
I39
asS"[-1, 'false', [1, 4, 7], 1, 25, 7, 'true']"
p691
(lp692
I31
asS"[-1, 'false', [1, 10, 1], 2, 20, 12, 'false']"
p693
(lp694
I17
asS"[-1, 'false', [2, 5, 5], 14, 24, 10, 'false']"
p695
(lp696
I20
asS"[-1, 'false', [6, 1, 5], 1, 2, 6, 'true']"
p697
(lp698
I25
asS"[-1, 'false', [2, 4, 6], 12, 24, 7, 'true']"
p699
(lp700
I22
asS"[-1, 'false', [2, 9, 1], 18, 2, 13, 'true']"
p701
(lp702
I29
asS"[-1, 'false', [9, 1, 2], 6, 3, 6, 'true']"
p703
(lp704
I26
asS"[-1, 'false', [1, 5, 6], 4, 35, 9, 'true']"
p705
(lp706
I38
asS"[-1, 'false', [4, 4, 4], 16, 18, 10, 'true']"
p707
(lp708
I23
asS"[-1, 'false', [1, 2, 9], 6, 31, 14, 'true']"
p709
(lp710
I3838039016
aI36
asS"[-1, 'false', [6, 1, 5], 4, 40, 13, 'true']"
p711
(lp712
I36
asS"[-1, 'false', [5, 1, 6], 11, 19, 11, 'true']"
p713
(lp714
I39
asS"[-1, 'false', [7, 1, 4], 4, 36, 11, 'false']"
p715
(lp716
I29
asS"[-1, 'false', [2, 5, 5], 20, 27, 12, 'true']"
p717
(lp718
I10
asS"[-1, 'false', [1, 2, 9], 3, 45, 11, 'true']"
p719
(lp720
I37
asS"[-1, 'false', [7, 3, 2], 9, 35, 15, 'false']"
p721
(lp722
I18
asS"[-1, 'false', [0, 6, 6], 1, 24, 11, 'false']"
p723
(lp724
I21
asS"[-1, 'false', [1, 3, 8], 17, 10, 10, 'false']"
p725
(lp726
I15
asS"[-1, 'false', [4, 1, 7], 12, 23, 9, 'true']"
p727
(lp728
I26
asS"[-1, 'false', [4, 5, 3], 11, 7, 9, 'false']"
p729
(lp730
I24
asS"[-1, 'false', [3, 5, 4], 8, 1, 4, 'false']"
p731
(lp732
I28
asS"[-1, 'false', [0, 1, 11], 16, 27, 10, 'false']"
p733
(lp734
I28
asS"[-1, 'false', [0, 5, 7], 20, 43, 12, 'false']"
p735
(lp736
I14342011
asS"[-1, 'false', [8, 2, 2], 16, 31, 9, 'true']"
p737
(lp738
I29
asS"[-1, 'false', [3, 7, 2], 20, 40, 9, 'true']"
p739
(lp740
I4
asS"[-1, 'false', [1, 8, 3], 20, 35, 15, 'false']"
p741
(lp742
I12
asS"[-1, 'false', [5, 3, 4], 3, 45, 13, 'false']"
p743
(lp744
I27
asS"[-1, 'false', [2, 4, 6], 17, 7, 10, 'true']"
p745
(lp746
I16
asS"[-1, 'false', [1, 2, 9], 14, 29, 12, 'true']"
p747
(lp748
I18
aI31
aI22
asS"[-1, 'false', [2, 3, 7], 6, 27, 15, 'false']"
p749
(lp750
I35
asS"[-1, 'false', [8, 1, 3], 6, 4, 10, 'false']"
p751
(lp752
I27
asS"[-1, 'false', [5, 4, 3], 15, 16, 13, 'false']"
p753
(lp754
I28
aI25
asS"[-1, 'false', [8, 1, 3], 11, 2, 6, 'false']"
p755
(lp756
I28
asS"[-1, 'false', [3, 5, 4], 20, 21, 6, 'true']"
p757
(lp758
I36
asS"[-1, 'false', [8, 2, 2], 19, 43, 14, 'false']"
p759
(lp760
I27
asS"[-1, 'false', [4, 4, 4], 19, 12, 13, 'true']"
p761
(lp762
I28
asS"[-1, 'false', [2, 2, 8], 13, 47, 15, 'true']"
p763
(lp764
I26
asS"[-1, 'false', [2, 5, 5], 7, 8, 13, 'false']"
p765
(lp766
I33
asS"[-1, 'false', [0, 10, 2], 10, 45, 8, 'true']"
p767
(lp768
I15
asS"[-1, 'false', [7, 4, 1], 12, 44, 7, 'true']"
p769
(lp770
I10
asS"[-1, 'false', [2, 6, 4], 19, 15, 12, 'false']"
p771
(lp772
I18
asS"[-1, 'false', [7, 1, 4], 7, 37, 9, 'true']"
p773
(lp774
I39
asS"[-1, 'false', [0, 2, 10], 1, 43, 11, 'true']"
p775
(lp776
I32
asS"[-1, 'false', [3, 6, 3], 4, 24, 10, 'false']"
p777
(lp778
I21
asS"[-1, 'false', [5, 5, 2], 15, 42, 12, 'false']"
p779
(lp780
I19
asS"[-1, 'false', [1, 8, 3], 3, 16, 14, 'true']"
p781
(lp782
I34
asS"[-1, 'false', [2, 5, 5], 7, 39, 10, 'false']"
p783
(lp784
I36
asS"[-1, 'false', [6, 2, 4], 7, 37, 7, 'true']"
p785
(lp786
I33
asS"[-1, 'false', [4, 4, 4], 16, 48, 11, 'true']"
p787
(lp788
I26
asS"[-1, 'false', [9, 2, 1], 12, 24, 14, 'false']"
p789
(lp790
I24
asS"[-1, 'false', [5, 3, 4], 1, 28, 7, 'false']"
p791
(lp792
I31
asS"[-1, 'false', [1, 7, 4], 1, 41, 7, 'true']"
p793
(lp794
I43
asS"[-1, 'false', [4, 6, 2], 7, 15, 6, 'false']"
p795
(lp796
I21
asS"[-1, 'false', [1, 7, 4], 5, 47, 6, 'false']"
p797
(lp798
I27
asS"[-1, 'false', [2, 4, 6], 16, 1, 11, 'true']"
p799
(lp800
I23
asS"[-1, 'false', [6, 3, 3], 15, 35, 13, 'true']"
p801
(lp802
I17446015
asS"[-1, 'false', [4, 3, 5], 5, 28, 13, 'false']"
p803
(lp804
I40
asS"[-1, 'false', [2, 1, 9], 17, 34, 15, 'false']"
p805
(lp806
I24
asS"[-1, 'false', [2, 2, 8], 6, 31, 14, 'true']"
p807
(lp808
I24
asS"[-1, 'false', [7, 4, 1], 15, 16, 13, 'false']"
p809
(lp810
I18
asS"[-1, 'false', [0, 5, 7], 18, 10, 15, 'false']"
p811
(lp812
I19
asS"[-1, 'false', [4, 4, 4], 7, 44, 8, 'false']"
p813
(lp814
I38
aI41
aI31
aI32
aI13
asS"[-1, 'false', [3, 2, 7], 20, 49, 7, 'false']"
p815
(lp816
I13
asS"[-1, 'false', [7, 3, 2], 9, 28, 10, 'false']"
p817
(lp818
I26
asS"[-1, 'false', [7, 4, 1], 13, 47, 11, 'false']"
p819
(lp820
I8
asS"[-1, 'false', [5, 5, 2], 6, 5, 11, 'false']"
p821
(lp822
I17
asS"[-1, 'false', [1, 3, 8], 7, 14, 11, 'false']"
p823
(lp824
I29
asS"[-1, 'false', [1, 7, 4], 6, 34, 14, 'true']"
p825
(lp826
I31
asS"[-1, 'false', [10, 1, 1], 6, 39, 10, 'false']"
p827
(lp828
I9
asS"[-1, 'false', [5, 2, 5], 1, 35, 6, 'false']"
p829
(lp830
I38
aI36
asS"[-1, 'false', [5, 3, 4], 5, 34, 12, 'true']"
p831
(lp832
I30
aI28
asS"[-1, 'false', [1, 3, 8], 20, 13, 8, 'false']"
p833
(lp834
I17
asS"[-1, 'false', [9, 2, 1], 18, 20, 11, 'false']"
p835
(lp836
I24
asS"[-1, 'false', [1, 2, 9], 2, 45, 11, 'true']"
p837
(lp838
I38
asS"[-1, 'false', [1, 9, 2], 6, 45, 15, 'true']"
p839
(lp840
I21
asS"[-1, 'false', [1, 4, 7], 10, 15, 11, 'false']"
p841
(lp842
I28
asS"[-1, 'false', [9, 2, 1], 12, 35, 8, 'false']"
p843
(lp844
I20
asS"[-1, 'false', [6, 1, 5], 18, 6, 12, 'true']"
p845
(lp846
I23
aI24
asS"[-1, 'false', [8, 1, 3], 4, 42, 10, 'true']"
p847
(lp848
I24
asS"[-1, 'false', [10, 1, 1], 8, 27, 7, 'true']"
p849
(lp850
I37
asS"[-1, 'false', [6, 4, 2], 15, 40, 13, 'false']"
p851
(lp852
I19
asS"[-1, 'false', [6, 2, 4], 11, 38, 12, 'false']"
p853
(lp854
I30
asS"[-1, 'false', [8, 2, 2], 17, 40, 10, 'false']"
p855
(lp856
I12
asS"[-1, 'false', [7, 4, 1], 3, 30, 14, 'true']"
p857
(lp858
I28
asS"[-1, 'false', [7, 1, 4], 7, 35, 7, 'true']"
p859
(lp860
I35
aI36
asS"[-1, 'false', [7, 4, 1], 7, 8, 13, 'true']"
p861
(lp862
I23
asS"[-1, 'false', [6, 2, 4], 2, 32, 10, 'true']"
p863
(lp864
I34
asS"[-1, 'false', [5, 4, 3], 15, 20, 13, 'false']"
p865
(lp866
I26
asS"[-1, 'false', [5, 6, 1], 14, 50, 14, 'false']"
p867
(lp868
I10
asS"[-1, 'false', [4, 6, 2], 19, 39, 13, 'true']"
p869
(lp870
I10
asS"[-1, 'false', [8, 2, 2], 8, 18, 10, 'false']"
p871
(lp872
I33
asS"[-1, 'false', [1, 4, 7], 7, 45, 14, 'true']"
p873
(lp874
I23
asS"[-1, 'false', [4, 2, 6], 5, 6, 8, 'true']"
p875
(lp876
I18
asS"[-1, 'false', [10, 1, 1], 11, 23, 13, 'false']"
p877
(lp878
I21
asS"[-1, 'false', [6, 3, 3], 1, 24, 6, 'true']"
p879
(lp880
I39
asS"[-1, 'false', [3, 8, 1], 9, 21, 15, 'false']"
p881
(lp882
I15
asS"[-1, 'false', [2, 6, 4], 4, 34, 13, 'true']"
p883
(lp884
I32
asS"[-1, 'false', [5, 3, 4], 12, 25, 11, 'false']"
p885
(lp886
I21
asS"[-1, 'false', [5, 2, 5], 1, 42, 6, 'false']"
p887
(lp888
I13131005
aI26
asS"[-1, 'false', [5, 6, 1], 2, 7, 12, 'true']"
p889
(lp890
I24
asS"[-1, 'false', [2, 3, 7], 3, 49, 15, 'false']"
p891
(lp892
I46048005
asS"[-1, 'false', [8, 3, 1], 10, 8, 10, 'true']"
p893
(lp894
I28
asS"[-1, 'false', [10, 1, 1], 8, 34, 9, 'false']"
p895
(lp896
I22
asS"[-1, 'false', [2, 5, 5], 12, 4, 6, 'true']"
p897
(lp898
I24
asS"[-1, 'false', [4, 4, 4], 13, 13, 8, 'false']"
p899
(lp900
I18
asS"[-1, 'false', [9, 1, 2], 8, 9, 14, 'false']"
p901
(lp902
I32
asS"[-1, 'false', [1, 5, 6], 10, 35, 11, 'true']"
p903
(lp904
I22
asS"[-1, 'false', [1, 3, 8], 1, 27, 7, 'false']"
p905
(lp906
I34
asS"[-1, 'false', [10, 1, 1], 9, 44, 6, 'true']"
p907
(lp908
I25
asS"[-1, 'false', [8, 1, 3], 1, 27, 15, 'true']"
p909
(lp910
I32
asS"[-1, 'false', [6, 5, 1], 18, 16, 9, 'false']"
p911
(lp912
I15
asS"[-1, 'false', [9, 1, 2], 1, 18, 6, 'true']"
p913
(lp914
I27
asS"[-1, 'false', [1, 2, 9], 3, 35, 11, 'true']"
p915
(lp916
I38
asS"[-1, 'false', [8, 3, 1], 18, 1, 14, 'false']"
p917
(lp918
I15
asS"[-1, 'false', [3, 1, 8], 3, 37, 12, 'false']"
p919
(lp920
I39
asS"[-1, 'false', [10, 1, 1], 12, 11, 6, 'false']"
p921
(lp922
I23
asS"[-1, 'false', [4, 3, 5], 1, 42, 10, 'false']"
p923
(lp924
I28
asS"[-1, 'false', [3, 3, 6], 4, 11, 10, 'false']"
p925
(lp926
I29
asS"[-1, 'false', [6, 1, 5], 11, 10, 7, 'true']"
p927
(lp928
I23
asS"[-1, 'false', [2, 5, 5], 18, 10, 15, 'true']"
p929
(lp930
I24
asS"[-1, 'false', [2, 8, 2], 18, 6, 8, 'true']"
p931
(lp932
I27
asS"[-1, 'false', [1, 10, 1], 2, 34, 13, 'false']"
p933
(lp934
I12
asS"[-1, 'false', [1, 7, 4], 8, 30, 11, 'true']"
p935
(lp936
I27
asS"[-1, 'false', [2, 3, 7], 16, 29, 12, 'true']"
p937
(lp938
I26
asS"[-1, 'false', [0, 1, 11], 7, 27, 11, 'false']"
p939
(lp940
I30
asS"[-1, 'false', [4, 1, 7], 6, 6, 12, 'true']"
p941
(lp942
I25
aI28
aI29
aI18
asS"[-1, 'false', [8, 2, 2], 10, 17, 14, 'true']"
p943
(lp944
I22
asS"[-1, 'false', [7, 1, 4], 7, 2, 9, 'true']"
p945
(lp946
I30
asS"[-1, 'false', [3, 4, 5], 14, 23, 12, 'true']"
p947
(lp948
I19
asS"[-1, 'false', [8, 3, 1], 20, 7, 7, 'false']"
p949
(lp950
I17
asS"[-1, 'false', [4, 4, 4], 20, 46, 13, 'false']"
p951
(lp952
I13
asS"[-1, 'false', [6, 2, 4], 9, 36, 14, 'true']"
p953
(lp954
I21
asS"[-1, 'false', [1, 3, 8], 7, 15, 11, 'false']"
p955
(lp956
I28
asS"[-1, 'false', [5, 4, 3], 1, 2, 13, 'false']"
p957
(lp958
I32
asS"[-1, 'false', [5, 2, 5], 5, 42, 6, 'false']"
p959
(lp960
I29
asS"[-1, 'false', [5, 5, 2], 12, 41, 12, 'false']"
p961
(lp962
I21
asS"[-1, 'false', [5, 6, 1], 8, 44, 10, 'false']"
p963
(lp964
I17
asS"[-1, 'false', [3, 5, 4], 11, 50, 12, 'false']"
p965
(lp966
I18
asS"[-1, 'false', [5, 5, 2], 8, 37, 7, 'true']"
p967
(lp968
I17
asS"[-1, 'false', [0, 10, 2], 13, 30, 10, 'false']"
p969
(lp970
I17
asS"[-1, 'false', [7, 1, 4], 3, 24, 10, 'false']"
p971
(lp972
I24
asS"[-1, 'false', [3, 4, 5], 5, 23, 10, 'true']"
p973
(lp974
I28
asS"[-1, 'false', [7, 2, 3], 5, 16, 13, 'false']"
p975
(lp976
I31
asS"[-1, 'false', [7, 3, 2], 2, 32, 10, 'true']"
p977
(lp978
I32
asS"[-1, 'false', [9, 2, 1], 8, 38, 11, 'false']"
p979
(lp980
I26
asS"[-1, 'false', [3, 2, 7], 10, 3, 11, 'true']"
p981
(lp982
I29
asS"[-1, 'false', [1, 4, 7], 17, 4, 13, 'true']"
p983
(lp984
I24
asS"[-1, 'false', [4, 7, 1], 4, 17, 12, 'true']"
p985
(lp986
I27
asS"[-1, 'false', [2, 5, 5], 17, 8, 12, 'true']"
p987
(lp988
I30
asS"[-1, 'false', [7, 4, 1], 18, 1, 14, 'false']"
p989
(lp990
I24
asS"[-1, 'false', [1, 2, 9], 15, 25, 7, 'false']"
p991
(lp992
I17
asS"[-1, 'false', [5, 3, 4], 9, 7, 10, 'true']"
p993
(lp994
I29
asS"[-1, 'false', [0, 10, 2], 8, 16, 7, 'false']"
p995
(lp996
I12
asS"[-1, 'false', [3, 8, 1], 4, 37, 14, 'false']"
p997
(lp998
I14
asS"[-1, 'false', [2, 6, 4], 17, 22, 12, 'true']"
p999
(lp1000
I22
asS"[-1, 'false', [9, 2, 1], 12, 36, 15, 'false']"
p1001
(lp1002
I29
aI9
aI23
asS"[-1, 'false', [7, 2, 3], 9, 44, 6, 'true']"
p1003
(lp1004
I22
asS"[-1, 'false', [1, 9, 2], 11, 30, 14, 'false']"
p1005
(lp1006
I22
asS"[-1, 'false', [7, 4, 1], 8, 35, 6, 'false']"
p1007
(lp1008
I27
asS"[-1, 'false', [6, 1, 5], 4, 30, 9, 'true']"
p1009
(lp1010
I28
asS"[-1, 'false', [2, 5, 5], 18, 33, 7, 'false']"
p1011
(lp1012
I22
asS"[-1, 'false', [10, 1, 1], 9, 42, 15, 'true']"
p1013
(lp1014
I34
asS"[-1, 'false', [4, 2, 6], 15, 25, 6, 'true']"
p1015
(lp1016
I30
asS"[-1, 'false', [1, 5, 6], 18, 10, 15, 'false']"
p1017
(lp1018
I31
asS"[-1, 'false', [5, 4, 3], 1, 21, 12, 'true']"
p1019
(lp1020
I42
aI28
asS"[-1, 'false', [0, 3, 9], 1, 35, 6, 'false']"
p1021
(lp1022
I38
asS"[-1, 'false', [2, 1, 9], 8, 15, 15, 'false']"
p1023
(lp1024
I4700047012
asS"[-1, 'false', [0, 5, 7], 1, 27, 7, 'false']"
p1025
(lp1026
I38
asS"[-1, 'false', [1, 2, 9], 10, 39, 6, 'false']"
p1027
(lp1028
I20
as.